Archive member included because of file (symbol)

/usr/local/ps3dev/portlibs/ppu/lib/libfont.a(libfont.o)
                              main.o (ResetFont)
/home/scristaldi/tiny3d_Estwald_work/fonts/libtiny3d_.a(tiny3d.o)
                              main.o (tiny3d_Init)
/home/scristaldi/tiny3d_Estwald_work/fonts/libtiny3d_.a(mm.o)
                              /home/scristaldi/tiny3d_Estwald_work/fonts/libtiny3d_.a(tiny3d.o) (rsxtiny_MemAlign)
/home/scristaldi/tiny3d_Estwald_work/fonts/libtiny3d_.a(glue.o)
                              /home/scristaldi/tiny3d_Estwald_work/fonts/libtiny3d_.a(tiny3d.o) (rsxtiny_FlushBuffer)
/home/scristaldi/tiny3d_Estwald_work/fonts/libtiny3d_.a(vshader_text_normal.vcg.o)
                              /home/scristaldi/tiny3d_Estwald_work/fonts/libtiny3d_.a(tiny3d.o) (vshader_text_normal_bin)
/home/scristaldi/tiny3d_Estwald_work/fonts/libtiny3d_.a(realityVP.o)
                              /home/scristaldi/tiny3d_Estwald_work/fonts/libtiny3d_.a(tiny3d.o) (rsxtiny_VertexProgramGetInputAttribute)
/home/scristaldi/tiny3d_Estwald_work/fonts/libtiny3d_.a(matrix.o)
                              /home/scristaldi/tiny3d_Estwald_work/fonts/libtiny3d_.a(tiny3d.o) (MatrixVectorMultiply)
/home/scristaldi/tiny3d_Estwald_work/fonts/libtiny3d_.a(commands.o)
                              /home/scristaldi/tiny3d_Estwald_work/fonts/libtiny3d_.a(tiny3d.o) (rsxtiny_MakeCmdSpace)
/home/scristaldi/tiny3d_Estwald_work/fonts/libtiny3d_.a(rsxutil.o)
                              /home/scristaldi/tiny3d_Estwald_work/fonts/libtiny3d_.a(tiny3d.o) (waitFlip)
/home/scristaldi/tiny3d_Estwald_work/fonts/libtiny3d_.a(buffer.o)
                              /home/scristaldi/tiny3d_Estwald_work/fonts/libtiny3d_.a(commands.o) (tiny_rsxContextCallback)
/usr/local/ps3dev/psl1ght/ppu/lib/libgcm_sys.a(sprx.o)
                              /home/scristaldi/tiny3d_Estwald_work/fonts/libtiny3d_.a(rsxutil.o) (gcmSetFlip)
/usr/local/ps3dev/psl1ght/ppu/lib/libio.a(sprx.o)
                              main.o (ioPadInit)
/usr/local/ps3dev/psl1ght/ppu/lib/libsysutil.a(sprx.o)
                              /home/scristaldi/tiny3d_Estwald_work/fonts/libtiny3d_.a(rsxutil.o) (videoConfigure)
/usr/local/ps3dev/psl1ght/ppu/lib/libsysutil.a(sysutil_wrapper.o)
                              /home/scristaldi/tiny3d_Estwald_work/fonts/libtiny3d_.a(tiny3d.o) (sysUtilRegisterCallback)
/usr/local/ps3dev/psl1ght/ppu/lib/librt.a(sbrk.o)
                              /usr/local/ps3dev/ppu/lib/gcc/powerpc64-ps3-elf/7.2.0/../../../../powerpc64-ps3-elf/lib/lv2-crt0.o (__librt_sbrk_r)
/usr/local/ps3dev/psl1ght/ppu/lib/librt.a(exit.o)
                              /usr/local/ps3dev/ppu/lib/gcc/powerpc64-ps3-elf/7.2.0/../../../../powerpc64-ps3-elf/lib/lv2-crt0.o (__librt_exit)
/usr/local/ps3dev/psl1ght/ppu/lib/librt.a(close.o)
                              /usr/local/ps3dev/ppu/lib/gcc/powerpc64-ps3-elf/7.2.0/../../../../powerpc64-ps3-elf/lib/lv2-crt0.o (__librt_close_r)
/usr/local/ps3dev/psl1ght/ppu/lib/librt.a(lseek.o)
                              /usr/local/ps3dev/ppu/lib/gcc/powerpc64-ps3-elf/7.2.0/../../../../powerpc64-ps3-elf/lib/lv2-crt0.o (__librt_lseek_r)
/usr/local/ps3dev/psl1ght/ppu/lib/librt.a(read.o)
                              /usr/local/ps3dev/ppu/lib/gcc/powerpc64-ps3-elf/7.2.0/../../../../powerpc64-ps3-elf/lib/lv2-crt0.o (__librt_read_r)
/usr/local/ps3dev/psl1ght/ppu/lib/librt.a(open.o)
                              /usr/local/ps3dev/ppu/lib/gcc/powerpc64-ps3-elf/7.2.0/../../../../powerpc64-ps3-elf/lib/lv2-crt0.o (__librt_open_r)
/usr/local/ps3dev/psl1ght/ppu/lib/librt.a(sleep.o)
                              /usr/local/ps3dev/ppu/lib/gcc/powerpc64-ps3-elf/7.2.0/../../../../powerpc64-ps3-elf/lib/lv2-crt0.o (__librt_usleep_r)
/usr/local/ps3dev/psl1ght/ppu/lib/librt.a(write.o)
                              /usr/local/ps3dev/ppu/lib/gcc/powerpc64-ps3-elf/7.2.0/../../../../powerpc64-ps3-elf/lib/lv2-crt0.o (__librt_write_r)
/usr/local/ps3dev/psl1ght/ppu/lib/librt.a(fstat.o)
                              /usr/local/ps3dev/ppu/lib/gcc/powerpc64-ps3-elf/7.2.0/../../../../powerpc64-ps3-elf/lib/lv2-crt0.o (__librt_fstat_r)
/usr/local/ps3dev/psl1ght/ppu/lib/librt.a(socket.o)
                              /usr/local/ps3dev/psl1ght/ppu/lib/librt.a(write.o) (send)
/usr/local/ps3dev/psl1ght/ppu/lib/librt.a(lock.o)
                              /usr/local/ps3dev/ppu/lib/gcc/powerpc64-ps3-elf/7.2.0/../../../../powerpc64-ps3-elf/lib/lv2-crt0.o (__librt_sys_lwmutex_create_r)
/usr/local/ps3dev/psl1ght/ppu/lib/librt.a(dirent.o)
                              /usr/local/ps3dev/ppu/lib/gcc/powerpc64-ps3-elf/7.2.0/../../../../powerpc64-ps3-elf/lib/lv2-crt0.o (__librt_opendir_r)
/usr/local/ps3dev/psl1ght/ppu/lib/librt.a(mkdir.o)
                              /usr/local/ps3dev/ppu/lib/gcc/powerpc64-ps3-elf/7.2.0/../../../../powerpc64-ps3-elf/lib/lv2-crt0.o (__librt_mkdir_r)
/usr/local/ps3dev/psl1ght/ppu/lib/librt.a(times.o)
                              /usr/local/ps3dev/ppu/lib/gcc/powerpc64-ps3-elf/7.2.0/../../../../powerpc64-ps3-elf/lib/lv2-crt0.o (__librt_times_r)
/usr/local/ps3dev/psl1ght/ppu/lib/librt.a(umask.o)
                              /usr/local/ps3dev/ppu/lib/gcc/powerpc64-ps3-elf/7.2.0/../../../../powerpc64-ps3-elf/lib/lv2-crt0.o (__librt_umask_r)
/usr/local/ps3dev/psl1ght/ppu/lib/librt.a(lv2errno.o)
                              /usr/local/ps3dev/psl1ght/ppu/lib/librt.a(socket.o) (lv2errno)
/usr/local/ps3dev/psl1ght/ppu/lib/librt.a(heap.o)
                              /usr/local/ps3dev/psl1ght/ppu/lib/librt.a(sbrk.o) (heapInit)
/usr/local/ps3dev/psl1ght/ppu/lib/librt.a(chmod.o)
                              /usr/local/ps3dev/ppu/lib/gcc/powerpc64-ps3-elf/7.2.0/../../../../powerpc64-ps3-elf/lib/lv2-crt0.o (__librt_chmod_r)
/usr/local/ps3dev/psl1ght/ppu/lib/librt.a(rmdir.o)
                              /usr/local/ps3dev/ppu/lib/gcc/powerpc64-ps3-elf/7.2.0/../../../../powerpc64-ps3-elf/lib/lv2-crt0.o (__librt_rmdir_r)
/usr/local/ps3dev/psl1ght/ppu/lib/librt.a(isatty.o)
                              /usr/local/ps3dev/ppu/lib/gcc/powerpc64-ps3-elf/7.2.0/../../../../powerpc64-ps3-elf/lib/lv2-crt0.o (__librt_isatty_r)
/usr/local/ps3dev/psl1ght/ppu/lib/librt.a(gettod.o)
                              /usr/local/ps3dev/ppu/lib/gcc/powerpc64-ps3-elf/7.2.0/../../../../powerpc64-ps3-elf/lib/lv2-crt0.o (__librt_gettod_r)
/usr/local/ps3dev/psl1ght/ppu/lib/librt.a(settod.o)
                              /usr/local/ps3dev/ppu/lib/gcc/powerpc64-ps3-elf/7.2.0/../../../../powerpc64-ps3-elf/lib/lv2-crt0.o (__librt_settod_r)
/usr/local/ps3dev/psl1ght/ppu/lib/liblv2.a(sprx.o)
                              /usr/local/ps3dev/psl1ght/ppu/lib/librt.a(sbrk.o) (sysSpinlockInitialize)
/usr/local/ps3dev/psl1ght/ppu/lib/libnet.a(sprx.o)
                              /home/scristaldi/tiny3d_Estwald_work/fonts/libtiny3d_.a(tiny3d.o) (netConnect)
/usr/local/ps3dev/psl1ght/ppu/lib/libnet.a(init.o)
                              /home/scristaldi/tiny3d_Estwald_work/fonts/libtiny3d_.a(tiny3d.o) (netInitialize)
/usr/local/ps3dev/psl1ght/ppu/lib/libsysmodule.a(sprx.o)
                              /usr/local/ps3dev/psl1ght/ppu/lib/libnet.a(init.o) (sysModuleLoad)
/usr/local/ps3dev/ppu/lib/gcc/powerpc64-ps3-elf/7.2.0/../../../../powerpc64-ps3-elf/lib/libm.a(lib_a-sf_cos.o)
                              /home/scristaldi/tiny3d_Estwald_work/fonts/libtiny3d_.a(matrix.o) (cosf)
/usr/local/ps3dev/ppu/lib/gcc/powerpc64-ps3-elf/7.2.0/../../../../powerpc64-ps3-elf/lib/libm.a(lib_a-sf_sin.o)
                              /home/scristaldi/tiny3d_Estwald_work/fonts/libtiny3d_.a(matrix.o) (sinf)
/usr/local/ps3dev/ppu/lib/gcc/powerpc64-ps3-elf/7.2.0/../../../../powerpc64-ps3-elf/lib/libm.a(lib_a-sf_tan.o)
                              /home/scristaldi/tiny3d_Estwald_work/fonts/libtiny3d_.a(matrix.o) (tanf)
/usr/local/ps3dev/ppu/lib/gcc/powerpc64-ps3-elf/7.2.0/../../../../powerpc64-ps3-elf/lib/libm.a(lib_a-w_sqrt.o)
                              /home/scristaldi/tiny3d_Estwald_work/fonts/libtiny3d_.a(matrix.o) (sqrt)
/usr/local/ps3dev/ppu/lib/gcc/powerpc64-ps3-elf/7.2.0/../../../../powerpc64-ps3-elf/lib/libm.a(lib_a-wf_sqrt.o)
                              /home/scristaldi/tiny3d_Estwald_work/fonts/libtiny3d_.a(matrix.o) (sqrtf)
/usr/local/ps3dev/ppu/lib/gcc/powerpc64-ps3-elf/7.2.0/../../../../powerpc64-ps3-elf/lib/libm.a(lib_a-e_sqrt.o)
                              /usr/local/ps3dev/ppu/lib/gcc/powerpc64-ps3-elf/7.2.0/../../../../powerpc64-ps3-elf/lib/libm.a(lib_a-w_sqrt.o) (__ieee754_sqrt)
/usr/local/ps3dev/ppu/lib/gcc/powerpc64-ps3-elf/7.2.0/../../../../powerpc64-ps3-elf/lib/libm.a(lib_a-ef_rem_pio2.o)
                              /usr/local/ps3dev/ppu/lib/gcc/powerpc64-ps3-elf/7.2.0/../../../../powerpc64-ps3-elf/lib/libm.a(lib_a-sf_cos.o) (__ieee754_rem_pio2f)
/usr/local/ps3dev/ppu/lib/gcc/powerpc64-ps3-elf/7.2.0/../../../../powerpc64-ps3-elf/lib/libm.a(lib_a-ef_sqrt.o)
                              /usr/local/ps3dev/ppu/lib/gcc/powerpc64-ps3-elf/7.2.0/../../../../powerpc64-ps3-elf/lib/libm.a(lib_a-wf_sqrt.o) (__ieee754_sqrtf)
/usr/local/ps3dev/ppu/lib/gcc/powerpc64-ps3-elf/7.2.0/../../../../powerpc64-ps3-elf/lib/libm.a(lib_a-kf_cos.o)
                              /usr/local/ps3dev/ppu/lib/gcc/powerpc64-ps3-elf/7.2.0/../../../../powerpc64-ps3-elf/lib/libm.a(lib_a-sf_cos.o) (__kernel_cosf)
/usr/local/ps3dev/ppu/lib/gcc/powerpc64-ps3-elf/7.2.0/../../../../powerpc64-ps3-elf/lib/libm.a(lib_a-kf_rem_pio2.o)
                              /usr/local/ps3dev/ppu/lib/gcc/powerpc64-ps3-elf/7.2.0/../../../../powerpc64-ps3-elf/lib/libm.a(lib_a-ef_rem_pio2.o) (__kernel_rem_pio2f)
/usr/local/ps3dev/ppu/lib/gcc/powerpc64-ps3-elf/7.2.0/../../../../powerpc64-ps3-elf/lib/libm.a(lib_a-kf_sin.o)
                              /usr/local/ps3dev/ppu/lib/gcc/powerpc64-ps3-elf/7.2.0/../../../../powerpc64-ps3-elf/lib/libm.a(lib_a-sf_cos.o) (__kernel_sinf)
/usr/local/ps3dev/ppu/lib/gcc/powerpc64-ps3-elf/7.2.0/../../../../powerpc64-ps3-elf/lib/libm.a(lib_a-kf_tan.o)
                              /usr/local/ps3dev/ppu/lib/gcc/powerpc64-ps3-elf/7.2.0/../../../../powerpc64-ps3-elf/lib/libm.a(lib_a-sf_tan.o) (__kernel_tanf)
/usr/local/ps3dev/ppu/lib/gcc/powerpc64-ps3-elf/7.2.0/../../../../powerpc64-ps3-elf/lib/libm.a(lib_a-s_fpclassify.o)
                              /usr/local/ps3dev/ppu/lib/gcc/powerpc64-ps3-elf/7.2.0/../../../../powerpc64-ps3-elf/lib/libm.a(lib_a-w_sqrt.o) (__fpclassifyd)
/usr/local/ps3dev/ppu/lib/gcc/powerpc64-ps3-elf/7.2.0/../../../../powerpc64-ps3-elf/lib/libm.a(lib_a-s_lib_ver.o)
                              /usr/local/ps3dev/ppu/lib/gcc/powerpc64-ps3-elf/7.2.0/../../../../powerpc64-ps3-elf/lib/libm.a(lib_a-w_sqrt.o) (__fdlib_version)
/usr/local/ps3dev/ppu/lib/gcc/powerpc64-ps3-elf/7.2.0/../../../../powerpc64-ps3-elf/lib/libm.a(lib_a-s_matherr.o)
                              /usr/local/ps3dev/ppu/lib/gcc/powerpc64-ps3-elf/7.2.0/../../../../powerpc64-ps3-elf/lib/libm.a(lib_a-w_sqrt.o) (matherr)
/usr/local/ps3dev/ppu/lib/gcc/powerpc64-ps3-elf/7.2.0/../../../../powerpc64-ps3-elf/lib/libm.a(lib_a-sf_fabs.o)
                              /usr/local/ps3dev/ppu/lib/gcc/powerpc64-ps3-elf/7.2.0/../../../../powerpc64-ps3-elf/lib/libm.a(lib_a-ef_rem_pio2.o) (fabsf)
/usr/local/ps3dev/ppu/lib/gcc/powerpc64-ps3-elf/7.2.0/../../../../powerpc64-ps3-elf/lib/libm.a(lib_a-sf_floor.o)
                              /usr/local/ps3dev/ppu/lib/gcc/powerpc64-ps3-elf/7.2.0/../../../../powerpc64-ps3-elf/lib/libm.a(lib_a-kf_rem_pio2.o) (floorf)
/usr/local/ps3dev/ppu/lib/gcc/powerpc64-ps3-elf/7.2.0/../../../../powerpc64-ps3-elf/lib/libm.a(lib_a-sf_fpclassify.o)
                              /usr/local/ps3dev/ppu/lib/gcc/powerpc64-ps3-elf/7.2.0/../../../../powerpc64-ps3-elf/lib/libm.a(lib_a-wf_sqrt.o) (__fpclassifyf)
/usr/local/ps3dev/ppu/lib/gcc/powerpc64-ps3-elf/7.2.0/../../../../powerpc64-ps3-elf/lib/libm.a(lib_a-sf_scalbn.o)
                              /usr/local/ps3dev/ppu/lib/gcc/powerpc64-ps3-elf/7.2.0/../../../../powerpc64-ps3-elf/lib/libm.a(lib_a-kf_rem_pio2.o) (scalbnf)
/usr/local/ps3dev/ppu/lib/gcc/powerpc64-ps3-elf/7.2.0/../../../../powerpc64-ps3-elf/lib/libm.a(lib_a-sf_copysign.o)
                              /usr/local/ps3dev/ppu/lib/gcc/powerpc64-ps3-elf/7.2.0/../../../../powerpc64-ps3-elf/lib/libm.a(lib_a-sf_scalbn.o) (copysignf)
/usr/local/ps3dev/ppu/lib/gcc/powerpc64-ps3-elf/7.2.0/../../../../powerpc64-ps3-elf/lib/libsysbase.a(syscalls.o)
                              /usr/local/ps3dev/ppu/lib/gcc/powerpc64-ps3-elf/7.2.0/../../../../powerpc64-ps3-elf/lib/lv2-crt0.o (__syscalls)
/usr/local/ps3dev/ppu/lib/gcc/powerpc64-ps3-elf/7.2.0/../../../../powerpc64-ps3-elf/lib/libsysbase.a(sleep.o)
                              /home/scristaldi/tiny3d_Estwald_work/fonts/libtiny3d_.a(tiny3d.o) (usleep)
/usr/local/ps3dev/ppu/lib/gcc/powerpc64-ps3-elf/7.2.0/../../../../powerpc64-ps3-elf/lib/libc.a(lib_a-atexit.o)
                              /home/scristaldi/tiny3d_Estwald_work/fonts/libtiny3d_.a(tiny3d.o) (atexit)
/usr/local/ps3dev/ppu/lib/gcc/powerpc64-ps3-elf/7.2.0/../../../../powerpc64-ps3-elf/lib/libc.a(lib_a-calloc.o)
                              /usr/local/ps3dev/psl1ght/ppu/lib/librt.a(dirent.o) (calloc)
/usr/local/ps3dev/ppu/lib/gcc/powerpc64-ps3-elf/7.2.0/../../../../powerpc64-ps3-elf/lib/libc.a(lib_a-callocr.o)
                              /usr/local/ps3dev/ppu/lib/gcc/powerpc64-ps3-elf/7.2.0/../../../../powerpc64-ps3-elf/lib/libc.a(lib_a-calloc.o) (_calloc_r)
/usr/local/ps3dev/ppu/lib/gcc/powerpc64-ps3-elf/7.2.0/../../../../powerpc64-ps3-elf/lib/libc.a(lib_a-errno.o)
                              /usr/local/ps3dev/psl1ght/ppu/lib/librt.a(socket.o) (__errno)
/usr/local/ps3dev/ppu/lib/gcc/powerpc64-ps3-elf/7.2.0/../../../../powerpc64-ps3-elf/lib/libc.a(lib_a-exit.o)
                              /usr/local/ps3dev/ppu/lib/gcc/powerpc64-ps3-elf/7.2.0/../../../../powerpc64-ps3-elf/lib/lv2-crt0.o (exit)
/usr/local/ps3dev/ppu/lib/gcc/powerpc64-ps3-elf/7.2.0/../../../../powerpc64-ps3-elf/lib/libc.a(lib_a-getreent.o)
                              /usr/local/ps3dev/ppu/lib/gcc/powerpc64-ps3-elf/7.2.0/../../../../powerpc64-ps3-elf/lib/libsysbase.a(sleep.o) (__getreent)
/usr/local/ps3dev/ppu/lib/gcc/powerpc64-ps3-elf/7.2.0/../../../../powerpc64-ps3-elf/lib/libc.a(lib_a-impure.o)
                              /usr/local/ps3dev/ppu/lib/gcc/powerpc64-ps3-elf/7.2.0/../../../../powerpc64-ps3-elf/lib/libc.a(lib_a-exit.o) (_global_impure_ptr)
/usr/local/ps3dev/ppu/lib/gcc/powerpc64-ps3-elf/7.2.0/../../../../powerpc64-ps3-elf/lib/libc.a(lib_a-malign.o)
                              /home/scristaldi/tiny3d_Estwald_work/fonts/libtiny3d_.a(rsxutil.o) (memalign)
/usr/local/ps3dev/ppu/lib/gcc/powerpc64-ps3-elf/7.2.0/../../../../powerpc64-ps3-elf/lib/libc.a(lib_a-malignr.o)
                              /usr/local/ps3dev/ppu/lib/gcc/powerpc64-ps3-elf/7.2.0/../../../../powerpc64-ps3-elf/lib/libc.a(lib_a-malign.o) (_memalign_r)
/usr/local/ps3dev/ppu/lib/gcc/powerpc64-ps3-elf/7.2.0/../../../../powerpc64-ps3-elf/lib/libc.a(lib_a-malloc.o)
                              /home/scristaldi/tiny3d_Estwald_work/fonts/libtiny3d_.a(tiny3d.o) (malloc)
/usr/local/ps3dev/ppu/lib/gcc/powerpc64-ps3-elf/7.2.0/../../../../powerpc64-ps3-elf/lib/libc.a(lib_a-mallocr.o)
                              /usr/local/ps3dev/ppu/lib/gcc/powerpc64-ps3-elf/7.2.0/../../../../powerpc64-ps3-elf/lib/libc.a(lib_a-callocr.o) (_malloc_r)
/usr/local/ps3dev/ppu/lib/gcc/powerpc64-ps3-elf/7.2.0/../../../../powerpc64-ps3-elf/lib/libc.a(lib_a-memcpy.o)
                              /home/scristaldi/tiny3d_Estwald_work/fonts/libtiny3d_.a(tiny3d.o) (memcpy)
/usr/local/ps3dev/ppu/lib/gcc/powerpc64-ps3-elf/7.2.0/../../../../powerpc64-ps3-elf/lib/libc.a(lib_a-memset.o)
                              /usr/local/ps3dev/portlibs/ppu/lib/libfont.a(libfont.o) (memset)
/usr/local/ps3dev/ppu/lib/gcc/powerpc64-ps3-elf/7.2.0/../../../../powerpc64-ps3-elf/lib/libc.a(lib_a-mlock.o)
                              /usr/local/ps3dev/ppu/lib/gcc/powerpc64-ps3-elf/7.2.0/../../../../powerpc64-ps3-elf/lib/libc.a(lib_a-malignr.o) (__malloc_lock)
/usr/local/ps3dev/ppu/lib/gcc/powerpc64-ps3-elf/7.2.0/../../../../powerpc64-ps3-elf/lib/libc.a(lib_a-puts.o)
                              /home/scristaldi/tiny3d_Estwald_work/fonts/libtiny3d_.a(tiny3d.o) (puts)
/usr/local/ps3dev/ppu/lib/gcc/powerpc64-ps3-elf/7.2.0/../../../../powerpc64-ps3-elf/lib/libc.a(lib_a-sscanf.o)
                              /usr/local/ps3dev/psl1ght/ppu/lib/librt.a(socket.o) (sscanf)
/usr/local/ps3dev/ppu/lib/gcc/powerpc64-ps3-elf/7.2.0/../../../../powerpc64-ps3-elf/lib/libc.a(lib_a-stdio.o)
                              /usr/local/ps3dev/ppu/lib/gcc/powerpc64-ps3-elf/7.2.0/../../../../powerpc64-ps3-elf/lib/libc.a(lib_a-sscanf.o) (__seofread)
/usr/local/ps3dev/ppu/lib/gcc/powerpc64-ps3-elf/7.2.0/../../../../powerpc64-ps3-elf/lib/libc.a(lib_a-strcasecmp.o)
                              /home/scristaldi/tiny3d_Estwald_work/fonts/libtiny3d_.a(realityVP.o) (strcasecmp)
/usr/local/ps3dev/ppu/lib/gcc/powerpc64-ps3-elf/7.2.0/../../../../powerpc64-ps3-elf/lib/libc.a(lib_a-strlen.o)
                              /home/scristaldi/tiny3d_Estwald_work/fonts/libtiny3d_.a(tiny3d.o) (strlen)
/usr/local/ps3dev/ppu/lib/gcc/powerpc64-ps3-elf/7.2.0/../../../../powerpc64-ps3-elf/lib/libc.a(lib_a-strncpy.o)
                              /usr/local/ps3dev/psl1ght/ppu/lib/librt.a(dirent.o) (strncpy)
/usr/local/ps3dev/ppu/lib/gcc/powerpc64-ps3-elf/7.2.0/../../../../powerpc64-ps3-elf/lib/libc.a(lib_a-svfscanf.o)
                              /usr/local/ps3dev/ppu/lib/gcc/powerpc64-ps3-elf/7.2.0/../../../../powerpc64-ps3-elf/lib/libc.a(lib_a-sscanf.o) (__ssvfscanf_r)
/usr/local/ps3dev/ppu/lib/gcc/powerpc64-ps3-elf/7.2.0/../../../../powerpc64-ps3-elf/lib/libc.a(lib_a-vsnprintf.o)
                              /home/scristaldi/tiny3d_Estwald_work/fonts/libtiny3d_.a(tiny3d.o) (vsnprintf)
/usr/local/ps3dev/ppu/lib/gcc/powerpc64-ps3-elf/7.2.0/../../../../powerpc64-ps3-elf/lib/libc.a(lib_a-vsprintf.o)
                              /usr/local/ps3dev/portlibs/ppu/lib/libfont.a(libfont.o) (vsprintf)
/usr/local/ps3dev/ppu/lib/gcc/powerpc64-ps3-elf/7.2.0/../../../../powerpc64-ps3-elf/lib/libc.a(lib_a-__atexit.o)
                              /usr/local/ps3dev/ppu/lib/gcc/powerpc64-ps3-elf/7.2.0/../../../../powerpc64-ps3-elf/lib/libc.a(lib_a-atexit.o) (__register_exitproc)
/usr/local/ps3dev/ppu/lib/gcc/powerpc64-ps3-elf/7.2.0/../../../../powerpc64-ps3-elf/lib/libc.a(lib_a-__call_atexit.o)
                              /usr/local/ps3dev/ppu/lib/gcc/powerpc64-ps3-elf/7.2.0/../../../../powerpc64-ps3-elf/lib/libc.a(lib_a-exit.o) (__call_exitprocs)
/usr/local/ps3dev/ppu/lib/gcc/powerpc64-ps3-elf/7.2.0/../../../../powerpc64-ps3-elf/lib/libc.a(lib_a-ctype_.o)
                              /usr/local/ps3dev/ppu/lib/gcc/powerpc64-ps3-elf/7.2.0/../../../../powerpc64-ps3-elf/lib/libc.a(lib_a-strcasecmp.o) (__ctype_ptr__)
/usr/local/ps3dev/ppu/lib/gcc/powerpc64-ps3-elf/7.2.0/../../../../powerpc64-ps3-elf/lib/libc.a(lib_a-freer.o)
                              /usr/local/ps3dev/ppu/lib/gcc/powerpc64-ps3-elf/7.2.0/../../../../powerpc64-ps3-elf/lib/libc.a(lib_a-malignr.o) (_free_r)
/usr/local/ps3dev/ppu/lib/gcc/powerpc64-ps3-elf/7.2.0/../../../../powerpc64-ps3-elf/lib/libc.a(lib_a-fvwrite.o)
                              /usr/local/ps3dev/ppu/lib/gcc/powerpc64-ps3-elf/7.2.0/../../../../powerpc64-ps3-elf/lib/libc.a(lib_a-puts.o) (__sfvwrite_r)
/usr/local/ps3dev/ppu/lib/gcc/powerpc64-ps3-elf/7.2.0/../../../../powerpc64-ps3-elf/lib/libc.a(lib_a-iswspace.o)
                              /usr/local/ps3dev/ppu/lib/gcc/powerpc64-ps3-elf/7.2.0/../../../../powerpc64-ps3-elf/lib/libc.a(lib_a-svfscanf.o) (iswspace)
/usr/local/ps3dev/ppu/lib/gcc/powerpc64-ps3-elf/7.2.0/../../../../powerpc64-ps3-elf/lib/libc.a(lib_a-locale.o)
                              /usr/local/ps3dev/ppu/lib/gcc/powerpc64-ps3-elf/7.2.0/../../../../powerpc64-ps3-elf/lib/libc.a(lib_a-svfscanf.o) (__locale_mb_cur_max)
/usr/local/ps3dev/ppu/lib/gcc/powerpc64-ps3-elf/7.2.0/../../../../powerpc64-ps3-elf/lib/libc.a(lib_a-lock_recursive.o)
                              /usr/local/ps3dev/ppu/lib/gcc/powerpc64-ps3-elf/7.2.0/../../../../powerpc64-ps3-elf/lib/libc.a(lib_a-mlock.o) (__libc_lock_acquire_recursive)
/usr/local/ps3dev/ppu/lib/gcc/powerpc64-ps3-elf/7.2.0/../../../../powerpc64-ps3-elf/lib/libc.a(lib_a-mbrtowc.o)
                              /usr/local/ps3dev/ppu/lib/gcc/powerpc64-ps3-elf/7.2.0/../../../../powerpc64-ps3-elf/lib/libc.a(lib_a-svfscanf.o) (_mbrtowc_r)
/usr/local/ps3dev/ppu/lib/gcc/powerpc64-ps3-elf/7.2.0/../../../../powerpc64-ps3-elf/lib/libc.a(lib_a-mbtowc_r.o)
                              /usr/local/ps3dev/ppu/lib/gcc/powerpc64-ps3-elf/7.2.0/../../../../powerpc64-ps3-elf/lib/libc.a(lib_a-mbrtowc.o) (__mbtowc)
/usr/local/ps3dev/ppu/lib/gcc/powerpc64-ps3-elf/7.2.0/../../../../powerpc64-ps3-elf/lib/libc.a(lib_a-memchr.o)
                              /usr/local/ps3dev/ppu/lib/gcc/powerpc64-ps3-elf/7.2.0/../../../../powerpc64-ps3-elf/lib/libc.a(lib_a-fvwrite.o) (memchr)
/usr/local/ps3dev/ppu/lib/gcc/powerpc64-ps3-elf/7.2.0/../../../../powerpc64-ps3-elf/lib/libc.a(lib_a-memmove.o)
                              /usr/local/ps3dev/ppu/lib/gcc/powerpc64-ps3-elf/7.2.0/../../../../powerpc64-ps3-elf/lib/libc.a(lib_a-fvwrite.o) (memmove)
/usr/local/ps3dev/ppu/lib/gcc/powerpc64-ps3-elf/7.2.0/../../../../powerpc64-ps3-elf/lib/libc.a(lib_a-reallocr.o)
                              /usr/local/ps3dev/ppu/lib/gcc/powerpc64-ps3-elf/7.2.0/../../../../powerpc64-ps3-elf/lib/libc.a(lib_a-fvwrite.o) (_realloc_r)
/usr/local/ps3dev/ppu/lib/gcc/powerpc64-ps3-elf/7.2.0/../../../../powerpc64-ps3-elf/lib/libc.a(lib_a-sccl.o)
                              /usr/local/ps3dev/ppu/lib/gcc/powerpc64-ps3-elf/7.2.0/../../../../powerpc64-ps3-elf/lib/libc.a(lib_a-svfscanf.o) (__sccl)
/usr/local/ps3dev/ppu/lib/gcc/powerpc64-ps3-elf/7.2.0/../../../../powerpc64-ps3-elf/lib/libc.a(lib_a-sf_nan.o)
                              /usr/local/ps3dev/ppu/lib/gcc/powerpc64-ps3-elf/7.2.0/../../../../powerpc64-ps3-elf/lib/libc.a(lib_a-svfscanf.o) (nanf)
/usr/local/ps3dev/ppu/lib/gcc/powerpc64-ps3-elf/7.2.0/../../../../powerpc64-ps3-elf/lib/libc.a(lib_a-sprintf.o)
                              /usr/local/ps3dev/ppu/lib/gcc/powerpc64-ps3-elf/7.2.0/../../../../powerpc64-ps3-elf/lib/libc.a(lib_a-svfscanf.o) (sprintf)
/usr/local/ps3dev/ppu/lib/gcc/powerpc64-ps3-elf/7.2.0/../../../../powerpc64-ps3-elf/lib/libc.a(lib_a-strcmp.o)
                              /usr/local/ps3dev/ppu/lib/gcc/powerpc64-ps3-elf/7.2.0/../../../../powerpc64-ps3-elf/lib/libc.a(lib_a-locale.o) (strcmp)
/usr/local/ps3dev/ppu/lib/gcc/powerpc64-ps3-elf/7.2.0/../../../../powerpc64-ps3-elf/lib/libc.a(lib_a-strtod.o)
                              /usr/local/ps3dev/ppu/lib/gcc/powerpc64-ps3-elf/7.2.0/../../../../powerpc64-ps3-elf/lib/libc.a(lib_a-svfscanf.o) (_strtod_r)
/usr/local/ps3dev/ppu/lib/gcc/powerpc64-ps3-elf/7.2.0/../../../../powerpc64-ps3-elf/lib/libc.a(lib_a-strtol.o)
                              /usr/local/ps3dev/ppu/lib/gcc/powerpc64-ps3-elf/7.2.0/../../../../powerpc64-ps3-elf/lib/libc.a(lib_a-svfscanf.o) (_strtol_r)
/usr/local/ps3dev/ppu/lib/gcc/powerpc64-ps3-elf/7.2.0/../../../../powerpc64-ps3-elf/lib/libc.a(lib_a-strtoll_r.o)
                              /usr/local/ps3dev/ppu/lib/gcc/powerpc64-ps3-elf/7.2.0/../../../../powerpc64-ps3-elf/lib/libc.a(lib_a-svfscanf.o) (_strtoll_r)
/usr/local/ps3dev/ppu/lib/gcc/powerpc64-ps3-elf/7.2.0/../../../../powerpc64-ps3-elf/lib/libc.a(lib_a-strtoul.o)
                              /usr/local/ps3dev/ppu/lib/gcc/powerpc64-ps3-elf/7.2.0/../../../../powerpc64-ps3-elf/lib/libc.a(lib_a-svfscanf.o) (_strtoul_r)
/usr/local/ps3dev/ppu/lib/gcc/powerpc64-ps3-elf/7.2.0/../../../../powerpc64-ps3-elf/lib/libc.a(lib_a-strtoull_r.o)
                              /usr/local/ps3dev/ppu/lib/gcc/powerpc64-ps3-elf/7.2.0/../../../../powerpc64-ps3-elf/lib/libc.a(lib_a-svfscanf.o) (_strtoull_r)
/usr/local/ps3dev/ppu/lib/gcc/powerpc64-ps3-elf/7.2.0/../../../../powerpc64-ps3-elf/lib/libc.a(lib_a-svfiscanf.o)
                              /usr/local/ps3dev/ppu/lib/gcc/powerpc64-ps3-elf/7.2.0/../../../../powerpc64-ps3-elf/lib/libc.a(lib_a-svfscanf.o) (_sungetc_r)
/usr/local/ps3dev/ppu/lib/gcc/powerpc64-ps3-elf/7.2.0/../../../../powerpc64-ps3-elf/lib/libc.a(lib_a-svfprintf.o)
                              /usr/local/ps3dev/ppu/lib/gcc/powerpc64-ps3-elf/7.2.0/../../../../powerpc64-ps3-elf/lib/libc.a(lib_a-vsnprintf.o) (_svfprintf_r)
/usr/local/ps3dev/ppu/lib/gcc/powerpc64-ps3-elf/7.2.0/../../../../powerpc64-ps3-elf/lib/libc.a(lib_a-ungetc.o)
                              /usr/local/ps3dev/ppu/lib/gcc/powerpc64-ps3-elf/7.2.0/../../../../powerpc64-ps3-elf/lib/libc.a(lib_a-svfiscanf.o) (__submore)
/usr/local/ps3dev/ppu/lib/gcc/powerpc64-ps3-elf/7.2.0/../../../../powerpc64-ps3-elf/lib/libc.a(lib_a-wsetup.o)
                              /usr/local/ps3dev/ppu/lib/gcc/powerpc64-ps3-elf/7.2.0/../../../../powerpc64-ps3-elf/lib/libc.a(lib_a-fvwrite.o) (__swsetup_r)
/usr/local/ps3dev/ppu/lib/gcc/powerpc64-ps3-elf/7.2.0/../../../../powerpc64-ps3-elf/lib/libc.a(lib_a-dtoa.o)
                              /usr/local/ps3dev/ppu/lib/gcc/powerpc64-ps3-elf/7.2.0/../../../../powerpc64-ps3-elf/lib/libc.a(lib_a-svfprintf.o) (_dtoa_r)
/usr/local/ps3dev/ppu/lib/gcc/powerpc64-ps3-elf/7.2.0/../../../../powerpc64-ps3-elf/lib/libc.a(lib_a-fflush.o)
                              /usr/local/ps3dev/ppu/lib/gcc/powerpc64-ps3-elf/7.2.0/../../../../powerpc64-ps3-elf/lib/libc.a(lib_a-fvwrite.o) (_fflush_r)
/usr/local/ps3dev/ppu/lib/gcc/powerpc64-ps3-elf/7.2.0/../../../../powerpc64-ps3-elf/lib/libc.a(lib_a-findfp.o)
                              /usr/local/ps3dev/ppu/lib/gcc/powerpc64-ps3-elf/7.2.0/../../../../powerpc64-ps3-elf/lib/libc.a(lib_a-ungetc.o) (__sinit)
/usr/local/ps3dev/ppu/lib/gcc/powerpc64-ps3-elf/7.2.0/../../../../powerpc64-ps3-elf/lib/libc.a(lib_a-fwalk.o)
                              /usr/local/ps3dev/ppu/lib/gcc/powerpc64-ps3-elf/7.2.0/../../../../powerpc64-ps3-elf/lib/libc.a(lib_a-findfp.o) (_fwalk)
/usr/local/ps3dev/ppu/lib/gcc/powerpc64-ps3-elf/7.2.0/../../../../powerpc64-ps3-elf/lib/libc.a(lib_a-gdtoa-gethex.o)
                              /usr/local/ps3dev/ppu/lib/gcc/powerpc64-ps3-elf/7.2.0/../../../../powerpc64-ps3-elf/lib/libc.a(lib_a-strtod.o) (__gethex)
/usr/local/ps3dev/ppu/lib/gcc/powerpc64-ps3-elf/7.2.0/../../../../powerpc64-ps3-elf/lib/libc.a(lib_a-gdtoa-hexnan.o)
                              /usr/local/ps3dev/ppu/lib/gcc/powerpc64-ps3-elf/7.2.0/../../../../powerpc64-ps3-elf/lib/libc.a(lib_a-strtod.o) (__hexnan)
/usr/local/ps3dev/ppu/lib/gcc/powerpc64-ps3-elf/7.2.0/../../../../powerpc64-ps3-elf/lib/libc.a(lib_a-lock_internal.o)
                              /usr/local/ps3dev/ppu/lib/gcc/powerpc64-ps3-elf/7.2.0/../../../../powerpc64-ps3-elf/lib/libc.a(lib_a-lock_recursive.o) (__libc_auto_lock_allocate)
/usr/local/ps3dev/ppu/lib/gcc/powerpc64-ps3-elf/7.2.0/../../../../powerpc64-ps3-elf/lib/libc.a(lib_a-makebuf.o)
                              /usr/local/ps3dev/ppu/lib/gcc/powerpc64-ps3-elf/7.2.0/../../../../powerpc64-ps3-elf/lib/libc.a(lib_a-wsetup.o) (__smakebuf_r)
/usr/local/ps3dev/ppu/lib/gcc/powerpc64-ps3-elf/7.2.0/../../../../powerpc64-ps3-elf/lib/libc.a(lib_a-mprec.o)
                              /usr/local/ps3dev/ppu/lib/gcc/powerpc64-ps3-elf/7.2.0/../../../../powerpc64-ps3-elf/lib/libc.a(lib_a-strtod.o) (_Balloc)
/usr/local/ps3dev/ppu/lib/gcc/powerpc64-ps3-elf/7.2.0/../../../../powerpc64-ps3-elf/lib/libc.a(lib_a-strncmp.o)
                              /usr/local/ps3dev/ppu/lib/gcc/powerpc64-ps3-elf/7.2.0/../../../../powerpc64-ps3-elf/lib/libc.a(lib_a-strtod.o) (strncmp)
/usr/local/ps3dev/ppu/lib/gcc/powerpc64-ps3-elf/7.2.0/../../../../powerpc64-ps3-elf/lib/libc.a(lib_a-svfiprintf.o)
                              /usr/local/ps3dev/ppu/lib/gcc/powerpc64-ps3-elf/7.2.0/../../../../powerpc64-ps3-elf/lib/libc.a(lib_a-svfprintf.o) (__ssprint_r)
/usr/local/ps3dev/ppu/lib/gcc/powerpc64-ps3-elf/7.2.0/../../../../powerpc64-ps3-elf/lib/libc.a(lib_a-abort.o)
                              /usr/local/ps3dev/ppu/lib/gcc/powerpc64-ps3-elf/7.2.0/../../../../powerpc64-ps3-elf/lib/libc.a(lib_a-lock_internal.o) (abort)
/usr/local/ps3dev/ppu/lib/gcc/powerpc64-ps3-elf/7.2.0/../../../../powerpc64-ps3-elf/lib/libc.a(lib_a-fclose.o)
                              /usr/local/ps3dev/ppu/lib/gcc/powerpc64-ps3-elf/7.2.0/../../../../powerpc64-ps3-elf/lib/libc.a(lib_a-findfp.o) (fclose)
/usr/local/ps3dev/ppu/lib/gcc/powerpc64-ps3-elf/7.2.0/../../../../powerpc64-ps3-elf/lib/libc.a(lib_a-signal.o)
                              /usr/local/ps3dev/ppu/lib/gcc/powerpc64-ps3-elf/7.2.0/../../../../powerpc64-ps3-elf/lib/libc.a(lib_a-abort.o) (raise)
/usr/local/ps3dev/ppu/lib/gcc/powerpc64-ps3-elf/7.2.0/../../../../powerpc64-ps3-elf/lib/libsysbase.a(close.o)
                              /usr/local/ps3dev/ppu/lib/gcc/powerpc64-ps3-elf/7.2.0/../../../../powerpc64-ps3-elf/lib/libc.a(lib_a-stdio.o) (_close_r)
/usr/local/ps3dev/ppu/lib/gcc/powerpc64-ps3-elf/7.2.0/../../../../powerpc64-ps3-elf/lib/libsysbase.a(sbrk.o)
                              /usr/local/ps3dev/ppu/lib/gcc/powerpc64-ps3-elf/7.2.0/../../../../powerpc64-ps3-elf/lib/libc.a(lib_a-mallocr.o) (_sbrk_r)
/usr/local/ps3dev/ppu/lib/gcc/powerpc64-ps3-elf/7.2.0/../../../../powerpc64-ps3-elf/lib/libsysbase.a(_exit.o)
                              /usr/local/ps3dev/ppu/lib/gcc/powerpc64-ps3-elf/7.2.0/../../../../powerpc64-ps3-elf/lib/libc.a(lib_a-exit.o) (_exit)
/usr/local/ps3dev/ppu/lib/gcc/powerpc64-ps3-elf/7.2.0/../../../../powerpc64-ps3-elf/lib/libsysbase.a(fstat.o)
                              /usr/local/ps3dev/ppu/lib/gcc/powerpc64-ps3-elf/7.2.0/../../../../powerpc64-ps3-elf/lib/libc.a(lib_a-makebuf.o) (_fstat_r)
/usr/local/ps3dev/ppu/lib/gcc/powerpc64-ps3-elf/7.2.0/../../../../powerpc64-ps3-elf/lib/libsysbase.a(isatty.o)
                              /usr/local/ps3dev/ppu/lib/gcc/powerpc64-ps3-elf/7.2.0/../../../../powerpc64-ps3-elf/lib/libc.a(lib_a-makebuf.o) (_isatty_r)
/usr/local/ps3dev/ppu/lib/gcc/powerpc64-ps3-elf/7.2.0/../../../../powerpc64-ps3-elf/lib/libsysbase.a(lseek.o)
                              /usr/local/ps3dev/ppu/lib/gcc/powerpc64-ps3-elf/7.2.0/../../../../powerpc64-ps3-elf/lib/libc.a(lib_a-stdio.o) (_lseek_r)
/usr/local/ps3dev/ppu/lib/gcc/powerpc64-ps3-elf/7.2.0/../../../../powerpc64-ps3-elf/lib/libsysbase.a(read.o)
                              /usr/local/ps3dev/ppu/lib/gcc/powerpc64-ps3-elf/7.2.0/../../../../powerpc64-ps3-elf/lib/libc.a(lib_a-stdio.o) (_read_r)
/usr/local/ps3dev/ppu/lib/gcc/powerpc64-ps3-elf/7.2.0/../../../../powerpc64-ps3-elf/lib/libsysbase.a(write.o)
                              /usr/local/ps3dev/ppu/lib/gcc/powerpc64-ps3-elf/7.2.0/../../../../powerpc64-ps3-elf/lib/libc.a(lib_a-stdio.o) (_write_r)
/usr/local/ps3dev/ppu/lib/gcc/powerpc64-ps3-elf/7.2.0/../../../../powerpc64-ps3-elf/lib/libsysbase.a(lock.o)
                              /usr/local/ps3dev/ppu/lib/gcc/powerpc64-ps3-elf/7.2.0/../../../../powerpc64-ps3-elf/lib/libc.a(lib_a-lock_recursive.o) (sys_lwmutex_create)
/usr/local/ps3dev/ppu/lib/gcc/powerpc64-ps3-elf/7.2.0/../../../../powerpc64-ps3-elf/lib/libsysbase.a(getpid.o)
                              /usr/local/ps3dev/ppu/lib/gcc/powerpc64-ps3-elf/7.2.0/../../../../powerpc64-ps3-elf/lib/libc.a(lib_a-signal.o) (_getpid_r)
/usr/local/ps3dev/ppu/lib/gcc/powerpc64-ps3-elf/7.2.0/../../../../powerpc64-ps3-elf/lib/libsysbase.a(kill.o)
                              /usr/local/ps3dev/ppu/lib/gcc/powerpc64-ps3-elf/7.2.0/../../../../powerpc64-ps3-elf/lib/libc.a(lib_a-signal.o) (_kill_r)

Allocating common symbols
Common symbol       size              file

Video_buffer        0x10              /home/scristaldi/tiny3d_Estwald_work/fonts/libtiny3d_.a(rsxutil.o)
Video_aspect        0x1               /home/scristaldi/tiny3d_Estwald_work/fonts/libtiny3d_.a(rsxutil.o)
Video_pitch         0x4               /home/scristaldi/tiny3d_Estwald_work/fonts/libtiny3d_.a(rsxutil.o)
__hexdig            0x100             /usr/local/ps3dev/ppu/lib/gcc/powerpc64-ps3-elf/7.2.0/../../../../powerpc64-ps3-elf/lib/libc.a(lib_a-gdtoa-gethex.o)
context             0x8               /home/scristaldi/tiny3d_Estwald_work/fonts/libtiny3d_.a(rsxutil.o)
heap_pointer        0x8               /home/scristaldi/tiny3d_Estwald_work/fonts/libtiny3d_.a(mm.o)
Video_Resolution    0x4               /home/scristaldi/tiny3d_Estwald_work/fonts/libtiny3d_.a(rsxutil.o)
config              0x18              /home/scristaldi/tiny3d_Estwald_work/fonts/libtiny3d_.a(mm.o)

Memory Configuration

Name             Origin             Length             Attributes
*default*        0x0000000000000000 0xffffffffffffffff

Linker script and memory map

                0x0000000000010000                PROVIDE (__executable_start, 0x10000)
                0x0000000000010200                . = (0x10000 + SIZEOF_HEADERS)

.interp
 *(.interp)

.hash
 *(.hash)

.dynsym
 *(.dynsym)

.dynstr
 *(.dynstr)

.gnu.version
 *(.gnu.version)

.gnu.version_d
 *(.gnu.version_d)

.gnu.version_r
 *(.gnu.version_r)

.rel.dyn
 *(.rel.init)
 *(.rel.text .rel.text.* .rel.gnu.linkonce.t.*)
 *(.rel.fini)
 *(.rel.rodata .rel.rodata.* .rel.gnu.linkonce.r.*)
 *(.rel.data.rel.ro*)
 *(.rel.data .rel.data.* .rel.gnu.linkonce.d.*)
 *(.rel.tdata .rel.tdata.* .rel.gnu.linkonce.td.*)
 *(.rel.tbss .rel.tbss.* .rel.gnu.linkonce.tb.*)
 *(.rel.ctors)
 *(.rel.dtors)
 *(.rel.got)
 *(.rel.sdata .rel.sdata.* .rel.gnu.linkonce.s.*)
 *(.rel.sbss .rel.sbss.* .rel.gnu.linkonce.sb.*)
 *(.rel.sdata2 .rel.sdata2.* .rel.gnu.linkonce.s2.*)
 *(.rel.sbss2 .rel.sbss2.* .rel.gnu.linkonce.sb2.*)
 *(.rel.bss .rel.bss.* .rel.gnu.linkonce.b.*)

.rela.dyn       0x0000000000010200        0x0
 *(.rela.init)
 *(.rela.text .rela.text.* .rela.gnu.linkonce.t.*)
 *(.rela.fini)
 *(.rela.rodata .rela.rodata.* .rela.gnu.linkonce.r.*)
 *(.rela.data .rela.data.* .rela.gnu.linkonce.d.*)
 *(.rela.tdata .rela.tdata.* .rela.gnu.linkonce.td.*)
 *(.rela.tbss .rela.tbss.* .rela.gnu.linkonce.tb.*)
 *(.rela.ctors)
 *(.rela.dtors)
 *(.rela.got)
 *(.rela.toc)
 .rela.toc      0x0000000000000000        0x0 linker stubs
 *(.rela.sdata .rela.sdata.* .rela.gnu.linkonce.s.*)
 *(.rela.sbss .rela.sbss.* .rela.gnu.linkonce.sb.*)
 *(.rela.sdata2 .rela.sdata2.* .rela.gnu.linkonce.s2.*)
 *(.rela.sbss2 .rela.sbss2.* .rela.gnu.linkonce.sb2.*)
 *(.rela.bss .rela.bss.* .rela.gnu.linkonce.b.*)
 .rela.iplt     0x0000000000000000        0x0 linker stubs
 .rela.sys_proc_prx_param
                0x0000000000000000        0x0 linker stubs
 .rela.opd      0x0000000000000000        0x0 linker stubs

.rel.plt
 *(.rel.plt)

.rela.plt
 *(.rela.plt)

.rela.tocbss
 *(.rela.tocbss)

.init           0x0000000000010200       0x2c
 *(.init)
 .init          0x0000000000010200        0xc /usr/local/ps3dev/ppu/lib/gcc/powerpc64-ps3-elf/7.2.0/../../../../powerpc64-ps3-elf/lib/lv2-crti.o
                0x0000000000010200                ._init
 .init          0x000000000001020c        0x8 /usr/local/ps3dev/ppu/lib/gcc/powerpc64-ps3-elf/7.2.0/crtbegin.o
 .init          0x0000000000010214        0x8 /usr/local/ps3dev/ppu/lib/gcc/powerpc64-ps3-elf/7.2.0/crtend.o
 .init          0x000000000001021c       0x10 /usr/local/ps3dev/ppu/lib/gcc/powerpc64-ps3-elf/7.2.0/../../../../powerpc64-ps3-elf/lib/lv2-crtn.o

.text           0x0000000000010230    0x23d84
 *(.text .stub .text.* .gnu.linkonce.t.*)
 .text          0x0000000000010230        0x0 /usr/local/ps3dev/ppu/lib/gcc/powerpc64-ps3-elf/7.2.0/../../../../powerpc64-ps3-elf/lib/lv2-crti.o
 .text          0x0000000000010230        0x0 /usr/local/ps3dev/ppu/lib/gcc/powerpc64-ps3-elf/7.2.0/crtbegin.o
 .text.deregister_tm_clones
                0x0000000000010230       0x54 /usr/local/ps3dev/ppu/lib/gcc/powerpc64-ps3-elf/7.2.0/crtbegin.o
 *fill*         0x0000000000010284        0x4 60000000
 .text.register_tm_clones
                0x0000000000010288       0x60 /usr/local/ps3dev/ppu/lib/gcc/powerpc64-ps3-elf/7.2.0/crtbegin.o
 .text.__do_global_dtors_aux
                0x00000000000102e8       0xd4 /usr/local/ps3dev/ppu/lib/gcc/powerpc64-ps3-elf/7.2.0/crtbegin.o
 *fill*         0x00000000000103bc        0x4 60000000
 .text.frame_dummy
                0x00000000000103c0       0x38 /usr/local/ps3dev/ppu/lib/gcc/powerpc64-ps3-elf/7.2.0/crtbegin.o
 .text          0x00000000000103f8       0x58 /usr/local/ps3dev/ppu/lib/gcc/powerpc64-ps3-elf/7.2.0/../../../../powerpc64-ps3-elf/lib/lv2-crt0.o
                0x00000000000103f8                ._start
 .text.startup.__syscalls_init
                0x0000000000010450      0x134 /usr/local/ps3dev/ppu/lib/gcc/powerpc64-ps3-elf/7.2.0/../../../../powerpc64-ps3-elf/lib/lv2-crt0.o
 *fill*         0x0000000000010584        0x4 60000000
 .text._initialize
                0x0000000000010588       0x40 /usr/local/ps3dev/ppu/lib/gcc/powerpc64-ps3-elf/7.2.0/../../../../powerpc64-ps3-elf/lib/lv2-crt0.o
                0x0000000000010588                ._initialize
 .text          0x00000000000105c8        0x0 /usr/local/ps3dev/ppu/lib/gcc/powerpc64-ps3-elf/7.2.0/../../../../powerpc64-ps3-elf/lib/lv2-sprx.o
 .text          0x00000000000105c8        0x0 msxfont.o
 .text          0x00000000000105c8        0x0 main.o
 .text.DrawBackground2D
                0x00000000000105c8       0xdc main.o
                0x00000000000105c8                .DrawBackground2D
 *fill*         0x00000000000106a4        0x4 60000000
 .text.drawScene
                0x00000000000106a8      0x2b8 main.o
                0x00000000000106a8                .drawScene
 .text.LoadTexture
                0x0000000000010960       0xc8 main.o
                0x0000000000010960                .LoadTexture
 .text.startup.main
                0x0000000000010a28      0x130 main.o
                0x0000000000010a28                .main
 .text          0x0000000000010b58        0x0 font_b.o
 .text          0x0000000000010b58        0x0 font.o
 .text          0x0000000000010b58        0x0 /usr/local/ps3dev/portlibs/ppu/lib/libfont.a(libfont.o)
 .text.i_must_break_line
                0x0000000000010b58      0x134 /usr/local/ps3dev/portlibs/ppu/lib/libfont.a(libfont.o)
 *fill*         0x0000000000010c8c        0x4 60000000
 .text.ResetFont
                0x0000000000010c90       0x68 /usr/local/ps3dev/portlibs/ppu/lib/libfont.a(libfont.o)
                0x0000000000010c90                .ResetFont
 .text.AddFontFromBitmapArray
                0x0000000000010cf8      0x418 /usr/local/ps3dev/portlibs/ppu/lib/libfont.a(libfont.o)
                0x0000000000010cf8                .AddFontFromBitmapArray
 .text.AddFontFromTTF
                0x0000000000011110      0x424 /usr/local/ps3dev/portlibs/ppu/lib/libfont.a(libfont.o)
                0x0000000000011110                .AddFontFromTTF
 *fill*         0x0000000000011534        0x4 60000000
 .text.SetCurrentFont
                0x0000000000011538       0x44 /usr/local/ps3dev/portlibs/ppu/lib/libfont.a(libfont.o)
                0x0000000000011538                .SetCurrentFont
 *fill*         0x000000000001157c        0x4 60000000
 .text.SetFontSize
                0x0000000000011580       0x3c /usr/local/ps3dev/portlibs/ppu/lib/libfont.a(libfont.o)
                0x0000000000011580                .SetFontSize
 *fill*         0x00000000000115bc        0x4 60000000
 .text.SetFontColor
                0x00000000000115c0       0x1c /usr/local/ps3dev/portlibs/ppu/lib/libfont.a(libfont.o)
                0x00000000000115c0                .SetFontColor
 *fill*         0x00000000000115dc        0x4 60000000
 .text.SetFontTextureMethod
                0x00000000000115e0       0x18 /usr/local/ps3dev/portlibs/ppu/lib/libfont.a(libfont.o)
                0x00000000000115e0                .SetFontTextureMethod
 .text.SetDoubleTextureModule
                0x00000000000115f8       0x1c /usr/local/ps3dev/portlibs/ppu/lib/libfont.a(libfont.o)
                0x00000000000115f8                .SetDoubleTextureModule
 *fill*         0x0000000000011614        0x4 60000000
 .text.SetFontAutoCenter
                0x0000000000011618       0x20 /usr/local/ps3dev/portlibs/ppu/lib/libfont.a(libfont.o)
                0x0000000000011618                .SetFontAutoCenter
 .text.SetFontAutoNewLine
                0x0000000000011638       0x20 /usr/local/ps3dev/portlibs/ppu/lib/libfont.a(libfont.o)
                0x0000000000011638                .SetFontAutoNewLine
 .text.SetFontZ
                0x0000000000011658       0x18 /usr/local/ps3dev/portlibs/ppu/lib/libfont.a(libfont.o)
                0x0000000000011658                .SetFontZ
 .text.GetFontX
                0x0000000000011670       0x18 /usr/local/ps3dev/portlibs/ppu/lib/libfont.a(libfont.o)
                0x0000000000011670                .GetFontX
 .text.GetFontY
                0x0000000000011688       0x18 /usr/local/ps3dev/portlibs/ppu/lib/libfont.a(libfont.o)
                0x0000000000011688                .GetFontY
 .text.SetFontScreenLimits
                0x00000000000116a0       0x1c /usr/local/ps3dev/portlibs/ppu/lib/libfont.a(libfont.o)
                0x00000000000116a0                .SetFontScreenLimits
 *fill*         0x00000000000116bc        0x4 60000000
 .text.DrawChar
                0x00000000000116c0      0xa74 /usr/local/ps3dev/portlibs/ppu/lib/libfont.a(libfont.o)
                0x00000000000116c0                .DrawChar
 *fill*         0x0000000000012134        0x4 60000000
 .text.DrawString
                0x0000000000012138      0x2f8 /usr/local/ps3dev/portlibs/ppu/lib/libfont.a(libfont.o)
                0x0000000000012138                .DrawString
 .text.DrawFormatString
                0x0000000000012430      0x320 /usr/local/ps3dev/portlibs/ppu/lib/libfont.a(libfont.o)
                0x0000000000012430                .DrawFormatString
 .text          0x0000000000012750        0x0 /home/scristaldi/tiny3d_Estwald_work/fonts/libtiny3d_.a(tiny3d.o)
 .text.put_vertex
                0x0000000000012750      0x1c8 /home/scristaldi/tiny3d_Estwald_work/fonts/libtiny3d_.a(tiny3d.o)
 .text.push_list_cmd
                0x0000000000012918      0x16c /home/scristaldi/tiny3d_Estwald_work/fonts/libtiny3d_.a(tiny3d.o)
 *fill*         0x0000000000012a84        0x4 60000000
 .text.tiny3d_Exit
                0x0000000000012a88      0x180 /home/scristaldi/tiny3d_Estwald_work/fonts/libtiny3d_.a(tiny3d.o)
                0x0000000000012a88                .tiny3d_Exit
 .text.tiny3d_callback
                0x0000000000012c08      0x180 /home/scristaldi/tiny3d_Estwald_work/fonts/libtiny3d_.a(tiny3d.o)
 .text.Update_With_Normal
                0x0000000000012d88      0x29c /home/scristaldi/tiny3d_Estwald_work/fonts/libtiny3d_.a(tiny3d.o)
 *fill*         0x0000000000013024        0x4 60000000
 .text.set_shader_context.part.8
                0x0000000000013028      0x318 /home/scristaldi/tiny3d_Estwald_work/fonts/libtiny3d_.a(tiny3d.o)
 .text.push_normal_list
                0x0000000000013340      0x198 /home/scristaldi/tiny3d_Estwald_work/fonts/libtiny3d_.a(tiny3d.o)
 .text.push_position_list
                0x00000000000134d8      0x1b0 /home/scristaldi/tiny3d_Estwald_work/fonts/libtiny3d_.a(tiny3d.o)
 .text.debugPrintf
                0x0000000000013688       0x88 /home/scristaldi/tiny3d_Estwald_work/fonts/libtiny3d_.a(tiny3d.o)
                0x0000000000013688                .debugPrintf
 .text.debugInit
                0x0000000000013710       0xa4 /home/scristaldi/tiny3d_Estwald_work/fonts/libtiny3d_.a(tiny3d.o)
                0x0000000000013710                .debugInit
 *fill*         0x00000000000137b4        0x4 60000000
 .text.tiny3d_alarm
                0x00000000000137b8       0x10 /home/scristaldi/tiny3d_Estwald_work/fonts/libtiny3d_.a(tiny3d.o)
                0x00000000000137b8                .tiny3d_alarm
 .text.tiny3d_RecordList
                0x00000000000137c8       0xac /home/scristaldi/tiny3d_Estwald_work/fonts/libtiny3d_.a(tiny3d.o)
                0x00000000000137c8                .tiny3d_RecordList
 *fill*         0x0000000000013874        0x4 60000000
 .text.tiny3d_StopList
                0x0000000000013878      0x14c /home/scristaldi/tiny3d_Estwald_work/fonts/libtiny3d_.a(tiny3d.o)
                0x0000000000013878                .tiny3d_StopList
 *fill*         0x00000000000139c4        0x4 60000000
 .text.tiny3d_FreeList
                0x00000000000139c8       0xb4 /home/scristaldi/tiny3d_Estwald_work/fonts/libtiny3d_.a(tiny3d.o)
                0x00000000000139c8                .tiny3d_FreeList
 *fill*         0x0000000000013a7c        0x4 60000000
 .text.tiny3d_DynamicMatrixList
                0x0000000000013a80      0x104 /home/scristaldi/tiny3d_Estwald_work/fonts/libtiny3d_.a(tiny3d.o)
                0x0000000000013a80                .tiny3d_DynamicMatrixList
 *fill*         0x0000000000013b84        0x4 60000000
 .text.tiny3d_ApplyMatrixList
                0x0000000000013b88       0xc8 /home/scristaldi/tiny3d_Estwald_work/fonts/libtiny3d_.a(tiny3d.o)
                0x0000000000013b88                .tiny3d_ApplyMatrixList
 .text.tiny3d_Init
                0x0000000000013c50      0x544 /home/scristaldi/tiny3d_Estwald_work/fonts/libtiny3d_.a(tiny3d.o)
                0x0000000000013c50                .tiny3d_Init
 *fill*         0x0000000000014194        0x4 60000000
 .text.tiny3d_SetPolygon
                0x0000000000014198      0x230 /home/scristaldi/tiny3d_Estwald_work/fonts/libtiny3d_.a(tiny3d.o)
                0x0000000000014198                .tiny3d_SetPolygon
 .text.tiny3d_VertexPos
                0x00000000000143c8       0xc8 /home/scristaldi/tiny3d_Estwald_work/fonts/libtiny3d_.a(tiny3d.o)
                0x00000000000143c8                .tiny3d_VertexPos
 .text.tiny3d_VertexPos4
                0x0000000000014490       0xc8 /home/scristaldi/tiny3d_Estwald_work/fonts/libtiny3d_.a(tiny3d.o)
                0x0000000000014490                .tiny3d_VertexPos4
 .text.tiny3d_VertexPosVector
                0x0000000000014558       0xd8 /home/scristaldi/tiny3d_Estwald_work/fonts/libtiny3d_.a(tiny3d.o)
                0x0000000000014558                .tiny3d_VertexPosVector
 .text.tiny3d_VertexColor
                0x0000000000014630       0xcc /home/scristaldi/tiny3d_Estwald_work/fonts/libtiny3d_.a(tiny3d.o)
                0x0000000000014630                .tiny3d_VertexColor
 *fill*         0x00000000000146fc        0x4 60000000
 .text.tiny3d_VertexFcolor
                0x0000000000014700      0x114 /home/scristaldi/tiny3d_Estwald_work/fonts/libtiny3d_.a(tiny3d.o)
                0x0000000000014700                .tiny3d_VertexFcolor
 *fill*         0x0000000000014814        0x4 60000000
 .text.tiny3d_VertexTexture
                0x0000000000014818       0xe4 /home/scristaldi/tiny3d_Estwald_work/fonts/libtiny3d_.a(tiny3d.o)
                0x0000000000014818                .tiny3d_VertexTexture
 *fill*         0x00000000000148fc        0x4 60000000
 .text.tiny3d_VertexTexture2
                0x0000000000014900       0xe4 /home/scristaldi/tiny3d_Estwald_work/fonts/libtiny3d_.a(tiny3d.o)
                0x0000000000014900                .tiny3d_VertexTexture2
 *fill*         0x00000000000149e4        0x4 60000000
 .text.tiny3d_Normal
                0x00000000000149e8       0x48 /home/scristaldi/tiny3d_Estwald_work/fonts/libtiny3d_.a(tiny3d.o)
                0x00000000000149e8                .tiny3d_Normal
 .text.tiny3d_NormalVector
                0x0000000000014a30       0x58 /home/scristaldi/tiny3d_Estwald_work/fonts/libtiny3d_.a(tiny3d.o)
                0x0000000000014a30                .tiny3d_NormalVector
 .text.tiny3d_End
                0x0000000000014a88      0x5e8 /home/scristaldi/tiny3d_Estwald_work/fonts/libtiny3d_.a(tiny3d.o)
                0x0000000000014a88                .tiny3d_End
 .text.tiny3d_SetMatrixModelView
                0x0000000000015070      0x1dc /home/scristaldi/tiny3d_Estwald_work/fonts/libtiny3d_.a(tiny3d.o)
                0x0000000000015070                .tiny3d_SetMatrixModelView
 *fill*         0x000000000001524c        0x4 60000000
 .text.tiny3d_SetProjectionMatrix
                0x0000000000015250       0xd8 /home/scristaldi/tiny3d_Estwald_work/fonts/libtiny3d_.a(tiny3d.o)
                0x0000000000015250                .tiny3d_SetProjectionMatrix
 .text.tiny3d_Flip
                0x0000000000015328      0x110 /home/scristaldi/tiny3d_Estwald_work/fonts/libtiny3d_.a(tiny3d.o)
                0x0000000000015328                .tiny3d_Flip
 .text.tiny3d_UserViewport
                0x0000000000015438       0x60 /home/scristaldi/tiny3d_Estwald_work/fonts/libtiny3d_.a(tiny3d.o)
                0x0000000000015438                .tiny3d_UserViewport
 .text.tiny3d_UserViewport2
                0x0000000000015498       0x58 /home/scristaldi/tiny3d_Estwald_work/fonts/libtiny3d_.a(tiny3d.o)
                0x0000000000015498                .tiny3d_UserViewport2
 .text.tiny3d_UserViewportSurface
                0x00000000000154f0       0x28 /home/scristaldi/tiny3d_Estwald_work/fonts/libtiny3d_.a(tiny3d.o)
                0x00000000000154f0                .tiny3d_UserViewportSurface
 .text.tiny3d_Project2D
                0x0000000000015518      0x330 /home/scristaldi/tiny3d_Estwald_work/fonts/libtiny3d_.a(tiny3d.o)
                0x0000000000015518                .tiny3d_Project2D
 .text.tiny3d_Project3D
                0x0000000000015848      0x208 /home/scristaldi/tiny3d_Estwald_work/fonts/libtiny3d_.a(tiny3d.o)
                0x0000000000015848                .tiny3d_Project3D
 .text.tiny3d_Clear
                0x0000000000015a50      0x36c /home/scristaldi/tiny3d_Estwald_work/fonts/libtiny3d_.a(tiny3d.o)
                0x0000000000015a50                .tiny3d_Clear
 *fill*         0x0000000000015dbc        0x4 60000000
 .text.tiny3d_ClearSurface
                0x0000000000015dc0      0x204 /home/scristaldi/tiny3d_Estwald_work/fonts/libtiny3d_.a(tiny3d.o)
                0x0000000000015dc0                .tiny3d_ClearSurface
 *fill*         0x0000000000015fc4        0x4 60000000
 .text.tiny3d_AlphaTest
                0x0000000000015fc8       0x84 /home/scristaldi/tiny3d_Estwald_work/fonts/libtiny3d_.a(tiny3d.o)
                0x0000000000015fc8                .tiny3d_AlphaTest
 *fill*         0x000000000001604c        0x4 60000000
 .text.tiny3d_BlendFunc
                0x0000000000016050       0x80 /home/scristaldi/tiny3d_Estwald_work/fonts/libtiny3d_.a(tiny3d.o)
                0x0000000000016050                .tiny3d_BlendFunc
 .text.tiny3d_SetTextureWrap
                0x00000000000160d0      0x1d8 /home/scristaldi/tiny3d_Estwald_work/fonts/libtiny3d_.a(tiny3d.o)
                0x00000000000160d0                .tiny3d_SetTextureWrap
 .text.tiny3d_SetTexture
                0x00000000000162a8      0x120 /home/scristaldi/tiny3d_Estwald_work/fonts/libtiny3d_.a(tiny3d.o)
                0x00000000000162a8                .tiny3d_SetTexture
 .text.tiny3d_AllocTexture
                0x00000000000163c8       0x38 /home/scristaldi/tiny3d_Estwald_work/fonts/libtiny3d_.a(tiny3d.o)
                0x00000000000163c8                .tiny3d_AllocTexture
 .text.tiny3d_TextureOffset
                0x0000000000016400       0x40 /home/scristaldi/tiny3d_Estwald_work/fonts/libtiny3d_.a(tiny3d.o)
                0x0000000000016400                .tiny3d_TextureOffset
 .text.tiny3d_EmissiveMaterial
                0x0000000000016440      0x104 /home/scristaldi/tiny3d_Estwald_work/fonts/libtiny3d_.a(tiny3d.o)
                0x0000000000016440                .tiny3d_EmissiveMaterial
 *fill*         0x0000000000016544        0x4 60000000
 .text.tiny3d_AmbientMaterial
                0x0000000000016548      0x104 /home/scristaldi/tiny3d_Estwald_work/fonts/libtiny3d_.a(tiny3d.o)
                0x0000000000016548                .tiny3d_AmbientMaterial
 *fill*         0x000000000001664c        0x4 60000000
 .text.tiny3d_DiffuseMaterial
                0x0000000000016650      0x104 /home/scristaldi/tiny3d_Estwald_work/fonts/libtiny3d_.a(tiny3d.o)
                0x0000000000016650                .tiny3d_DiffuseMaterial
 *fill*         0x0000000000016754        0x4 60000000
 .text.tiny3d_SpecularMaterial
                0x0000000000016758      0x104 /home/scristaldi/tiny3d_Estwald_work/fonts/libtiny3d_.a(tiny3d.o)
                0x0000000000016758                .tiny3d_SpecularMaterial
 *fill*         0x000000000001685c        0x4 60000000
 .text.tiny3d_SetLightCameraPosition
                0x0000000000016860       0x3c /home/scristaldi/tiny3d_Estwald_work/fonts/libtiny3d_.a(tiny3d.o)
                0x0000000000016860                .tiny3d_SetLightCameraPosition
 *fill*         0x000000000001689c        0x4 60000000
 .text.tiny3d_SetLight
                0x00000000000168a0       0xd4 /home/scristaldi/tiny3d_Estwald_work/fonts/libtiny3d_.a(tiny3d.o)
                0x00000000000168a0                .tiny3d_SetLight
 *fill*         0x0000000000016974        0x4 60000000
 .text.tiny3d_SetLightsOff
                0x0000000000016978       0x3c /home/scristaldi/tiny3d_Estwald_work/fonts/libtiny3d_.a(tiny3d.o)
                0x0000000000016978                .tiny3d_SetLightsOff
 *fill*         0x00000000000169b4        0x4 60000000
 .text.tiny3d_SetAmbientLight
                0x00000000000169b8       0x3c /home/scristaldi/tiny3d_Estwald_work/fonts/libtiny3d_.a(tiny3d.o)
                0x00000000000169b8                .tiny3d_SetAmbientLight
 *fill*         0x00000000000169f4        0x4 60000000
 .text.tiny3d_SelMultiTexturesMethod
                0x00000000000169f8       0xc0 /home/scristaldi/tiny3d_Estwald_work/fonts/libtiny3d_.a(tiny3d.o)
                0x00000000000169f8                .tiny3d_SelMultiTexturesMethod
 .text.tiny3d_DrawList
                0x0000000000016ab8      0x58c /home/scristaldi/tiny3d_Estwald_work/fonts/libtiny3d_.a(tiny3d.o)
                0x0000000000016ab8                .tiny3d_DrawList
 *fill*         0x0000000000017044        0x4 60000000
 .text.tiny3d_MenuActive
                0x0000000000017048       0x1c /home/scristaldi/tiny3d_Estwald_work/fonts/libtiny3d_.a(tiny3d.o)
                0x0000000000017048                .tiny3d_MenuActive
 *fill*         0x0000000000017064        0x4 60000000
 .text.tiny3d_Enable_YUV
                0x0000000000017068       0x2c /home/scristaldi/tiny3d_Estwald_work/fonts/libtiny3d_.a(tiny3d.o)
                0x0000000000017068                .tiny3d_Enable_YUV
 *fill*         0x0000000000017094        0x4 60000000
 .text.tiny3d_Disable_YUV
                0x0000000000017098       0x28 /home/scristaldi/tiny3d_Estwald_work/fonts/libtiny3d_.a(tiny3d.o)
                0x0000000000017098                .tiny3d_Disable_YUV
 .text.tiny3d_Dirty_Status
                0x00000000000170c0       0x78 /home/scristaldi/tiny3d_Estwald_work/fonts/libtiny3d_.a(tiny3d.o)
                0x00000000000170c0                .tiny3d_Dirty_Status
 .text.tiny3d_Get_GCM_Context
                0x0000000000017138       0x18 /home/scristaldi/tiny3d_Estwald_work/fonts/libtiny3d_.a(tiny3d.o)
                0x0000000000017138                .tiny3d_Get_GCM_Context
 .text.tiny3d_DoCmd_Space
                0x0000000000017150       0x6c /home/scristaldi/tiny3d_Estwald_work/fonts/libtiny3d_.a(tiny3d.o)
                0x0000000000017150                .tiny3d_DoCmd_Space
 .text          0x00000000000171bc        0x0 /home/scristaldi/tiny3d_Estwald_work/fonts/libtiny3d_.a(mm.o)
 *fill*         0x00000000000171bc        0x4 60000000
 .text.rsxtiny_MemAlign
                0x00000000000171c0      0x134 /home/scristaldi/tiny3d_Estwald_work/fonts/libtiny3d_.a(mm.o)
                0x00000000000171c0                .rsxtiny_MemAlign
 *fill*         0x00000000000172f4        0x4 60000000
 .text.rsxtiny_Mem
                0x00000000000172f8       0x18 /home/scristaldi/tiny3d_Estwald_work/fonts/libtiny3d_.a(mm.o)
                0x00000000000172f8                .rsxtiny_Mem
 .text          0x0000000000017310        0x0 /home/scristaldi/tiny3d_Estwald_work/fonts/libtiny3d_.a(glue.o)
 .text.rsxtiny_FlushBuffer
                0x0000000000017310       0x78 /home/scristaldi/tiny3d_Estwald_work/fonts/libtiny3d_.a(glue.o)
                0x0000000000017310                .rsxtiny_FlushBuffer
 .text.rsxtiny_Init
                0x0000000000017388       0x54 /home/scristaldi/tiny3d_Estwald_work/fonts/libtiny3d_.a(glue.o)
                0x0000000000017388                .rsxtiny_Init
 *fill*         0x00000000000173dc        0x4 60000000
 .text.rsxtiny_AddressToOffset
                0x00000000000173e0       0x30 /home/scristaldi/tiny3d_Estwald_work/fonts/libtiny3d_.a(glue.o)
                0x00000000000173e0                .rsxtiny_AddressToOffset
 .text          0x0000000000017410        0x0 /home/scristaldi/tiny3d_Estwald_work/fonts/libtiny3d_.a(vshader_text_normal.vcg.o)
 .text          0x0000000000017410        0x0 /home/scristaldi/tiny3d_Estwald_work/fonts/libtiny3d_.a(realityVP.o)
 .text.rsxtiny_VertexProgramGetUCode
                0x0000000000017410       0x18 /home/scristaldi/tiny3d_Estwald_work/fonts/libtiny3d_.a(realityVP.o)
                0x0000000000017410                .rsxtiny_VertexProgramGetUCode
 .text.rsxtiny_VertexProgramGetInputMask
                0x0000000000017428       0x14 /home/scristaldi/tiny3d_Estwald_work/fonts/libtiny3d_.a(realityVP.o)
                0x0000000000017428                .rsxtiny_VertexProgramGetInputMask
 *fill*         0x000000000001743c        0x4 60000000
 .text.rsxtiny_VertexProgramGetOutputMask
                0x0000000000017440       0x14 /home/scristaldi/tiny3d_Estwald_work/fonts/libtiny3d_.a(realityVP.o)
                0x0000000000017440                .rsxtiny_VertexProgramGetOutputMask
 *fill*         0x0000000000017454        0x4 60000000
 .text.rsxtiny_VertexProgramGetAttributes
                0x0000000000017458       0x18 /home/scristaldi/tiny3d_Estwald_work/fonts/libtiny3d_.a(realityVP.o)
                0x0000000000017458                .rsxtiny_VertexProgramGetAttributes
 .text.rsxtiny_VertexProgramGetInputAttribute
                0x0000000000017470       0xc8 /home/scristaldi/tiny3d_Estwald_work/fonts/libtiny3d_.a(realityVP.o)
                0x0000000000017470                .rsxtiny_VertexProgramGetInputAttribute
 .text.rsxtiny_VertexProgramGetConstants
                0x0000000000017538       0x18 /home/scristaldi/tiny3d_Estwald_work/fonts/libtiny3d_.a(realityVP.o)
                0x0000000000017538                .rsxtiny_VertexProgramGetConstants
 .text.rsxtiny_VertexProgramGetConstant
                0x0000000000017550       0xc8 /home/scristaldi/tiny3d_Estwald_work/fonts/libtiny3d_.a(realityVP.o)
                0x0000000000017550                .rsxtiny_VertexProgramGetConstant
 .text          0x0000000000017618        0x0 /home/scristaldi/tiny3d_Estwald_work/fonts/libtiny3d_.a(matrix.o)
 .text.MatrixProjPerspective
                0x0000000000017618      0x108 /home/scristaldi/tiny3d_Estwald_work/fonts/libtiny3d_.a(matrix.o)
                0x0000000000017618                .MatrixProjPerspective
 .text.MatrixVectorMultiply
                0x0000000000017720       0xac /home/scristaldi/tiny3d_Estwald_work/fonts/libtiny3d_.a(matrix.o)
                0x0000000000017720                .MatrixVectorMultiply
 *fill*         0x00000000000177cc        0x4 60000000
 .text.MatrixVectorMultiply3x3
                0x00000000000177d0       0x8c /home/scristaldi/tiny3d_Estwald_work/fonts/libtiny3d_.a(matrix.o)
                0x00000000000177d0                .MatrixVectorMultiply3x3
 *fill*         0x000000000001785c        0x4 60000000
 .text.MatrixMultiply
                0x0000000000017860      0x2f4 /home/scristaldi/tiny3d_Estwald_work/fonts/libtiny3d_.a(matrix.o)
                0x0000000000017860                .MatrixMultiply
 *fill*         0x0000000000017b54        0x4 60000000
 .text.MatrixIdentity
                0x0000000000017b58       0x54 /home/scristaldi/tiny3d_Estwald_work/fonts/libtiny3d_.a(matrix.o)
                0x0000000000017b58                .MatrixIdentity
 *fill*         0x0000000000017bac        0x4 60000000
 .text.MatrixTranslation
                0x0000000000017bb0       0x58 /home/scristaldi/tiny3d_Estwald_work/fonts/libtiny3d_.a(matrix.o)
                0x0000000000017bb0                .MatrixTranslation
 .text.MatrixTranspose
                0x0000000000017c08       0xb0 /home/scristaldi/tiny3d_Estwald_work/fonts/libtiny3d_.a(matrix.o)
                0x0000000000017c08                .MatrixTranspose
 .text.MatrixScale
                0x0000000000017cb8       0x60 /home/scristaldi/tiny3d_Estwald_work/fonts/libtiny3d_.a(matrix.o)
                0x0000000000017cb8                .MatrixScale
 .text.MatrixRotationX
                0x0000000000017d18       0xbc /home/scristaldi/tiny3d_Estwald_work/fonts/libtiny3d_.a(matrix.o)
                0x0000000000017d18                .MatrixRotationX
 *fill*         0x0000000000017dd4        0x4 60000000
 .text.MatrixRotationY
                0x0000000000017dd8       0xbc /home/scristaldi/tiny3d_Estwald_work/fonts/libtiny3d_.a(matrix.o)
                0x0000000000017dd8                .MatrixRotationY
 *fill*         0x0000000000017e94        0x4 60000000
 .text.MatrixRotationZ
                0x0000000000017e98       0xac /home/scristaldi/tiny3d_Estwald_work/fonts/libtiny3d_.a(matrix.o)
                0x0000000000017e98                .MatrixRotationZ
 *fill*         0x0000000000017f44        0x4 60000000
 .text.MatrixRotationAxis
                0x0000000000017f48      0x2b0 /home/scristaldi/tiny3d_Estwald_work/fonts/libtiny3d_.a(matrix.o)
                0x0000000000017f48                .MatrixRotationAxis
 .text.VectorToUnit
                0x00000000000181f8       0xc4 /home/scristaldi/tiny3d_Estwald_work/fonts/libtiny3d_.a(matrix.o)
                0x00000000000181f8                .VectorToUnit
 *fill*         0x00000000000182bc        0x4 60000000
 .text.VectorNormalPlane
                0x00000000000182c0       0xdc /home/scristaldi/tiny3d_Estwald_work/fonts/libtiny3d_.a(matrix.o)
                0x00000000000182c0                .VectorNormalPlane
 *fill*         0x000000000001839c        0x4 60000000
 .text.MakeLookAtMatrix
                0x00000000000183a0      0x2f0 /home/scristaldi/tiny3d_Estwald_work/fonts/libtiny3d_.a(matrix.o)
                0x00000000000183a0                .MakeLookAtMatrix
 .text          0x0000000000018690        0x0 /home/scristaldi/tiny3d_Estwald_work/fonts/libtiny3d_.a(commands.o)
 .text.rsxtiny_MakeCmdSpace
                0x0000000000018690      0x104 /home/scristaldi/tiny3d_Estwald_work/fonts/libtiny3d_.a(commands.o)
                0x0000000000018690                .rsxtiny_MakeCmdSpace
 *fill*         0x0000000000018794        0x4 60000000
 .text.rsxtiny_SetReferenceCommand
                0x0000000000018798      0x128 /home/scristaldi/tiny3d_Estwald_work/fonts/libtiny3d_.a(commands.o)
                0x0000000000018798                .rsxtiny_SetReferenceCommand
 .text.rsxtiny_SetWriteBackendLabel
                0x00000000000188c0      0x168 /home/scristaldi/tiny3d_Estwald_work/fonts/libtiny3d_.a(commands.o)
                0x00000000000188c0                .rsxtiny_SetWriteBackendLabel
 .text.rsxtiny_SetWaitLabel
                0x0000000000018a28      0x150 /home/scristaldi/tiny3d_Estwald_work/fonts/libtiny3d_.a(commands.o)
                0x0000000000018a28                .rsxtiny_SetWaitLabel
 .text.rsxtiny_SetScissor
                0x0000000000018b78      0x168 /home/scristaldi/tiny3d_Estwald_work/fonts/libtiny3d_.a(commands.o)
                0x0000000000018b78                .rsxtiny_SetScissor
 .text.rsxtiny_SetClearColor
                0x0000000000018ce0      0x128 /home/scristaldi/tiny3d_Estwald_work/fonts/libtiny3d_.a(commands.o)
                0x0000000000018ce0                .rsxtiny_SetClearColor
 .text.rsxtiny_SetClearDepthValue
                0x0000000000018e08      0x128 /home/scristaldi/tiny3d_Estwald_work/fonts/libtiny3d_.a(commands.o)
                0x0000000000018e08                .rsxtiny_SetClearDepthValue
 .text.rsxtiny_Nop
                0x0000000000018f30      0x118 /home/scristaldi/tiny3d_Estwald_work/fonts/libtiny3d_.a(commands.o)
                0x0000000000018f30                .rsxtiny_Nop
 .text.rsxtiny_ClearBuffers
                0x0000000000019048      0x140 /home/scristaldi/tiny3d_Estwald_work/fonts/libtiny3d_.a(commands.o)
                0x0000000000019048                .rsxtiny_ClearBuffers
 .text.rsxtiny_SetRenderSurface
                0x0000000000019188      0x198 /home/scristaldi/tiny3d_Estwald_work/fonts/libtiny3d_.a(commands.o)
                0x0000000000019188                .rsxtiny_SetRenderSurface
 .text.rsxtiny_SelectRenderTarget
                0x0000000000019320      0x218 /home/scristaldi/tiny3d_Estwald_work/fonts/libtiny3d_.a(commands.o)
                0x0000000000019320                .rsxtiny_SelectRenderTarget
 .text.rsxtiny_Viewport
                0x0000000000019538      0x140 /home/scristaldi/tiny3d_Estwald_work/fonts/libtiny3d_.a(commands.o)
                0x0000000000019538                .rsxtiny_Viewport
 .text.rsxtiny_ViewportClip
                0x0000000000019678      0x160 /home/scristaldi/tiny3d_Estwald_work/fonts/libtiny3d_.a(commands.o)
                0x0000000000019678                .rsxtiny_ViewportClip
 .text.rsxtiny_VertexBegin
                0x00000000000197d8      0x128 /home/scristaldi/tiny3d_Estwald_work/fonts/libtiny3d_.a(commands.o)
                0x00000000000197d8                .rsxtiny_VertexBegin
 .text.rsxtiny_VertexEnd
                0x0000000000019900      0x118 /home/scristaldi/tiny3d_Estwald_work/fonts/libtiny3d_.a(commands.o)
                0x0000000000019900                .rsxtiny_VertexEnd
 .text.rsxtiny_Vertex4f
                0x0000000000019a18      0x170 /home/scristaldi/tiny3d_Estwald_work/fonts/libtiny3d_.a(commands.o)
                0x0000000000019a18                .rsxtiny_Vertex4f
 .text.rsxtiny_TexCoord2f
                0x0000000000019b88      0x140 /home/scristaldi/tiny3d_Estwald_work/fonts/libtiny3d_.a(commands.o)
                0x0000000000019b88                .rsxtiny_TexCoord2f
 .text.rsxtiny_SetVertexProgramConstant4f
                0x0000000000019cc8      0x158 /home/scristaldi/tiny3d_Estwald_work/fonts/libtiny3d_.a(commands.o)
                0x0000000000019cc8                .rsxtiny_SetVertexProgramConstant4f
 .text.rsxtiny_LoadVertexProgram
                0x0000000000019e20      0x2d0 /home/scristaldi/tiny3d_Estwald_work/fonts/libtiny3d_.a(commands.o)
                0x0000000000019e20                .rsxtiny_LoadVertexProgram
 .text.rsxtiny_SetVertexProgramConstant4fBlock
                0x000000000001a0f0      0x174 /home/scristaldi/tiny3d_Estwald_work/fonts/libtiny3d_.a(commands.o)
                0x000000000001a0f0                .rsxtiny_SetVertexProgramConstant4fBlock
 *fill*         0x000000000001a264        0x4 60000000
 .text.rsxtiny_InstallFragmentProgram
                0x000000000001a268       0x70 /home/scristaldi/tiny3d_Estwald_work/fonts/libtiny3d_.a(commands.o)
                0x000000000001a268                .rsxtiny_InstallFragmentProgram
 .text.rsxtiny_LoadFragmentProgram
                0x000000000001a2d8      0x158 /home/scristaldi/tiny3d_Estwald_work/fonts/libtiny3d_.a(commands.o)
                0x000000000001a2d8                .rsxtiny_LoadFragmentProgram
 .text.rsxtiny_InvalidateTextureCache
                0x000000000001a430      0x128 /home/scristaldi/tiny3d_Estwald_work/fonts/libtiny3d_.a(commands.o)
                0x000000000001a430                .rsxtiny_InvalidateTextureCache
 .text.rsxtiny_SetTexture
                0x000000000001a558      0x1a0 /home/scristaldi/tiny3d_Estwald_work/fonts/libtiny3d_.a(commands.o)
                0x000000000001a558                .rsxtiny_SetTexture
 .text.rsxtiny_ViewportTranslate
                0x000000000001a6f8      0x170 /home/scristaldi/tiny3d_Estwald_work/fonts/libtiny3d_.a(commands.o)
                0x000000000001a6f8                .rsxtiny_ViewportTranslate
 .text.rsxtiny_ViewportScale
                0x000000000001a868      0x170 /home/scristaldi/tiny3d_Estwald_work/fonts/libtiny3d_.a(commands.o)
                0x000000000001a868                .rsxtiny_ViewportScale
 .text.rsxtiny_CullFace
                0x000000000001a9d8      0x128 /home/scristaldi/tiny3d_Estwald_work/fonts/libtiny3d_.a(commands.o)
                0x000000000001a9d8                .rsxtiny_CullFace
 .text.rsxtiny_FrontFace
                0x000000000001ab00      0x128 /home/scristaldi/tiny3d_Estwald_work/fonts/libtiny3d_.a(commands.o)
                0x000000000001ab00                .rsxtiny_FrontFace
 .text.rsxtiny_CullEnable
                0x000000000001ac28      0x128 /home/scristaldi/tiny3d_Estwald_work/fonts/libtiny3d_.a(commands.o)
                0x000000000001ac28                .rsxtiny_CullEnable
 .text.rsxtiny_AlphaEnable
                0x000000000001ad50      0x128 /home/scristaldi/tiny3d_Estwald_work/fonts/libtiny3d_.a(commands.o)
                0x000000000001ad50                .rsxtiny_AlphaEnable
 .text.rsxtiny_AlphaRef
                0x000000000001ae78      0x128 /home/scristaldi/tiny3d_Estwald_work/fonts/libtiny3d_.a(commands.o)
                0x000000000001ae78                .rsxtiny_AlphaRef
 .text.rsxtiny_AlphaFunc
                0x000000000001afa0      0x128 /home/scristaldi/tiny3d_Estwald_work/fonts/libtiny3d_.a(commands.o)
                0x000000000001afa0                .rsxtiny_AlphaFunc
 .text.rsxtiny_BlendEnable
                0x000000000001b0c8      0x128 /home/scristaldi/tiny3d_Estwald_work/fonts/libtiny3d_.a(commands.o)
                0x000000000001b0c8                .rsxtiny_BlendEnable
 .text.rsxtiny_BlendEquation
                0x000000000001b1f0      0x128 /home/scristaldi/tiny3d_Estwald_work/fonts/libtiny3d_.a(commands.o)
                0x000000000001b1f0                .rsxtiny_BlendEquation
 .text.rsxtiny_BlendFunc
                0x000000000001b318      0x138 /home/scristaldi/tiny3d_Estwald_work/fonts/libtiny3d_.a(commands.o)
                0x000000000001b318                .rsxtiny_BlendFunc
 .text.rsxtiny_ZControl
                0x000000000001b450      0x158 /home/scristaldi/tiny3d_Estwald_work/fonts/libtiny3d_.a(commands.o)
                0x000000000001b450                .rsxtiny_ZControl
 .text.rsxtiny_BindVertexBufferAttribute
                0x000000000001b5a8      0x1a8 /home/scristaldi/tiny3d_Estwald_work/fonts/libtiny3d_.a(commands.o)
                0x000000000001b5a8                .rsxtiny_BindVertexBufferAttribute
 .text.rsxtiny_VertexInvalidate
                0x000000000001b750      0x120 /home/scristaldi/tiny3d_Estwald_work/fonts/libtiny3d_.a(commands.o)
                0x000000000001b750                .rsxtiny_VertexInvalidate
 .text.rsxtiny_DrawVertexBuffer
                0x000000000001b870      0x30c /home/scristaldi/tiny3d_Estwald_work/fonts/libtiny3d_.a(commands.o)
                0x000000000001b870                .rsxtiny_DrawVertexBuffer
 *fill*         0x000000000001bb7c        0x4 60000000
 .text.rsxtiny_DrawVertexBufferIndex
                0x000000000001bb80      0x34c /home/scristaldi/tiny3d_Estwald_work/fonts/libtiny3d_.a(commands.o)
                0x000000000001bb80                .rsxtiny_DrawVertexBufferIndex
 *fill*         0x000000000001becc        0x4 60000000
 .text.rsxtiny_DepthTestEnable
                0x000000000001bed0      0x128 /home/scristaldi/tiny3d_Estwald_work/fonts/libtiny3d_.a(commands.o)
                0x000000000001bed0                .rsxtiny_DepthTestEnable
 .text.rsxtiny_DepthTestFunc
                0x000000000001bff8      0x128 /home/scristaldi/tiny3d_Estwald_work/fonts/libtiny3d_.a(commands.o)
                0x000000000001bff8                .rsxtiny_DepthTestFunc
 .text.rsxtiny_DepthWriteEnable
                0x000000000001c120      0x128 /home/scristaldi/tiny3d_Estwald_work/fonts/libtiny3d_.a(commands.o)
                0x000000000001c120                .rsxtiny_DepthWriteEnable
 .text          0x000000000001c248        0x0 /home/scristaldi/tiny3d_Estwald_work/fonts/libtiny3d_.a(rsxutil.o)
 .text.waitFlip
                0x000000000001c248       0xbc /home/scristaldi/tiny3d_Estwald_work/fonts/libtiny3d_.a(rsxutil.o)
                0x000000000001c248                .waitFlip
 *fill*         0x000000000001c304        0x4 60000000
 .text.flip     0x000000000001c308       0x5c /home/scristaldi/tiny3d_Estwald_work/fonts/libtiny3d_.a(rsxutil.o)
                0x000000000001c308                .flip
 *fill*         0x000000000001c364        0x4 60000000
 .text.init_screen
                0x000000000001c368      0x354 /home/scristaldi/tiny3d_Estwald_work/fonts/libtiny3d_.a(rsxutil.o)
                0x000000000001c368                .init_screen
 *fill*         0x000000000001c6bc        0x4 60000000
 .text.setupRenderTarget
                0x000000000001c6c0      0x108 /home/scristaldi/tiny3d_Estwald_work/fonts/libtiny3d_.a(rsxutil.o)
                0x000000000001c6c0                .setupRenderTarget
 .text.setupRenderTarget2
                0x000000000001c7c8      0x130 /home/scristaldi/tiny3d_Estwald_work/fonts/libtiny3d_.a(rsxutil.o)
                0x000000000001c7c8                .setupRenderTarget2
 .text          0x000000000001c8f8        0x0 /home/scristaldi/tiny3d_Estwald_work/fonts/libtiny3d_.a(buffer.o)
 .text.tiny_rsxContextCallback
                0x000000000001c8f8       0x50 /home/scristaldi/tiny3d_Estwald_work/fonts/libtiny3d_.a(buffer.o)
                0x000000000001c8f8                .tiny_rsxContextCallback
 .text.commandBufferPut
                0x000000000001c948       0x20 /home/scristaldi/tiny3d_Estwald_work/fonts/libtiny3d_.a(buffer.o)
                0x000000000001c948                .commandBufferPut
 .text          0x000000000001c968        0x0 /usr/local/ps3dev/psl1ght/ppu/lib/libgcm_sys.a(sprx.o)
 .text          0x000000000001c968        0x0 /usr/local/ps3dev/psl1ght/ppu/lib/libio.a(sprx.o)
 .text          0x000000000001c968        0x0 /usr/local/ps3dev/psl1ght/ppu/lib/libsysutil.a(sprx.o)
 .text          0x000000000001c968        0x0 /usr/local/ps3dev/psl1ght/ppu/lib/libsysutil.a(sysutil_wrapper.o)
 .text.sysUtilRegisterCallback
                0x000000000001c968       0x34 /usr/local/ps3dev/psl1ght/ppu/lib/libsysutil.a(sysutil_wrapper.o)
                0x000000000001c968                .sysUtilRegisterCallback
 *fill*         0x000000000001c99c        0x4 60000000
 .text.msgDialogOpen
                0x000000000001c9a0       0x34 /usr/local/ps3dev/psl1ght/ppu/lib/libsysutil.a(sysutil_wrapper.o)
                0x000000000001c9a0                .msgDialogOpen
 *fill*         0x000000000001c9d4        0x4 60000000
 .text.msgDialogOpen2
                0x000000000001c9d8       0x34 /usr/local/ps3dev/psl1ght/ppu/lib/libsysutil.a(sysutil_wrapper.o)
                0x000000000001c9d8                .msgDialogOpen2
 *fill*         0x000000000001ca0c        0x4 60000000
 .text.msgDialogOpenErrorCode
                0x000000000001ca10       0x34 /usr/local/ps3dev/psl1ght/ppu/lib/libsysutil.a(sysutil_wrapper.o)
                0x000000000001ca10                .msgDialogOpenErrorCode
 *fill*         0x000000000001ca44        0x4 60000000
 .text.sysSaveListLoad2
                0x000000000001ca48       0x3c /usr/local/ps3dev/psl1ght/ppu/lib/libsysutil.a(sysutil_wrapper.o)
                0x000000000001ca48                .sysSaveListLoad2
 *fill*         0x000000000001ca84        0x4 60000000
 .text.sysSaveListSave2
                0x000000000001ca88       0x3c /usr/local/ps3dev/psl1ght/ppu/lib/libsysutil.a(sysutil_wrapper.o)
                0x000000000001ca88                .sysSaveListSave2
 *fill*         0x000000000001cac4        0x4 60000000
 .text.sysSaveListAutoLoad
                0x000000000001cac8       0x44 /usr/local/ps3dev/psl1ght/ppu/lib/libsysutil.a(sysutil_wrapper.o)
                0x000000000001cac8                .sysSaveListAutoLoad
 *fill*         0x000000000001cb0c        0x4 60000000
 .text.sysSaveListAutoSave
                0x000000000001cb10       0x44 /usr/local/ps3dev/psl1ght/ppu/lib/libsysutil.a(sysutil_wrapper.o)
                0x000000000001cb10                .sysSaveListAutoSave
 *fill*         0x000000000001cb54        0x4 60000000
 .text.sysSaveFixedLoad2
                0x000000000001cb58       0x3c /usr/local/ps3dev/psl1ght/ppu/lib/libsysutil.a(sysutil_wrapper.o)
                0x000000000001cb58                .sysSaveFixedLoad2
 *fill*         0x000000000001cb94        0x4 60000000
 .text.sysSaveFixedSave2
                0x000000000001cb98       0x3c /usr/local/ps3dev/psl1ght/ppu/lib/libsysutil.a(sysutil_wrapper.o)
                0x000000000001cb98                .sysSaveFixedSave2
 *fill*         0x000000000001cbd4        0x4 60000000
 .text.sysSaveAutoLoad2
                0x000000000001cbd8       0x38 /usr/local/ps3dev/psl1ght/ppu/lib/libsysutil.a(sysutil_wrapper.o)
                0x000000000001cbd8                .sysSaveAutoLoad2
 .text.sysSaveAutoSave2
                0x000000000001cc10       0x38 /usr/local/ps3dev/psl1ght/ppu/lib/libsysutil.a(sysutil_wrapper.o)
                0x000000000001cc10                .sysSaveAutoSave2
 .text.sysGameThemeInstallFromBuffer
                0x000000000001cc48       0x34 /usr/local/ps3dev/psl1ght/ppu/lib/libsysutil.a(sysutil_wrapper.o)
                0x000000000001cc48                .sysGameThemeInstallFromBuffer
 *fill*         0x000000000001cc7c        0x4 60000000
 .text.sysDiscRegisterDiscChangeCallback
                0x000000000001cc80       0x38 /usr/local/ps3dev/psl1ght/ppu/lib/libsysutil.a(sysutil_wrapper.o)
                0x000000000001cc80                .sysDiscRegisterDiscChangeCallback
 .text.sysGameDiscRegisterDiscChangeCallback
                0x000000000001ccb8       0x10 /usr/local/ps3dev/psl1ght/ppu/lib/libsysutil.a(sysutil_wrapper.o)
                0x000000000001ccb8                .sysGameDiscRegisterDiscChangeCallback
 .text          0x000000000001ccc8        0x0 /usr/local/ps3dev/psl1ght/ppu/lib/librt.a(sbrk.o)
 .text.startup.sbrk_init
                0x000000000001ccc8       0xb8 /usr/local/ps3dev/psl1ght/ppu/lib/librt.a(sbrk.o)
 .text.sbrk_deinit
                0x000000000001cd80       0xc8 /usr/local/ps3dev/psl1ght/ppu/lib/librt.a(sbrk.o)
 .text.__librt_sbrk_r
                0x000000000001ce48      0x2f4 /usr/local/ps3dev/psl1ght/ppu/lib/librt.a(sbrk.o)
                0x000000000001ce48                .__librt_sbrk_r
 .text          0x000000000001d13c        0x0 /usr/local/ps3dev/psl1ght/ppu/lib/librt.a(exit.o)
 *fill*         0x000000000001d13c        0x4 60000000
 .text.__librt_exit
                0x000000000001d140       0x30 /usr/local/ps3dev/psl1ght/ppu/lib/librt.a(exit.o)
                0x000000000001d140                .__librt_exit
 .text          0x000000000001d170        0x0 /usr/local/ps3dev/psl1ght/ppu/lib/librt.a(close.o)
 .text.__librt_close_r
                0x000000000001d170       0x88 /usr/local/ps3dev/psl1ght/ppu/lib/librt.a(close.o)
                0x000000000001d170                .__librt_close_r
 .text          0x000000000001d1f8        0x0 /usr/local/ps3dev/psl1ght/ppu/lib/librt.a(lseek.o)
 .text.__librt_lseek_r
                0x000000000001d1f8       0x8c /usr/local/ps3dev/psl1ght/ppu/lib/librt.a(lseek.o)
                0x000000000001d1f8                .__librt_lseek_r
 *fill*         0x000000000001d284        0x4 60000000
 .text.__librt_lseek64_r
                0x000000000001d288       0x10 /usr/local/ps3dev/psl1ght/ppu/lib/librt.a(lseek.o)
                0x000000000001d288                .__librt_lseek64_r
 .text          0x000000000001d298        0x0 /usr/local/ps3dev/psl1ght/ppu/lib/librt.a(read.o)
 .text.__librt_read_r
                0x000000000001d298      0x10c /usr/local/ps3dev/psl1ght/ppu/lib/librt.a(read.o)
                0x000000000001d298                .__librt_read_r
 .text          0x000000000001d3a4        0x0 /usr/local/ps3dev/psl1ght/ppu/lib/librt.a(open.o)
 *fill*         0x000000000001d3a4        0x4 60000000
 .text.__librt_open_r
                0x000000000001d3a8      0x180 /usr/local/ps3dev/psl1ght/ppu/lib/librt.a(open.o)
                0x000000000001d3a8                .__librt_open_r
 .text          0x000000000001d528        0x0 /usr/local/ps3dev/psl1ght/ppu/lib/librt.a(sleep.o)
 .text.__librt_usleep_r
                0x000000000001d528       0x50 /usr/local/ps3dev/psl1ght/ppu/lib/librt.a(sleep.o)
                0x000000000001d528                .__librt_usleep_r
 .text.__librt_sleep_r
                0x000000000001d578       0x6c /usr/local/ps3dev/psl1ght/ppu/lib/librt.a(sleep.o)
                0x000000000001d578                .__librt_sleep_r
 .text          0x000000000001d5e4        0x0 /usr/local/ps3dev/psl1ght/ppu/lib/librt.a(write.o)
 *fill*         0x000000000001d5e4        0x4 60000000
 .text.__librt_write_r
                0x000000000001d5e8      0x104 /usr/local/ps3dev/psl1ght/ppu/lib/librt.a(write.o)
                0x000000000001d5e8                .__librt_write_r
 .text          0x000000000001d6ec        0x0 /usr/local/ps3dev/psl1ght/ppu/lib/librt.a(fstat.o)
 *fill*         0x000000000001d6ec        0x4 60000000
 .text.__librt_fstat_r
                0x000000000001d6f0       0xd0 /usr/local/ps3dev/psl1ght/ppu/lib/librt.a(fstat.o)
                0x000000000001d6f0                .__librt_fstat_r
 .text.__librt_fstat64_r
                0x000000000001d7c0       0x10 /usr/local/ps3dev/psl1ght/ppu/lib/librt.a(fstat.o)
                0x000000000001d7c0                .__librt_fstat64_r
 .text.__librt_stat_r
                0x000000000001d7d0       0xd0 /usr/local/ps3dev/psl1ght/ppu/lib/librt.a(fstat.o)
                0x000000000001d7d0                .__librt_stat_r
 .text.__librt_stat64_r
                0x000000000001d8a0       0x10 /usr/local/ps3dev/psl1ght/ppu/lib/librt.a(fstat.o)
                0x000000000001d8a0                .__librt_stat64_r
 .text          0x000000000001d8b0        0x0 /usr/local/ps3dev/psl1ght/ppu/lib/librt.a(socket.o)
 .text.accept   0x000000000001d8b0       0xe0 /usr/local/ps3dev/psl1ght/ppu/lib/librt.a(socket.o)
                0x000000000001d8b0                .accept
 .text.bind     0x000000000001d990       0x44 /usr/local/ps3dev/psl1ght/ppu/lib/librt.a(socket.o)
                0x000000000001d990                .bind
 *fill*         0x000000000001d9d4        0x4 60000000
 .text.connect  0x000000000001d9d8       0x44 /usr/local/ps3dev/psl1ght/ppu/lib/librt.a(socket.o)
                0x000000000001d9d8                .connect
 *fill*         0x000000000001da1c        0x4 60000000
 .text.listen   0x000000000001da20       0x44 /usr/local/ps3dev/psl1ght/ppu/lib/librt.a(socket.o)
                0x000000000001da20                .listen
 *fill*         0x000000000001da64        0x4 60000000
 .text.socket   0x000000000001da68       0x5c /usr/local/ps3dev/psl1ght/ppu/lib/librt.a(socket.o)
                0x000000000001da68                .socket
 *fill*         0x000000000001dac4        0x4 60000000
 .text.send     0x000000000001dac8       0x4c /usr/local/ps3dev/psl1ght/ppu/lib/librt.a(socket.o)
                0x000000000001dac8                .send
 *fill*         0x000000000001db14        0x4 60000000
 .text.sendto   0x000000000001db18       0x44 /usr/local/ps3dev/psl1ght/ppu/lib/librt.a(socket.o)
                0x000000000001db18                .sendto
 *fill*         0x000000000001db5c        0x4 60000000
 .text.recv     0x000000000001db60       0x4c /usr/local/ps3dev/psl1ght/ppu/lib/librt.a(socket.o)
                0x000000000001db60                .recv
 *fill*         0x000000000001dbac        0x4 60000000
 .text.recvfrom
                0x000000000001dbb0       0xd8 /usr/local/ps3dev/psl1ght/ppu/lib/librt.a(socket.o)
                0x000000000001dbb0                .recvfrom
 .text.shutdown
                0x000000000001dc88       0x44 /usr/local/ps3dev/psl1ght/ppu/lib/librt.a(socket.o)
                0x000000000001dc88                .shutdown
 *fill*         0x000000000001dccc        0x4 60000000
 .text.inet_aton
                0x000000000001dcd0       0xbc /usr/local/ps3dev/psl1ght/ppu/lib/librt.a(socket.o)
                0x000000000001dcd0                .inet_aton
 *fill*         0x000000000001dd8c        0x4 60000000
 .text.inet_pton
                0x000000000001dd90       0x48 /usr/local/ps3dev/psl1ght/ppu/lib/librt.a(socket.o)
                0x000000000001dd90                .inet_pton
 .text.select   0x000000000001ddd8       0x3c /usr/local/ps3dev/psl1ght/ppu/lib/librt.a(socket.o)
                0x000000000001ddd8                .select
 *fill*         0x000000000001de14        0x4 60000000
 .text.closesocket
                0x000000000001de18       0x44 /usr/local/ps3dev/psl1ght/ppu/lib/librt.a(socket.o)
                0x000000000001de18                .closesocket
 .text          0x000000000001de5c        0x0 /usr/local/ps3dev/psl1ght/ppu/lib/librt.a(lock.o)
 *fill*         0x000000000001de5c        0x4 60000000
 .text.__librt_sys_lwmutex_create_r
                0x000000000001de60       0x38 /usr/local/ps3dev/psl1ght/ppu/lib/librt.a(lock.o)
                0x000000000001de60                .__librt_sys_lwmutex_create_r
 .text.__librt_sys_lwmutex_destroy_r
                0x000000000001de98       0x34 /usr/local/ps3dev/psl1ght/ppu/lib/librt.a(lock.o)
                0x000000000001de98                .__librt_sys_lwmutex_destroy_r
 *fill*         0x000000000001decc        0x4 60000000
 .text.__librt_sys_lwmutex_lock_r
                0x000000000001ded0       0x38 /usr/local/ps3dev/psl1ght/ppu/lib/librt.a(lock.o)
                0x000000000001ded0                .__librt_sys_lwmutex_lock_r
 .text.__librt_sys_lwmutex_trylock_r
                0x000000000001df08       0x34 /usr/local/ps3dev/psl1ght/ppu/lib/librt.a(lock.o)
                0x000000000001df08                .__librt_sys_lwmutex_trylock_r
 *fill*         0x000000000001df3c        0x4 60000000
 .text.__librt_sys_lwmutex_unlock_r
                0x000000000001df40       0x34 /usr/local/ps3dev/psl1ght/ppu/lib/librt.a(lock.o)
                0x000000000001df40                .__librt_sys_lwmutex_unlock_r
 .text          0x000000000001df74        0x0 /usr/local/ps3dev/psl1ght/ppu/lib/librt.a(dirent.o)
 *fill*         0x000000000001df74        0x4 60000000
 .text.readdir_i
                0x000000000001df78      0x10c /usr/local/ps3dev/psl1ght/ppu/lib/librt.a(dirent.o)
 *fill*         0x000000000001e084        0x4 60000000
 .text.__librt_opendir_r
                0x000000000001e088      0x114 /usr/local/ps3dev/psl1ght/ppu/lib/librt.a(dirent.o)
                0x000000000001e088                .__librt_opendir_r
 *fill*         0x000000000001e19c        0x4 60000000
 .text.__librt_readdir_r
                0x000000000001e1a0       0x84 /usr/local/ps3dev/psl1ght/ppu/lib/librt.a(dirent.o)
                0x000000000001e1a0                .__librt_readdir_r
 *fill*         0x000000000001e224        0x4 60000000
 .text.__librt_readdir_r_r
                0x000000000001e228       0x58 /usr/local/ps3dev/psl1ght/ppu/lib/librt.a(dirent.o)
                0x000000000001e228                .__librt_readdir_r_r
 .text.__librt_closedir_r
                0x000000000001e280       0x84 /usr/local/ps3dev/psl1ght/ppu/lib/librt.a(dirent.o)
                0x000000000001e280                .__librt_closedir_r
 *fill*         0x000000000001e304        0x4 60000000
 .text.__librt_telldir_r
                0x000000000001e308       0x24 /usr/local/ps3dev/psl1ght/ppu/lib/librt.a(dirent.o)
                0x000000000001e308                .__librt_telldir_r
 *fill*         0x000000000001e32c        0x4 60000000
 .text.__librt_rewinddir_r
                0x000000000001e330       0x18 /usr/local/ps3dev/psl1ght/ppu/lib/librt.a(dirent.o)
                0x000000000001e330                .__librt_rewinddir_r
 .text.__librt_seekdir_r
                0x000000000001e348       0x18 /usr/local/ps3dev/psl1ght/ppu/lib/librt.a(dirent.o)
                0x000000000001e348                .__librt_seekdir_r
 .text          0x000000000001e360        0x0 /usr/local/ps3dev/psl1ght/ppu/lib/librt.a(mkdir.o)
 .text.__librt_mkdir_r
                0x000000000001e360       0x60 /usr/local/ps3dev/psl1ght/ppu/lib/librt.a(mkdir.o)
                0x000000000001e360                .__librt_mkdir_r
 .text          0x000000000001e3c0        0x0 /usr/local/ps3dev/psl1ght/ppu/lib/librt.a(times.o)
 .text.__librt_times_r
                0x000000000001e3c0       0x1c /usr/local/ps3dev/psl1ght/ppu/lib/librt.a(times.o)
                0x000000000001e3c0                .__librt_times_r
 .text          0x000000000001e3dc        0x0 /usr/local/ps3dev/psl1ght/ppu/lib/librt.a(umask.o)
 *fill*         0x000000000001e3dc        0x4 60000000
 .text.__librt_umask_r
                0x000000000001e3e0       0x20 /usr/local/ps3dev/psl1ght/ppu/lib/librt.a(umask.o)
                0x000000000001e3e0                .__librt_umask_r
 .text          0x000000000001e400        0x0 /usr/local/ps3dev/psl1ght/ppu/lib/librt.a(lv2errno.o)
 .text.lv2error
                0x000000000001e400      0x434 /usr/local/ps3dev/psl1ght/ppu/lib/librt.a(lv2errno.o)
                0x000000000001e400                .lv2error
 *fill*         0x000000000001e834        0x4 60000000
 .text.lv2errno
                0x000000000001e838       0x68 /usr/local/ps3dev/psl1ght/ppu/lib/librt.a(lv2errno.o)
                0x000000000001e838                .lv2errno
 .text.lv2errno_r
                0x000000000001e8a0       0x58 /usr/local/ps3dev/psl1ght/ppu/lib/librt.a(lv2errno.o)
                0x000000000001e8a0                .lv2errno_r
 .text          0x000000000001e8f8        0x0 /usr/local/ps3dev/psl1ght/ppu/lib/librt.a(heap.o)
 .text.heapInit
                0x000000000001e8f8      0x118 /usr/local/ps3dev/psl1ght/ppu/lib/librt.a(heap.o)
                0x000000000001e8f8                .heapInit
 .text.heapAllocate
                0x000000000001ea10      0x184 /usr/local/ps3dev/psl1ght/ppu/lib/librt.a(heap.o)
                0x000000000001ea10                .heapAllocate
 *fill*         0x000000000001eb94        0x4 60000000
 .text.heapAllocateAligned
                0x000000000001eb98      0x224 /usr/local/ps3dev/psl1ght/ppu/lib/librt.a(heap.o)
                0x000000000001eb98                .heapAllocateAligned
 *fill*         0x000000000001edbc        0x4 60000000
 .text.heapFree
                0x000000000001edc0      0x238 /usr/local/ps3dev/psl1ght/ppu/lib/librt.a(heap.o)
                0x000000000001edc0                .heapFree
 .text          0x000000000001eff8        0x0 /usr/local/ps3dev/psl1ght/ppu/lib/librt.a(chmod.o)
 .text.__librt_chmod_r
                0x000000000001eff8       0x54 /usr/local/ps3dev/psl1ght/ppu/lib/librt.a(chmod.o)
                0x000000000001eff8                .__librt_chmod_r
 .text          0x000000000001f04c        0x0 /usr/local/ps3dev/psl1ght/ppu/lib/librt.a(rmdir.o)
 *fill*         0x000000000001f04c        0x4 60000000
 .text.__librt_rmdir_r
                0x000000000001f050       0x50 /usr/local/ps3dev/psl1ght/ppu/lib/librt.a(rmdir.o)
                0x000000000001f050                .__librt_rmdir_r
 .text          0x000000000001f0a0        0x0 /usr/local/ps3dev/psl1ght/ppu/lib/librt.a(isatty.o)
 .text.__librt_isatty_r
                0x000000000001f0a0       0x2c /usr/local/ps3dev/psl1ght/ppu/lib/librt.a(isatty.o)
                0x000000000001f0a0                .__librt_isatty_r
 .text          0x000000000001f0cc        0x0 /usr/local/ps3dev/psl1ght/ppu/lib/librt.a(gettod.o)
 *fill*         0x000000000001f0cc        0x4 60000000
 .text.__librt_gettod_r
                0x000000000001f0d0       0xb8 /usr/local/ps3dev/psl1ght/ppu/lib/librt.a(gettod.o)
                0x000000000001f0d0                .__librt_gettod_r
 .text          0x000000000001f188        0x0 /usr/local/ps3dev/psl1ght/ppu/lib/librt.a(settod.o)
 .text.__librt_settod_r
                0x000000000001f188       0x58 /usr/local/ps3dev/psl1ght/ppu/lib/librt.a(settod.o)
                0x000000000001f188                .__librt_settod_r
 .text          0x000000000001f1e0        0x0 /usr/local/ps3dev/psl1ght/ppu/lib/liblv2.a(sprx.o)
 .text          0x000000000001f1e0        0x0 /usr/local/ps3dev/psl1ght/ppu/lib/libnet.a(sprx.o)
 .text          0x000000000001f1e0        0x0 /usr/local/ps3dev/psl1ght/ppu/lib/libnet.a(init.o)
 .text.netInitialize
                0x000000000001f1e0       0xe8 /usr/local/ps3dev/psl1ght/ppu/lib/libnet.a(init.o)
                0x000000000001f1e0                .netInitialize
 .text.netDeinitialize
                0x000000000001f2c8       0x68 /usr/local/ps3dev/psl1ght/ppu/lib/libnet.a(init.o)
                0x000000000001f2c8                .netDeinitialize
 .text          0x000000000001f330        0x0 /usr/local/ps3dev/psl1ght/ppu/lib/libsysmodule.a(sprx.o)
 .text          0x000000000001f330        0x0 /usr/local/ps3dev/ppu/lib/gcc/powerpc64-ps3-elf/7.2.0/../../../../powerpc64-ps3-elf/lib/libm.a(lib_a-sf_cos.o)
 .text.cosf     0x000000000001f330      0x12c /usr/local/ps3dev/ppu/lib/gcc/powerpc64-ps3-elf/7.2.0/../../../../powerpc64-ps3-elf/lib/libm.a(lib_a-sf_cos.o)
                0x000000000001f330                .cosf
 .text          0x000000000001f45c        0x0 /usr/local/ps3dev/ppu/lib/gcc/powerpc64-ps3-elf/7.2.0/../../../../powerpc64-ps3-elf/lib/libm.a(lib_a-sf_sin.o)
 *fill*         0x000000000001f45c        0x4 60000000
 .text.sinf     0x000000000001f460      0x130 /usr/local/ps3dev/ppu/lib/gcc/powerpc64-ps3-elf/7.2.0/../../../../powerpc64-ps3-elf/lib/libm.a(lib_a-sf_sin.o)
                0x000000000001f460                .sinf
 .text          0x000000000001f590        0x0 /usr/local/ps3dev/ppu/lib/gcc/powerpc64-ps3-elf/7.2.0/../../../../powerpc64-ps3-elf/lib/libm.a(lib_a-sf_tan.o)
 .text.tanf     0x000000000001f590       0xb8 /usr/local/ps3dev/ppu/lib/gcc/powerpc64-ps3-elf/7.2.0/../../../../powerpc64-ps3-elf/lib/libm.a(lib_a-sf_tan.o)
                0x000000000001f590                .tanf
 .text          0x000000000001f648        0x0 /usr/local/ps3dev/ppu/lib/gcc/powerpc64-ps3-elf/7.2.0/../../../../powerpc64-ps3-elf/lib/libm.a(lib_a-w_sqrt.o)
 .text.sqrt     0x000000000001f648      0x144 /usr/local/ps3dev/ppu/lib/gcc/powerpc64-ps3-elf/7.2.0/../../../../powerpc64-ps3-elf/lib/libm.a(lib_a-w_sqrt.o)
                0x000000000001f648                .sqrt
 .text          0x000000000001f78c        0x0 /usr/local/ps3dev/ppu/lib/gcc/powerpc64-ps3-elf/7.2.0/../../../../powerpc64-ps3-elf/lib/libm.a(lib_a-wf_sqrt.o)
 *fill*         0x000000000001f78c        0x4 60000000
 .text.sqrtf    0x000000000001f790      0x140 /usr/local/ps3dev/ppu/lib/gcc/powerpc64-ps3-elf/7.2.0/../../../../powerpc64-ps3-elf/lib/libm.a(lib_a-wf_sqrt.o)
                0x000000000001f790                .sqrtf
 .text          0x000000000001f8d0        0x0 /usr/local/ps3dev/ppu/lib/gcc/powerpc64-ps3-elf/7.2.0/../../../../powerpc64-ps3-elf/lib/libm.a(lib_a-e_sqrt.o)
 .text.__ieee754_sqrt
                0x000000000001f8d0      0x308 /usr/local/ps3dev/ppu/lib/gcc/powerpc64-ps3-elf/7.2.0/../../../../powerpc64-ps3-elf/lib/libm.a(lib_a-e_sqrt.o)
                0x000000000001f8d0                .__ieee754_sqrt
 .text          0x000000000001fbd8        0x0 /usr/local/ps3dev/ppu/lib/gcc/powerpc64-ps3-elf/7.2.0/../../../../powerpc64-ps3-elf/lib/libm.a(lib_a-ef_rem_pio2.o)
 .text.__ieee754_rem_pio2f
                0x000000000001fbd8      0x4b4 /usr/local/ps3dev/ppu/lib/gcc/powerpc64-ps3-elf/7.2.0/../../../../powerpc64-ps3-elf/lib/libm.a(lib_a-ef_rem_pio2.o)
                0x000000000001fbd8                .__ieee754_rem_pio2f
 .text          0x000000000002008c        0x0 /usr/local/ps3dev/ppu/lib/gcc/powerpc64-ps3-elf/7.2.0/../../../../powerpc64-ps3-elf/lib/libm.a(lib_a-ef_sqrt.o)
 *fill*         0x000000000002008c        0x4 60000000
 .text.__ieee754_sqrtf
                0x0000000000020090      0x164 /usr/local/ps3dev/ppu/lib/gcc/powerpc64-ps3-elf/7.2.0/../../../../powerpc64-ps3-elf/lib/libm.a(lib_a-ef_sqrt.o)
                0x0000000000020090                .__ieee754_sqrtf
 .text          0x00000000000201f4        0x0 /usr/local/ps3dev/ppu/lib/gcc/powerpc64-ps3-elf/7.2.0/../../../../powerpc64-ps3-elf/lib/libm.a(lib_a-kf_cos.o)
 *fill*         0x00000000000201f4        0x4 60000000
 .text.__kernel_cosf
                0x00000000000201f8      0x1b8 /usr/local/ps3dev/ppu/lib/gcc/powerpc64-ps3-elf/7.2.0/../../../../powerpc64-ps3-elf/lib/libm.a(lib_a-kf_cos.o)
                0x00000000000201f8                .__kernel_cosf
 .text          0x00000000000203b0        0x0 /usr/local/ps3dev/ppu/lib/gcc/powerpc64-ps3-elf/7.2.0/../../../../powerpc64-ps3-elf/lib/libm.a(lib_a-kf_rem_pio2.o)
 .text.__kernel_rem_pio2f
                0x00000000000203b0      0xda4 /usr/local/ps3dev/ppu/lib/gcc/powerpc64-ps3-elf/7.2.0/../../../../powerpc64-ps3-elf/lib/libm.a(lib_a-kf_rem_pio2.o)
                0x00000000000203b0                .__kernel_rem_pio2f
 .text          0x0000000000021154        0x0 /usr/local/ps3dev/ppu/lib/gcc/powerpc64-ps3-elf/7.2.0/../../../../powerpc64-ps3-elf/lib/libm.a(lib_a-kf_sin.o)
 *fill*         0x0000000000021154        0x4 60000000
 .text.__kernel_sinf
                0x0000000000021158       0xd0 /usr/local/ps3dev/ppu/lib/gcc/powerpc64-ps3-elf/7.2.0/../../../../powerpc64-ps3-elf/lib/libm.a(lib_a-kf_sin.o)
                0x0000000000021158                .__kernel_sinf
 .text          0x0000000000021228        0x0 /usr/local/ps3dev/ppu/lib/gcc/powerpc64-ps3-elf/7.2.0/../../../../powerpc64-ps3-elf/lib/libm.a(lib_a-kf_tan.o)
 .text.__kernel_tanf
                0x0000000000021228      0x338 /usr/local/ps3dev/ppu/lib/gcc/powerpc64-ps3-elf/7.2.0/../../../../powerpc64-ps3-elf/lib/libm.a(lib_a-kf_tan.o)
                0x0000000000021228                .__kernel_tanf
 .text          0x0000000000021560        0x0 /usr/local/ps3dev/ppu/lib/gcc/powerpc64-ps3-elf/7.2.0/../../../../powerpc64-ps3-elf/lib/libm.a(lib_a-s_fpclassify.o)
 .text.__fpclassifyd
                0x0000000000021560       0xb8 /usr/local/ps3dev/ppu/lib/gcc/powerpc64-ps3-elf/7.2.0/../../../../powerpc64-ps3-elf/lib/libm.a(lib_a-s_fpclassify.o)
                0x0000000000021560                .__fpclassifyd
 .text          0x0000000000021618        0x0 /usr/local/ps3dev/ppu/lib/gcc/powerpc64-ps3-elf/7.2.0/../../../../powerpc64-ps3-elf/lib/libm.a(lib_a-s_lib_ver.o)
 .text          0x0000000000021618        0x0 /usr/local/ps3dev/ppu/lib/gcc/powerpc64-ps3-elf/7.2.0/../../../../powerpc64-ps3-elf/lib/libm.a(lib_a-s_matherr.o)
 .text.matherr  0x0000000000021618       0x14 /usr/local/ps3dev/ppu/lib/gcc/powerpc64-ps3-elf/7.2.0/../../../../powerpc64-ps3-elf/lib/libm.a(lib_a-s_matherr.o)
                0x0000000000021618                .matherr
 .text          0x000000000002162c        0x0 /usr/local/ps3dev/ppu/lib/gcc/powerpc64-ps3-elf/7.2.0/../../../../powerpc64-ps3-elf/lib/libm.a(lib_a-sf_fabs.o)
 *fill*         0x000000000002162c        0x4 60000000
 .text.fabsf    0x0000000000021630       0x24 /usr/local/ps3dev/ppu/lib/gcc/powerpc64-ps3-elf/7.2.0/../../../../powerpc64-ps3-elf/lib/libm.a(lib_a-sf_fabs.o)
                0x0000000000021630                .fabsf
 .text          0x0000000000021654        0x0 /usr/local/ps3dev/ppu/lib/gcc/powerpc64-ps3-elf/7.2.0/../../../../powerpc64-ps3-elf/lib/libm.a(lib_a-sf_floor.o)
 *fill*         0x0000000000021654        0x4 60000000
 .text.floorf   0x0000000000021658      0x120 /usr/local/ps3dev/ppu/lib/gcc/powerpc64-ps3-elf/7.2.0/../../../../powerpc64-ps3-elf/lib/libm.a(lib_a-sf_floor.o)
                0x0000000000021658                .floorf
 .text          0x0000000000021778        0x0 /usr/local/ps3dev/ppu/lib/gcc/powerpc64-ps3-elf/7.2.0/../../../../powerpc64-ps3-elf/lib/libm.a(lib_a-sf_fpclassify.o)
 .text.__fpclassifyf
                0x0000000000021778       0x68 /usr/local/ps3dev/ppu/lib/gcc/powerpc64-ps3-elf/7.2.0/../../../../powerpc64-ps3-elf/lib/libm.a(lib_a-sf_fpclassify.o)
                0x0000000000021778                .__fpclassifyf
 .text          0x00000000000217e0        0x0 /usr/local/ps3dev/ppu/lib/gcc/powerpc64-ps3-elf/7.2.0/../../../../powerpc64-ps3-elf/lib/libm.a(lib_a-sf_scalbn.o)
 .text.scalbnf  0x00000000000217e0      0x194 /usr/local/ps3dev/ppu/lib/gcc/powerpc64-ps3-elf/7.2.0/../../../../powerpc64-ps3-elf/lib/libm.a(lib_a-sf_scalbn.o)
                0x00000000000217e0                .scalbnf
 .text          0x0000000000021974        0x0 /usr/local/ps3dev/ppu/lib/gcc/powerpc64-ps3-elf/7.2.0/../../../../powerpc64-ps3-elf/lib/libm.a(lib_a-sf_copysign.o)
 *fill*         0x0000000000021974        0x4 60000000
 .text.copysignf
                0x0000000000021978       0x2c /usr/local/ps3dev/ppu/lib/gcc/powerpc64-ps3-elf/7.2.0/../../../../powerpc64-ps3-elf/lib/libm.a(lib_a-sf_copysign.o)
                0x0000000000021978                .copysignf
 .text          0x00000000000219a4        0x0 /usr/local/ps3dev/ppu/lib/gcc/powerpc64-ps3-elf/7.2.0/../../../../powerpc64-ps3-elf/lib/libsysbase.a(syscalls.o)
 .text          0x00000000000219a4        0x0 /usr/local/ps3dev/ppu/lib/gcc/powerpc64-ps3-elf/7.2.0/../../../../powerpc64-ps3-elf/lib/libsysbase.a(sleep.o)
 *fill*         0x00000000000219a4        0x4 60000000
 .text.usleep   0x00000000000219a8       0x80 /usr/local/ps3dev/ppu/lib/gcc/powerpc64-ps3-elf/7.2.0/../../../../powerpc64-ps3-elf/lib/libsysbase.a(sleep.o)
                0x00000000000219a8                .usleep
 .text.sleep    0x0000000000021a28       0x84 /usr/local/ps3dev/ppu/lib/gcc/powerpc64-ps3-elf/7.2.0/../../../../powerpc64-ps3-elf/lib/libsysbase.a(sleep.o)
                0x0000000000021a28                .sleep
 .text          0x0000000000021aac        0x0 /usr/local/ps3dev/ppu/lib/gcc/powerpc64-ps3-elf/7.2.0/../../../../powerpc64-ps3-elf/lib/libc.a(lib_a-atexit.o)
 *fill*         0x0000000000021aac        0x4 60000000
 .text.atexit   0x0000000000021ab0       0x40 /usr/local/ps3dev/ppu/lib/gcc/powerpc64-ps3-elf/7.2.0/../../../../powerpc64-ps3-elf/lib/libc.a(lib_a-atexit.o)
                0x0000000000021ab0                .atexit
 .text          0x0000000000021af0        0x0 /usr/local/ps3dev/ppu/lib/gcc/powerpc64-ps3-elf/7.2.0/../../../../powerpc64-ps3-elf/lib/libc.a(lib_a-calloc.o)
 .text.calloc   0x0000000000021af0       0x58 /usr/local/ps3dev/ppu/lib/gcc/powerpc64-ps3-elf/7.2.0/../../../../powerpc64-ps3-elf/lib/libc.a(lib_a-calloc.o)
                0x0000000000021af0                .calloc
 .text          0x0000000000021b48        0x0 /usr/local/ps3dev/ppu/lib/gcc/powerpc64-ps3-elf/7.2.0/../../../../powerpc64-ps3-elf/lib/libc.a(lib_a-callocr.o)
 .text._calloc_r
                0x0000000000021b48       0xdc /usr/local/ps3dev/ppu/lib/gcc/powerpc64-ps3-elf/7.2.0/../../../../powerpc64-ps3-elf/lib/libc.a(lib_a-callocr.o)
                0x0000000000021b48                ._calloc_r
 .text          0x0000000000021c24        0x0 /usr/local/ps3dev/ppu/lib/gcc/powerpc64-ps3-elf/7.2.0/../../../../powerpc64-ps3-elf/lib/libc.a(lib_a-errno.o)
 *fill*         0x0000000000021c24        0x4 60000000
 .text.__errno  0x0000000000021c28       0x30 /usr/local/ps3dev/ppu/lib/gcc/powerpc64-ps3-elf/7.2.0/../../../../powerpc64-ps3-elf/lib/libc.a(lib_a-errno.o)
                0x0000000000021c28                .__errno
 .text          0x0000000000021c58        0x0 /usr/local/ps3dev/ppu/lib/gcc/powerpc64-ps3-elf/7.2.0/../../../../powerpc64-ps3-elf/lib/libc.a(lib_a-exit.o)
 .text.exit     0x0000000000021c58       0x68 /usr/local/ps3dev/ppu/lib/gcc/powerpc64-ps3-elf/7.2.0/../../../../powerpc64-ps3-elf/lib/libc.a(lib_a-exit.o)
                0x0000000000021c58                .exit
 .text          0x0000000000021cc0        0x0 /usr/local/ps3dev/ppu/lib/gcc/powerpc64-ps3-elf/7.2.0/../../../../powerpc64-ps3-elf/lib/libc.a(lib_a-getreent.o)
 .text.__getreent
                0x0000000000021cc0      0x1b4 /usr/local/ps3dev/ppu/lib/gcc/powerpc64-ps3-elf/7.2.0/../../../../powerpc64-ps3-elf/lib/libc.a(lib_a-getreent.o)
                0x0000000000021cc0                .__getreent
 .text          0x0000000000021e74        0x0 /usr/local/ps3dev/ppu/lib/gcc/powerpc64-ps3-elf/7.2.0/../../../../powerpc64-ps3-elf/lib/libc.a(lib_a-impure.o)
 .text          0x0000000000021e74        0x0 /usr/local/ps3dev/ppu/lib/gcc/powerpc64-ps3-elf/7.2.0/../../../../powerpc64-ps3-elf/lib/libc.a(lib_a-malign.o)
 *fill*         0x0000000000021e74        0x4 60000000
 .text.memalign
                0x0000000000021e78       0x58 /usr/local/ps3dev/ppu/lib/gcc/powerpc64-ps3-elf/7.2.0/../../../../powerpc64-ps3-elf/lib/libc.a(lib_a-malign.o)
                0x0000000000021e78                .memalign
 .text          0x0000000000021ed0        0x0 /usr/local/ps3dev/ppu/lib/gcc/powerpc64-ps3-elf/7.2.0/../../../../powerpc64-ps3-elf/lib/libc.a(lib_a-malignr.o)
 .text._memalign_r
                0x0000000000021ed0      0x224 /usr/local/ps3dev/ppu/lib/gcc/powerpc64-ps3-elf/7.2.0/../../../../powerpc64-ps3-elf/lib/libc.a(lib_a-malignr.o)
                0x0000000000021ed0                ._memalign_r
 .text          0x00000000000220f4        0x0 /usr/local/ps3dev/ppu/lib/gcc/powerpc64-ps3-elf/7.2.0/../../../../powerpc64-ps3-elf/lib/libc.a(lib_a-malloc.o)
 *fill*         0x00000000000220f4        0x4 60000000
 .text.malloc   0x00000000000220f8       0x48 /usr/local/ps3dev/ppu/lib/gcc/powerpc64-ps3-elf/7.2.0/../../../../powerpc64-ps3-elf/lib/libc.a(lib_a-malloc.o)
                0x00000000000220f8                .malloc
 .text.free     0x0000000000022140       0x48 /usr/local/ps3dev/ppu/lib/gcc/powerpc64-ps3-elf/7.2.0/../../../../powerpc64-ps3-elf/lib/libc.a(lib_a-malloc.o)
                0x0000000000022140                .free
 .text          0x0000000000022188        0x0 /usr/local/ps3dev/ppu/lib/gcc/powerpc64-ps3-elf/7.2.0/../../../../powerpc64-ps3-elf/lib/libc.a(lib_a-mallocr.o)
 .text._malloc_r
                0x0000000000022188      0x9e4 /usr/local/ps3dev/ppu/lib/gcc/powerpc64-ps3-elf/7.2.0/../../../../powerpc64-ps3-elf/lib/libc.a(lib_a-mallocr.o)
                0x0000000000022188                ._malloc_r
 .text          0x0000000000022b6c        0x0 /usr/local/ps3dev/ppu/lib/gcc/powerpc64-ps3-elf/7.2.0/../../../../powerpc64-ps3-elf/lib/libc.a(lib_a-memcpy.o)
 *fill*         0x0000000000022b6c        0x4 60000000
 .text.memcpy   0x0000000000022b70      0x11c /usr/local/ps3dev/ppu/lib/gcc/powerpc64-ps3-elf/7.2.0/../../../../powerpc64-ps3-elf/lib/libc.a(lib_a-memcpy.o)
                0x0000000000022b70                .memcpy
 .text          0x0000000000022c8c        0x0 /usr/local/ps3dev/ppu/lib/gcc/powerpc64-ps3-elf/7.2.0/../../../../powerpc64-ps3-elf/lib/libc.a(lib_a-memset.o)
 *fill*         0x0000000000022c8c        0x4 60000000
 .text.memset   0x0000000000022c90      0x138 /usr/local/ps3dev/ppu/lib/gcc/powerpc64-ps3-elf/7.2.0/../../../../powerpc64-ps3-elf/lib/libc.a(lib_a-memset.o)
                0x0000000000022c90                .memset
 .text          0x0000000000022dc8        0x0 /usr/local/ps3dev/ppu/lib/gcc/powerpc64-ps3-elf/7.2.0/../../../../powerpc64-ps3-elf/lib/libc.a(lib_a-mlock.o)
 .text.__malloc_lock
                0x0000000000022dc8       0x34 /usr/local/ps3dev/ppu/lib/gcc/powerpc64-ps3-elf/7.2.0/../../../../powerpc64-ps3-elf/lib/libc.a(lib_a-mlock.o)
                0x0000000000022dc8                .__malloc_lock
 *fill*         0x0000000000022dfc        0x4 60000000
 .text.__malloc_unlock
                0x0000000000022e00       0x34 /usr/local/ps3dev/ppu/lib/gcc/powerpc64-ps3-elf/7.2.0/../../../../powerpc64-ps3-elf/lib/libc.a(lib_a-mlock.o)
                0x0000000000022e00                .__malloc_unlock
 .text          0x0000000000022e34        0x0 /usr/local/ps3dev/ppu/lib/gcc/powerpc64-ps3-elf/7.2.0/../../../../powerpc64-ps3-elf/lib/libc.a(lib_a-puts.o)
 *fill*         0x0000000000022e34        0x4 60000000
 .text._puts_r  0x0000000000022e38       0xfc /usr/local/ps3dev/ppu/lib/gcc/powerpc64-ps3-elf/7.2.0/../../../../powerpc64-ps3-elf/lib/libc.a(lib_a-puts.o)
                0x0000000000022e38                ._puts_r
 *fill*         0x0000000000022f34        0x4 60000000
 .text.puts     0x0000000000022f38       0x40 /usr/local/ps3dev/ppu/lib/gcc/powerpc64-ps3-elf/7.2.0/../../../../powerpc64-ps3-elf/lib/libc.a(lib_a-puts.o)
                0x0000000000022f38                .puts
 .text          0x0000000000022f78        0x0 /usr/local/ps3dev/ppu/lib/gcc/powerpc64-ps3-elf/7.2.0/../../../../powerpc64-ps3-elf/lib/libc.a(lib_a-sscanf.o)
 .text.sscanf   0x0000000000022f78       0xa8 /usr/local/ps3dev/ppu/lib/gcc/powerpc64-ps3-elf/7.2.0/../../../../powerpc64-ps3-elf/lib/libc.a(lib_a-sscanf.o)
                0x0000000000022f78                .sscanf
 .text._sscanf_r
                0x0000000000023020       0xa8 /usr/local/ps3dev/ppu/lib/gcc/powerpc64-ps3-elf/7.2.0/../../../../powerpc64-ps3-elf/lib/libc.a(lib_a-sscanf.o)
                0x0000000000023020                ._sscanf_r
 .text          0x00000000000230c8        0x0 /usr/local/ps3dev/ppu/lib/gcc/powerpc64-ps3-elf/7.2.0/../../../../powerpc64-ps3-elf/lib/libc.a(lib_a-stdio.o)
 .text.__sread  0x00000000000230c8       0x7c /usr/local/ps3dev/ppu/lib/gcc/powerpc64-ps3-elf/7.2.0/../../../../powerpc64-ps3-elf/lib/libc.a(lib_a-stdio.o)
                0x00000000000230c8                .__sread
 *fill*         0x0000000000023144        0x4 60000000
 .text.__seofread
                0x0000000000023148       0x14 /usr/local/ps3dev/ppu/lib/gcc/powerpc64-ps3-elf/7.2.0/../../../../powerpc64-ps3-elf/lib/libc.a(lib_a-stdio.o)
                0x0000000000023148                .__seofread
 *fill*         0x000000000002315c        0x4 60000000
 .text.__swrite
                0x0000000000023160       0xb0 /usr/local/ps3dev/ppu/lib/gcc/powerpc64-ps3-elf/7.2.0/../../../../powerpc64-ps3-elf/lib/libc.a(lib_a-stdio.o)
                0x0000000000023160                .__swrite
 .text.__sseek  0x0000000000023210       0x78 /usr/local/ps3dev/ppu/lib/gcc/powerpc64-ps3-elf/7.2.0/../../../../powerpc64-ps3-elf/lib/libc.a(lib_a-stdio.o)
                0x0000000000023210                .__sseek
 .text.__sclose
                0x0000000000023288       0x38 /usr/local/ps3dev/ppu/lib/gcc/powerpc64-ps3-elf/7.2.0/../../../../powerpc64-ps3-elf/lib/libc.a(lib_a-stdio.o)
                0x0000000000023288                .__sclose
 .text          0x00000000000232c0        0x0 /usr/local/ps3dev/ppu/lib/gcc/powerpc64-ps3-elf/7.2.0/../../../../powerpc64-ps3-elf/lib/libc.a(lib_a-strcasecmp.o)
 .text.strcasecmp
                0x00000000000232c0       0x8c /usr/local/ps3dev/ppu/lib/gcc/powerpc64-ps3-elf/7.2.0/../../../../powerpc64-ps3-elf/lib/libc.a(lib_a-strcasecmp.o)
                0x00000000000232c0                .strcasecmp
 .text          0x000000000002334c        0x0 /usr/local/ps3dev/ppu/lib/gcc/powerpc64-ps3-elf/7.2.0/../../../../powerpc64-ps3-elf/lib/libc.a(lib_a-strlen.o)
 *fill*         0x000000000002334c        0x4 60000000
 .text.strlen   0x0000000000023350       0xc4 /usr/local/ps3dev/ppu/lib/gcc/powerpc64-ps3-elf/7.2.0/../../../../powerpc64-ps3-elf/lib/libc.a(lib_a-strlen.o)
                0x0000000000023350                .strlen
 .text          0x0000000000023414        0x0 /usr/local/ps3dev/ppu/lib/gcc/powerpc64-ps3-elf/7.2.0/../../../../powerpc64-ps3-elf/lib/libc.a(lib_a-strncpy.o)
 *fill*         0x0000000000023414        0x4 60000000
 .text.strncpy  0x0000000000023418      0x118 /usr/local/ps3dev/ppu/lib/gcc/powerpc64-ps3-elf/7.2.0/../../../../powerpc64-ps3-elf/lib/libc.a(lib_a-strncpy.o)
                0x0000000000023418                .strncpy
 .text          0x0000000000023530        0x0 /usr/local/ps3dev/ppu/lib/gcc/powerpc64-ps3-elf/7.2.0/../../../../powerpc64-ps3-elf/lib/libc.a(lib_a-svfscanf.o)
 .text.__ssvfscanf_r
                0x0000000000023530     0x1864 /usr/local/ps3dev/ppu/lib/gcc/powerpc64-ps3-elf/7.2.0/../../../../powerpc64-ps3-elf/lib/libc.a(lib_a-svfscanf.o)
                0x0000000000023530                .__ssvfscanf_r
 .text          0x0000000000024d94        0x0 /usr/local/ps3dev/ppu/lib/gcc/powerpc64-ps3-elf/7.2.0/../../../../powerpc64-ps3-elf/lib/libc.a(lib_a-vsnprintf.o)
 *fill*         0x0000000000024d94        0x4 60000000
 .text._vsnprintf_r
                0x0000000000024d98      0x104 /usr/local/ps3dev/ppu/lib/gcc/powerpc64-ps3-elf/7.2.0/../../../../powerpc64-ps3-elf/lib/libc.a(lib_a-vsnprintf.o)
                0x0000000000024d98                ._vsnprintf_r
 *fill*         0x0000000000024e9c        0x4 60000000
 .text.vsnprintf
                0x0000000000024ea0       0x70 /usr/local/ps3dev/ppu/lib/gcc/powerpc64-ps3-elf/7.2.0/../../../../powerpc64-ps3-elf/lib/libc.a(lib_a-vsnprintf.o)
                0x0000000000024ea0                .vsnprintf
 .text          0x0000000000024f10        0x0 /usr/local/ps3dev/ppu/lib/gcc/powerpc64-ps3-elf/7.2.0/../../../../powerpc64-ps3-elf/lib/libc.a(lib_a-vsprintf.o)
 .text._vsprintf_r
                0x0000000000024f10       0x70 /usr/local/ps3dev/ppu/lib/gcc/powerpc64-ps3-elf/7.2.0/../../../../powerpc64-ps3-elf/lib/libc.a(lib_a-vsprintf.o)
                0x0000000000024f10                ._vsprintf_r
 .text.vsprintf
                0x0000000000024f80       0x60 /usr/local/ps3dev/ppu/lib/gcc/powerpc64-ps3-elf/7.2.0/../../../../powerpc64-ps3-elf/lib/libc.a(lib_a-vsprintf.o)
                0x0000000000024f80                .vsprintf
 .text          0x0000000000024fe0        0x0 /usr/local/ps3dev/ppu/lib/gcc/powerpc64-ps3-elf/7.2.0/../../../../powerpc64-ps3-elf/lib/libc.a(lib_a-__atexit.o)
 .text.__register_exitproc
                0x0000000000024fe0      0x184 /usr/local/ps3dev/ppu/lib/gcc/powerpc64-ps3-elf/7.2.0/../../../../powerpc64-ps3-elf/lib/libc.a(lib_a-__atexit.o)
                0x0000000000024fe0                .__register_exitproc
 .text          0x0000000000025164        0x0 /usr/local/ps3dev/ppu/lib/gcc/powerpc64-ps3-elf/7.2.0/../../../../powerpc64-ps3-elf/lib/libc.a(lib_a-__call_atexit.o)
 *fill*         0x0000000000025164        0x4 60000000
 .text.__call_exitprocs
                0x0000000000025168      0x24c /usr/local/ps3dev/ppu/lib/gcc/powerpc64-ps3-elf/7.2.0/../../../../powerpc64-ps3-elf/lib/libc.a(lib_a-__call_atexit.o)
                0x0000000000025168                .__call_exitprocs
 .text          0x00000000000253b4        0x0 /usr/local/ps3dev/ppu/lib/gcc/powerpc64-ps3-elf/7.2.0/../../../../powerpc64-ps3-elf/lib/libc.a(lib_a-ctype_.o)
 .text          0x00000000000253b4        0x0 /usr/local/ps3dev/ppu/lib/gcc/powerpc64-ps3-elf/7.2.0/../../../../powerpc64-ps3-elf/lib/libc.a(lib_a-freer.o)
 *fill*         0x00000000000253b4        0x4 60000000
 .text._malloc_trim_r
                0x00000000000253b8      0x15c /usr/local/ps3dev/ppu/lib/gcc/powerpc64-ps3-elf/7.2.0/../../../../powerpc64-ps3-elf/lib/libc.a(lib_a-freer.o)
                0x00000000000253b8                ._malloc_trim_r
 *fill*         0x0000000000025514        0x4 60000000
 .text._free_r  0x0000000000025518      0x3b0 /usr/local/ps3dev/ppu/lib/gcc/powerpc64-ps3-elf/7.2.0/../../../../powerpc64-ps3-elf/lib/libc.a(lib_a-freer.o)
                0x0000000000025518                ._free_r
 .text          0x00000000000258c8        0x0 /usr/local/ps3dev/ppu/lib/gcc/powerpc64-ps3-elf/7.2.0/../../../../powerpc64-ps3-elf/lib/libc.a(lib_a-fvwrite.o)
 .text.__sfvwrite_r
                0x00000000000258c8      0x688 /usr/local/ps3dev/ppu/lib/gcc/powerpc64-ps3-elf/7.2.0/../../../../powerpc64-ps3-elf/lib/libc.a(lib_a-fvwrite.o)
                0x00000000000258c8                .__sfvwrite_r
 .text          0x0000000000025f50        0x0 /usr/local/ps3dev/ppu/lib/gcc/powerpc64-ps3-elf/7.2.0/../../../../powerpc64-ps3-elf/lib/libc.a(lib_a-iswspace.o)
 .text.iswspace
                0x0000000000025f50       0x3c /usr/local/ps3dev/ppu/lib/gcc/powerpc64-ps3-elf/7.2.0/../../../../powerpc64-ps3-elf/lib/libc.a(lib_a-iswspace.o)
                0x0000000000025f50                .iswspace
 .text          0x0000000000025f8c        0x0 /usr/local/ps3dev/ppu/lib/gcc/powerpc64-ps3-elf/7.2.0/../../../../powerpc64-ps3-elf/lib/libc.a(lib_a-locale.o)
 *fill*         0x0000000000025f8c        0x4 60000000
 .text._setlocale_r
                0x0000000000025f90       0xb4 /usr/local/ps3dev/ppu/lib/gcc/powerpc64-ps3-elf/7.2.0/../../../../powerpc64-ps3-elf/lib/libc.a(lib_a-locale.o)
                0x0000000000025f90                ._setlocale_r
 *fill*         0x0000000000026044        0x4 60000000
 .text.__locale_charset
                0x0000000000026048       0x14 /usr/local/ps3dev/ppu/lib/gcc/powerpc64-ps3-elf/7.2.0/../../../../powerpc64-ps3-elf/lib/libc.a(lib_a-locale.o)
                0x0000000000026048                .__locale_charset
 *fill*         0x000000000002605c        0x4 60000000
 .text.__locale_mb_cur_max
                0x0000000000026060       0x1c /usr/local/ps3dev/ppu/lib/gcc/powerpc64-ps3-elf/7.2.0/../../../../powerpc64-ps3-elf/lib/libc.a(lib_a-locale.o)
                0x0000000000026060                .__locale_mb_cur_max
 *fill*         0x000000000002607c        0x4 60000000
 .text.__locale_msgcharset
                0x0000000000026080       0x14 /usr/local/ps3dev/ppu/lib/gcc/powerpc64-ps3-elf/7.2.0/../../../../powerpc64-ps3-elf/lib/libc.a(lib_a-locale.o)
                0x0000000000026080                .__locale_msgcharset
 *fill*         0x0000000000026094        0x4 60000000
 .text.__locale_cjk_lang
                0x0000000000026098       0x14 /usr/local/ps3dev/ppu/lib/gcc/powerpc64-ps3-elf/7.2.0/../../../../powerpc64-ps3-elf/lib/libc.a(lib_a-locale.o)
                0x0000000000026098                .__locale_cjk_lang
 *fill*         0x00000000000260ac        0x4 60000000
 .text._localeconv_r
                0x00000000000260b0       0x14 /usr/local/ps3dev/ppu/lib/gcc/powerpc64-ps3-elf/7.2.0/../../../../powerpc64-ps3-elf/lib/libc.a(lib_a-locale.o)
                0x00000000000260b0                ._localeconv_r
 *fill*         0x00000000000260c4        0x4 60000000
 .text.setlocale
                0x00000000000260c8       0x50 /usr/local/ps3dev/ppu/lib/gcc/powerpc64-ps3-elf/7.2.0/../../../../powerpc64-ps3-elf/lib/libc.a(lib_a-locale.o)
                0x00000000000260c8                .setlocale
 .text.localeconv
                0x0000000000026118       0x34 /usr/local/ps3dev/ppu/lib/gcc/powerpc64-ps3-elf/7.2.0/../../../../powerpc64-ps3-elf/lib/libc.a(lib_a-locale.o)
                0x0000000000026118                .localeconv
 .text          0x000000000002614c        0x0 /usr/local/ps3dev/ppu/lib/gcc/powerpc64-ps3-elf/7.2.0/../../../../powerpc64-ps3-elf/lib/libc.a(lib_a-lock_recursive.o)
 *fill*         0x000000000002614c        0x4 60000000
 .text.__libc_lock_init_recursive
                0x0000000000026150       0x34 /usr/local/ps3dev/ppu/lib/gcc/powerpc64-ps3-elf/7.2.0/../../../../powerpc64-ps3-elf/lib/libc.a(lib_a-lock_recursive.o)
                0x0000000000026150                .__libc_lock_init_recursive
 *fill*         0x0000000000026184        0x4 60000000
 .text.__libc_lock_close_recursive
                0x0000000000026188       0x30 /usr/local/ps3dev/ppu/lib/gcc/powerpc64-ps3-elf/7.2.0/../../../../powerpc64-ps3-elf/lib/libc.a(lib_a-lock_recursive.o)
                0x0000000000026188                .__libc_lock_close_recursive
 .text.__libc_lock_acquire_recursive
                0x00000000000261b8       0x58 /usr/local/ps3dev/ppu/lib/gcc/powerpc64-ps3-elf/7.2.0/../../../../powerpc64-ps3-elf/lib/libc.a(lib_a-lock_recursive.o)
                0x00000000000261b8                .__libc_lock_acquire_recursive
 .text.__libc_lock_try_acquire_recursive
                0x0000000000026210       0x54 /usr/local/ps3dev/ppu/lib/gcc/powerpc64-ps3-elf/7.2.0/../../../../powerpc64-ps3-elf/lib/libc.a(lib_a-lock_recursive.o)
                0x0000000000026210                .__libc_lock_try_acquire_recursive
 *fill*         0x0000000000026264        0x4 60000000
 .text.__libc_lock_release_recursive
                0x0000000000026268       0x54 /usr/local/ps3dev/ppu/lib/gcc/powerpc64-ps3-elf/7.2.0/../../../../powerpc64-ps3-elf/lib/libc.a(lib_a-lock_recursive.o)
                0x0000000000026268                .__libc_lock_release_recursive
 .text          0x00000000000262bc        0x0 /usr/local/ps3dev/ppu/lib/gcc/powerpc64-ps3-elf/7.2.0/../../../../powerpc64-ps3-elf/lib/libc.a(lib_a-mbrtowc.o)
 *fill*         0x00000000000262bc        0x4 60000000
 .text._mbrtowc_r
                0x00000000000262c0      0x128 /usr/local/ps3dev/ppu/lib/gcc/powerpc64-ps3-elf/7.2.0/../../../../powerpc64-ps3-elf/lib/libc.a(lib_a-mbrtowc.o)
                0x00000000000262c0                ._mbrtowc_r
 .text.mbrtowc  0x00000000000263e8      0x164 /usr/local/ps3dev/ppu/lib/gcc/powerpc64-ps3-elf/7.2.0/../../../../powerpc64-ps3-elf/lib/libc.a(lib_a-mbrtowc.o)
                0x00000000000263e8                .mbrtowc
 .text          0x000000000002654c        0x0 /usr/local/ps3dev/ppu/lib/gcc/powerpc64-ps3-elf/7.2.0/../../../../powerpc64-ps3-elf/lib/libc.a(lib_a-mbtowc_r.o)
 *fill*         0x000000000002654c        0x4 60000000
 .text.__ascii_mbtowc
                0x0000000000026550       0x64 /usr/local/ps3dev/ppu/lib/gcc/powerpc64-ps3-elf/7.2.0/../../../../powerpc64-ps3-elf/lib/libc.a(lib_a-mbtowc_r.o)
                0x0000000000026550                .__ascii_mbtowc
 *fill*         0x00000000000265b4        0x4 60000000
 .text._mbtowc_r
                0x00000000000265b8       0x98 /usr/local/ps3dev/ppu/lib/gcc/powerpc64-ps3-elf/7.2.0/../../../../powerpc64-ps3-elf/lib/libc.a(lib_a-mbtowc_r.o)
                0x00000000000265b8                ._mbtowc_r
 .text          0x0000000000026650        0x0 /usr/local/ps3dev/ppu/lib/gcc/powerpc64-ps3-elf/7.2.0/../../../../powerpc64-ps3-elf/lib/libc.a(lib_a-memchr.o)
 .text.memchr   0x0000000000026650      0x130 /usr/local/ps3dev/ppu/lib/gcc/powerpc64-ps3-elf/7.2.0/../../../../powerpc64-ps3-elf/lib/libc.a(lib_a-memchr.o)
                0x0000000000026650                .memchr
 .text          0x0000000000026780        0x0 /usr/local/ps3dev/ppu/lib/gcc/powerpc64-ps3-elf/7.2.0/../../../../powerpc64-ps3-elf/lib/libc.a(lib_a-memmove.o)
 .text.memmove  0x0000000000026780      0x154 /usr/local/ps3dev/ppu/lib/gcc/powerpc64-ps3-elf/7.2.0/../../../../powerpc64-ps3-elf/lib/libc.a(lib_a-memmove.o)
                0x0000000000026780                .memmove
 .text          0x00000000000268d4        0x0 /usr/local/ps3dev/ppu/lib/gcc/powerpc64-ps3-elf/7.2.0/../../../../powerpc64-ps3-elf/lib/libc.a(lib_a-reallocr.o)
 *fill*         0x00000000000268d4        0x4 60000000
 .text._realloc_r
                0x00000000000268d8      0x6c4 /usr/local/ps3dev/ppu/lib/gcc/powerpc64-ps3-elf/7.2.0/../../../../powerpc64-ps3-elf/lib/libc.a(lib_a-reallocr.o)
                0x00000000000268d8                ._realloc_r
 .text          0x0000000000026f9c        0x0 /usr/local/ps3dev/ppu/lib/gcc/powerpc64-ps3-elf/7.2.0/../../../../powerpc64-ps3-elf/lib/libc.a(lib_a-sccl.o)
 *fill*         0x0000000000026f9c        0x4 60000000
 .text.__sccl   0x0000000000026fa0      0x120 /usr/local/ps3dev/ppu/lib/gcc/powerpc64-ps3-elf/7.2.0/../../../../powerpc64-ps3-elf/lib/libc.a(lib_a-sccl.o)
                0x0000000000026fa0                .__sccl
 .text          0x00000000000270c0        0x0 /usr/local/ps3dev/ppu/lib/gcc/powerpc64-ps3-elf/7.2.0/../../../../powerpc64-ps3-elf/lib/libc.a(lib_a-sf_nan.o)
 .text.nanf     0x00000000000270c0       0x18 /usr/local/ps3dev/ppu/lib/gcc/powerpc64-ps3-elf/7.2.0/../../../../powerpc64-ps3-elf/lib/libc.a(lib_a-sf_nan.o)
                0x00000000000270c0                .nanf
 .text          0x00000000000270d8        0x0 /usr/local/ps3dev/ppu/lib/gcc/powerpc64-ps3-elf/7.2.0/../../../../powerpc64-ps3-elf/lib/libc.a(lib_a-sprintf.o)
 .text._sprintf_r
                0x00000000000270d8       0x84 /usr/local/ps3dev/ppu/lib/gcc/powerpc64-ps3-elf/7.2.0/../../../../powerpc64-ps3-elf/lib/libc.a(lib_a-sprintf.o)
                0x00000000000270d8                ._sprintf_r
 *fill*         0x000000000002715c        0x4 60000000
 .text.sprintf  0x0000000000027160       0xa0 /usr/local/ps3dev/ppu/lib/gcc/powerpc64-ps3-elf/7.2.0/../../../../powerpc64-ps3-elf/lib/libc.a(lib_a-sprintf.o)
                0x0000000000027160                .sprintf
 .text          0x0000000000027200        0x0 /usr/local/ps3dev/ppu/lib/gcc/powerpc64-ps3-elf/7.2.0/../../../../powerpc64-ps3-elf/lib/libc.a(lib_a-strcmp.o)
 .text.strcmp   0x0000000000027200       0xf4 /usr/local/ps3dev/ppu/lib/gcc/powerpc64-ps3-elf/7.2.0/../../../../powerpc64-ps3-elf/lib/libc.a(lib_a-strcmp.o)
                0x0000000000027200                .strcmp
 .text          0x00000000000272f4        0x0 /usr/local/ps3dev/ppu/lib/gcc/powerpc64-ps3-elf/7.2.0/../../../../powerpc64-ps3-elf/lib/libc.a(lib_a-strtod.o)
 *fill*         0x00000000000272f4        0x4 60000000
 .text._strtod_r
                0x00000000000272f8     0x1630 /usr/local/ps3dev/ppu/lib/gcc/powerpc64-ps3-elf/7.2.0/../../../../powerpc64-ps3-elf/lib/libc.a(lib_a-strtod.o)
                0x00000000000272f8                ._strtod_r
 .text.strtod   0x0000000000028928       0x50 /usr/local/ps3dev/ppu/lib/gcc/powerpc64-ps3-elf/7.2.0/../../../../powerpc64-ps3-elf/lib/libc.a(lib_a-strtod.o)
                0x0000000000028928                .strtod
 .text.strtof   0x0000000000028978       0x98 /usr/local/ps3dev/ppu/lib/gcc/powerpc64-ps3-elf/7.2.0/../../../../powerpc64-ps3-elf/lib/libc.a(lib_a-strtod.o)
                0x0000000000028978                .strtof
 .text          0x0000000000028a10        0x0 /usr/local/ps3dev/ppu/lib/gcc/powerpc64-ps3-elf/7.2.0/../../../../powerpc64-ps3-elf/lib/libc.a(lib_a-strtol.o)
 .text._strtol_r
                0x0000000000028a10      0x264 /usr/local/ps3dev/ppu/lib/gcc/powerpc64-ps3-elf/7.2.0/../../../../powerpc64-ps3-elf/lib/libc.a(lib_a-strtol.o)
                0x0000000000028a10                ._strtol_r
 *fill*         0x0000000000028c74        0x4 60000000
 .text.strtol   0x0000000000028c78       0x60 /usr/local/ps3dev/ppu/lib/gcc/powerpc64-ps3-elf/7.2.0/../../../../powerpc64-ps3-elf/lib/libc.a(lib_a-strtol.o)
                0x0000000000028c78                .strtol
 .text          0x0000000000028cd8        0x0 /usr/local/ps3dev/ppu/lib/gcc/powerpc64-ps3-elf/7.2.0/../../../../powerpc64-ps3-elf/lib/libc.a(lib_a-strtoll_r.o)
 .text._strtoll_r
                0x0000000000028cd8      0x264 /usr/local/ps3dev/ppu/lib/gcc/powerpc64-ps3-elf/7.2.0/../../../../powerpc64-ps3-elf/lib/libc.a(lib_a-strtoll_r.o)
                0x0000000000028cd8                ._strtoll_r
 .text          0x0000000000028f3c        0x0 /usr/local/ps3dev/ppu/lib/gcc/powerpc64-ps3-elf/7.2.0/../../../../powerpc64-ps3-elf/lib/libc.a(lib_a-strtoul.o)
 *fill*         0x0000000000028f3c        0x4 60000000
 .text._strtoul_r
                0x0000000000028f40      0x268 /usr/local/ps3dev/ppu/lib/gcc/powerpc64-ps3-elf/7.2.0/../../../../powerpc64-ps3-elf/lib/libc.a(lib_a-strtoul.o)
                0x0000000000028f40                ._strtoul_r
 .text.strtoul  0x00000000000291a8       0x60 /usr/local/ps3dev/ppu/lib/gcc/powerpc64-ps3-elf/7.2.0/../../../../powerpc64-ps3-elf/lib/libc.a(lib_a-strtoul.o)
                0x00000000000291a8                .strtoul
 .text          0x0000000000029208        0x0 /usr/local/ps3dev/ppu/lib/gcc/powerpc64-ps3-elf/7.2.0/../../../../powerpc64-ps3-elf/lib/libc.a(lib_a-strtoull_r.o)
 .text._strtoull_r
                0x0000000000029208      0x268 /usr/local/ps3dev/ppu/lib/gcc/powerpc64-ps3-elf/7.2.0/../../../../powerpc64-ps3-elf/lib/libc.a(lib_a-strtoull_r.o)
                0x0000000000029208                ._strtoull_r
 .text          0x0000000000029470        0x0 /usr/local/ps3dev/ppu/lib/gcc/powerpc64-ps3-elf/7.2.0/../../../../powerpc64-ps3-elf/lib/libc.a(lib_a-svfiscanf.o)
 .text._sungetc_r
                0x0000000000029470      0x154 /usr/local/ps3dev/ppu/lib/gcc/powerpc64-ps3-elf/7.2.0/../../../../powerpc64-ps3-elf/lib/libc.a(lib_a-svfiscanf.o)
                0x0000000000029470                ._sungetc_r
 *fill*         0x00000000000295c4        0x4 60000000
 .text.__ssrefill_r
                0x00000000000295c8       0xa0 /usr/local/ps3dev/ppu/lib/gcc/powerpc64-ps3-elf/7.2.0/../../../../powerpc64-ps3-elf/lib/libc.a(lib_a-svfiscanf.o)
                0x00000000000295c8                .__ssrefill_r
 .text._sfread_r
                0x0000000000029668      0x130 /usr/local/ps3dev/ppu/lib/gcc/powerpc64-ps3-elf/7.2.0/../../../../powerpc64-ps3-elf/lib/libc.a(lib_a-svfiscanf.o)
                0x0000000000029668                ._sfread_r
 .text.__ssvfiscanf_r
                0x0000000000029798     0x118c /usr/local/ps3dev/ppu/lib/gcc/powerpc64-ps3-elf/7.2.0/../../../../powerpc64-ps3-elf/lib/libc.a(lib_a-svfiscanf.o)
                0x0000000000029798                .__ssvfiscanf_r
 .text          0x000000000002a924        0x0 /usr/local/ps3dev/ppu/lib/gcc/powerpc64-ps3-elf/7.2.0/../../../../powerpc64-ps3-elf/lib/libc.a(lib_a-svfprintf.o)
 *fill*         0x000000000002a924        0x4 60000000
 .text._svfprintf_r
                0x000000000002a928     0x21c4 /usr/local/ps3dev/ppu/lib/gcc/powerpc64-ps3-elf/7.2.0/../../../../powerpc64-ps3-elf/lib/libc.a(lib_a-svfprintf.o)
                0x000000000002a928                ._svfprintf_r
 .text          0x000000000002caec        0x0 /usr/local/ps3dev/ppu/lib/gcc/powerpc64-ps3-elf/7.2.0/../../../../powerpc64-ps3-elf/lib/libc.a(lib_a-ungetc.o)
 *fill*         0x000000000002caec        0x4 60000000
 .text.__submore
                0x000000000002caf0      0x128 /usr/local/ps3dev/ppu/lib/gcc/powerpc64-ps3-elf/7.2.0/../../../../powerpc64-ps3-elf/lib/libc.a(lib_a-ungetc.o)
                0x000000000002caf0                .__submore
 .text._ungetc_r
                0x000000000002cc18      0x2a8 /usr/local/ps3dev/ppu/lib/gcc/powerpc64-ps3-elf/7.2.0/../../../../powerpc64-ps3-elf/lib/libc.a(lib_a-ungetc.o)
                0x000000000002cc18                ._ungetc_r
 .text.ungetc   0x000000000002cec0       0x50 /usr/local/ps3dev/ppu/lib/gcc/powerpc64-ps3-elf/7.2.0/../../../../powerpc64-ps3-elf/lib/libc.a(lib_a-ungetc.o)
                0x000000000002cec0                .ungetc
 .text          0x000000000002cf10        0x0 /usr/local/ps3dev/ppu/lib/gcc/powerpc64-ps3-elf/7.2.0/../../../../powerpc64-ps3-elf/lib/libc.a(lib_a-wsetup.o)
 .text.__swsetup_r
                0x000000000002cf10      0x1f0 /usr/local/ps3dev/ppu/lib/gcc/powerpc64-ps3-elf/7.2.0/../../../../powerpc64-ps3-elf/lib/libc.a(lib_a-wsetup.o)
                0x000000000002cf10                .__swsetup_r
 .text          0x000000000002d100        0x0 /usr/local/ps3dev/ppu/lib/gcc/powerpc64-ps3-elf/7.2.0/../../../../powerpc64-ps3-elf/lib/libc.a(lib_a-dtoa.o)
 .text.quorem   0x000000000002d100      0x26c /usr/local/ps3dev/ppu/lib/gcc/powerpc64-ps3-elf/7.2.0/../../../../powerpc64-ps3-elf/lib/libc.a(lib_a-dtoa.o)
 *fill*         0x000000000002d36c        0x4 60000000
 .text._dtoa_r  0x000000000002d370     0x1478 /usr/local/ps3dev/ppu/lib/gcc/powerpc64-ps3-elf/7.2.0/../../../../powerpc64-ps3-elf/lib/libc.a(lib_a-dtoa.o)
                0x000000000002d370                ._dtoa_r
 .text          0x000000000002e7e8        0x0 /usr/local/ps3dev/ppu/lib/gcc/powerpc64-ps3-elf/7.2.0/../../../../powerpc64-ps3-elf/lib/libc.a(lib_a-fflush.o)
 .text.__sflush_r
                0x000000000002e7e8      0x3d0 /usr/local/ps3dev/ppu/lib/gcc/powerpc64-ps3-elf/7.2.0/../../../../powerpc64-ps3-elf/lib/libc.a(lib_a-fflush.o)
                0x000000000002e7e8                .__sflush_r
 .text._fflush_r
                0x000000000002ebb8      0x124 /usr/local/ps3dev/ppu/lib/gcc/powerpc64-ps3-elf/7.2.0/../../../../powerpc64-ps3-elf/lib/libc.a(lib_a-fflush.o)
                0x000000000002ebb8                ._fflush_r
 *fill*         0x000000000002ecdc        0x4 60000000
 .text.fflush   0x000000000002ece0       0x70 /usr/local/ps3dev/ppu/lib/gcc/powerpc64-ps3-elf/7.2.0/../../../../powerpc64-ps3-elf/lib/libc.a(lib_a-fflush.o)
                0x000000000002ece0                .fflush
 .text          0x000000000002ed50        0x0 /usr/local/ps3dev/ppu/lib/gcc/powerpc64-ps3-elf/7.2.0/../../../../powerpc64-ps3-elf/lib/libc.a(lib_a-findfp.o)
 .text._cleanup_r
                0x000000000002ed50       0x34 /usr/local/ps3dev/ppu/lib/gcc/powerpc64-ps3-elf/7.2.0/../../../../powerpc64-ps3-elf/lib/libc.a(lib_a-findfp.o)
                0x000000000002ed50                ._cleanup_r
 *fill*         0x000000000002ed84        0x4 60000000
 .text.__fp_lock
                0x000000000002ed88       0x50 /usr/local/ps3dev/ppu/lib/gcc/powerpc64-ps3-elf/7.2.0/../../../../powerpc64-ps3-elf/lib/libc.a(lib_a-findfp.o)
 .text.__fp_unlock
                0x000000000002edd8       0x50 /usr/local/ps3dev/ppu/lib/gcc/powerpc64-ps3-elf/7.2.0/../../../../powerpc64-ps3-elf/lib/libc.a(lib_a-findfp.o)
 .text.std.isra.0
                0x000000000002ee28       0x9c /usr/local/ps3dev/ppu/lib/gcc/powerpc64-ps3-elf/7.2.0/../../../../powerpc64-ps3-elf/lib/libc.a(lib_a-findfp.o)
 *fill*         0x000000000002eec4        0x4 60000000
 .text.__sfmoreglue
                0x000000000002eec8       0x88 /usr/local/ps3dev/ppu/lib/gcc/powerpc64-ps3-elf/7.2.0/../../../../powerpc64-ps3-elf/lib/libc.a(lib_a-findfp.o)
                0x000000000002eec8                .__sfmoreglue
 .text._cleanup
                0x000000000002ef50       0x3c /usr/local/ps3dev/ppu/lib/gcc/powerpc64-ps3-elf/7.2.0/../../../../powerpc64-ps3-elf/lib/libc.a(lib_a-findfp.o)
                0x000000000002ef50                ._cleanup
 *fill*         0x000000000002ef8c        0x4 60000000
 .text.__sinit  0x000000000002ef90       0xbc /usr/local/ps3dev/ppu/lib/gcc/powerpc64-ps3-elf/7.2.0/../../../../powerpc64-ps3-elf/lib/libc.a(lib_a-findfp.o)
                0x000000000002ef90                .__sinit
 *fill*         0x000000000002f04c        0x4 60000000
 .text.__sfp    0x000000000002f050      0x190 /usr/local/ps3dev/ppu/lib/gcc/powerpc64-ps3-elf/7.2.0/../../../../powerpc64-ps3-elf/lib/libc.a(lib_a-findfp.o)
                0x000000000002f050                .__sfp
 .text.__sfp_lock_acquire
                0x000000000002f1e0       0x34 /usr/local/ps3dev/ppu/lib/gcc/powerpc64-ps3-elf/7.2.0/../../../../powerpc64-ps3-elf/lib/libc.a(lib_a-findfp.o)
                0x000000000002f1e0                .__sfp_lock_acquire
 *fill*         0x000000000002f214        0x4 60000000
 .text.__sfp_lock_release
                0x000000000002f218       0x34 /usr/local/ps3dev/ppu/lib/gcc/powerpc64-ps3-elf/7.2.0/../../../../powerpc64-ps3-elf/lib/libc.a(lib_a-findfp.o)
                0x000000000002f218                .__sfp_lock_release
 *fill*         0x000000000002f24c        0x4 60000000
 .text.__sinit_lock_acquire
                0x000000000002f250       0x34 /usr/local/ps3dev/ppu/lib/gcc/powerpc64-ps3-elf/7.2.0/../../../../powerpc64-ps3-elf/lib/libc.a(lib_a-findfp.o)
                0x000000000002f250                .__sinit_lock_acquire
 *fill*         0x000000000002f284        0x4 60000000
 .text.__sinit_lock_release
                0x000000000002f288       0x34 /usr/local/ps3dev/ppu/lib/gcc/powerpc64-ps3-elf/7.2.0/../../../../powerpc64-ps3-elf/lib/libc.a(lib_a-findfp.o)
                0x000000000002f288                .__sinit_lock_release
 *fill*         0x000000000002f2bc        0x4 60000000
 .text.__fp_lock_all
                0x000000000002f2c0       0x48 /usr/local/ps3dev/ppu/lib/gcc/powerpc64-ps3-elf/7.2.0/../../../../powerpc64-ps3-elf/lib/libc.a(lib_a-findfp.o)
                0x000000000002f2c0                .__fp_lock_all
 .text.__fp_unlock_all
                0x000000000002f308       0x48 /usr/local/ps3dev/ppu/lib/gcc/powerpc64-ps3-elf/7.2.0/../../../../powerpc64-ps3-elf/lib/libc.a(lib_a-findfp.o)
                0x000000000002f308                .__fp_unlock_all
 .text          0x000000000002f350        0x0 /usr/local/ps3dev/ppu/lib/gcc/powerpc64-ps3-elf/7.2.0/../../../../powerpc64-ps3-elf/lib/libc.a(lib_a-fwalk.o)
 .text._fwalk   0x000000000002f350      0x100 /usr/local/ps3dev/ppu/lib/gcc/powerpc64-ps3-elf/7.2.0/../../../../powerpc64-ps3-elf/lib/libc.a(lib_a-fwalk.o)
                0x000000000002f350                ._fwalk
 .text._fwalk_reent
                0x000000000002f450      0x110 /usr/local/ps3dev/ppu/lib/gcc/powerpc64-ps3-elf/7.2.0/../../../../powerpc64-ps3-elf/lib/libc.a(lib_a-fwalk.o)
                0x000000000002f450                ._fwalk_reent
 .text          0x000000000002f560        0x0 /usr/local/ps3dev/ppu/lib/gcc/powerpc64-ps3-elf/7.2.0/../../../../powerpc64-ps3-elf/lib/libc.a(lib_a-gdtoa-gethex.o)
 .text.rshift   0x000000000002f560      0x184 /usr/local/ps3dev/ppu/lib/gcc/powerpc64-ps3-elf/7.2.0/../../../../powerpc64-ps3-elf/lib/libc.a(lib_a-gdtoa-gethex.o)
 *fill*         0x000000000002f6e4        0x4 60000000
 .text.__hexdig_init
                0x000000000002f6e8       0xa0 /usr/local/ps3dev/ppu/lib/gcc/powerpc64-ps3-elf/7.2.0/../../../../powerpc64-ps3-elf/lib/libc.a(lib_a-gdtoa-gethex.o)
                0x000000000002f6e8                .__hexdig_init
 .text.__gethex
                0x000000000002f788      0x950 /usr/local/ps3dev/ppu/lib/gcc/powerpc64-ps3-elf/7.2.0/../../../../powerpc64-ps3-elf/lib/libc.a(lib_a-gdtoa-gethex.o)
                0x000000000002f788                .__gethex
 .text          0x00000000000300d8        0x0 /usr/local/ps3dev/ppu/lib/gcc/powerpc64-ps3-elf/7.2.0/../../../../powerpc64-ps3-elf/lib/libc.a(lib_a-gdtoa-hexnan.o)
 .text.__hexnan
                0x00000000000300d8      0x384 /usr/local/ps3dev/ppu/lib/gcc/powerpc64-ps3-elf/7.2.0/../../../../powerpc64-ps3-elf/lib/libc.a(lib_a-gdtoa-hexnan.o)
                0x00000000000300d8                .__hexnan
 .text          0x000000000003045c        0x0 /usr/local/ps3dev/ppu/lib/gcc/powerpc64-ps3-elf/7.2.0/../../../../powerpc64-ps3-elf/lib/libc.a(lib_a-lock_internal.o)
 *fill*         0x000000000003045c        0x4 60000000
 .text.startup.init_metalock
                0x0000000000030460       0x48 /usr/local/ps3dev/ppu/lib/gcc/powerpc64-ps3-elf/7.2.0/../../../../powerpc64-ps3-elf/lib/libc.a(lib_a-lock_internal.o)
 .text.__libc_auto_lock_allocate
                0x00000000000304a8       0x9c /usr/local/ps3dev/ppu/lib/gcc/powerpc64-ps3-elf/7.2.0/../../../../powerpc64-ps3-elf/lib/libc.a(lib_a-lock_internal.o)
                0x00000000000304a8                .__libc_auto_lock_allocate
 .text          0x0000000000030544        0x0 /usr/local/ps3dev/ppu/lib/gcc/powerpc64-ps3-elf/7.2.0/../../../../powerpc64-ps3-elf/lib/libc.a(lib_a-makebuf.o)
 *fill*         0x0000000000030544        0x4 60000000
 .text.__smakebuf_r
                0x0000000000030548      0x1f4 /usr/local/ps3dev/ppu/lib/gcc/powerpc64-ps3-elf/7.2.0/../../../../powerpc64-ps3-elf/lib/libc.a(lib_a-makebuf.o)
                0x0000000000030548                .__smakebuf_r
 .text          0x000000000003073c        0x0 /usr/local/ps3dev/ppu/lib/gcc/powerpc64-ps3-elf/7.2.0/../../../../powerpc64-ps3-elf/lib/libc.a(lib_a-mprec.o)
 *fill*         0x000000000003073c        0x4 60000000
 .text._Balloc  0x0000000000030740       0xfc /usr/local/ps3dev/ppu/lib/gcc/powerpc64-ps3-elf/7.2.0/../../../../powerpc64-ps3-elf/lib/libc.a(lib_a-mprec.o)
                0x0000000000030740                ._Balloc
 *fill*         0x000000000003083c        0x4 60000000
 .text._Bfree   0x0000000000030840       0x34 /usr/local/ps3dev/ppu/lib/gcc/powerpc64-ps3-elf/7.2.0/../../../../powerpc64-ps3-elf/lib/libc.a(lib_a-mprec.o)
                0x0000000000030840                ._Bfree
 *fill*         0x0000000000030874        0x4 60000000
 .text.__multadd
                0x0000000000030878      0x164 /usr/local/ps3dev/ppu/lib/gcc/powerpc64-ps3-elf/7.2.0/../../../../powerpc64-ps3-elf/lib/libc.a(lib_a-mprec.o)
                0x0000000000030878                .__multadd
 *fill*         0x00000000000309dc        0x4 60000000
 .text.__s2b    0x00000000000309e0      0x174 /usr/local/ps3dev/ppu/lib/gcc/powerpc64-ps3-elf/7.2.0/../../../../powerpc64-ps3-elf/lib/libc.a(lib_a-mprec.o)
                0x00000000000309e0                .__s2b
 *fill*         0x0000000000030b54        0x4 60000000
 .text.__hi0bits
                0x0000000000030b58       0x9c /usr/local/ps3dev/ppu/lib/gcc/powerpc64-ps3-elf/7.2.0/../../../../powerpc64-ps3-elf/lib/libc.a(lib_a-mprec.o)
                0x0000000000030b58                .__hi0bits
 *fill*         0x0000000000030bf4        0x4 60000000
 .text.__lo0bits
                0x0000000000030bf8       0xf4 /usr/local/ps3dev/ppu/lib/gcc/powerpc64-ps3-elf/7.2.0/../../../../powerpc64-ps3-elf/lib/libc.a(lib_a-mprec.o)
                0x0000000000030bf8                .__lo0bits
 *fill*         0x0000000000030cec        0x4 60000000
 .text.__i2b    0x0000000000030cf0       0x48 /usr/local/ps3dev/ppu/lib/gcc/powerpc64-ps3-elf/7.2.0/../../../../powerpc64-ps3-elf/lib/libc.a(lib_a-mprec.o)
                0x0000000000030cf0                .__i2b
 .text.__multiply
                0x0000000000030d38      0x2a8 /usr/local/ps3dev/ppu/lib/gcc/powerpc64-ps3-elf/7.2.0/../../../../powerpc64-ps3-elf/lib/libc.a(lib_a-mprec.o)
                0x0000000000030d38                .__multiply
 .text.__pow5mult
                0x0000000000030fe0      0x19c /usr/local/ps3dev/ppu/lib/gcc/powerpc64-ps3-elf/7.2.0/../../../../powerpc64-ps3-elf/lib/libc.a(lib_a-mprec.o)
                0x0000000000030fe0                .__pow5mult
 *fill*         0x000000000003117c        0x4 60000000
 .text.__lshift
                0x0000000000031180      0x1c0 /usr/local/ps3dev/ppu/lib/gcc/powerpc64-ps3-elf/7.2.0/../../../../powerpc64-ps3-elf/lib/libc.a(lib_a-mprec.o)
                0x0000000000031180                .__lshift
 .text.__mcmp   0x0000000000031340       0x70 /usr/local/ps3dev/ppu/lib/gcc/powerpc64-ps3-elf/7.2.0/../../../../powerpc64-ps3-elf/lib/libc.a(lib_a-mprec.o)
                0x0000000000031340                .__mcmp
 .text.__mdiff  0x00000000000313b0      0x244 /usr/local/ps3dev/ppu/lib/gcc/powerpc64-ps3-elf/7.2.0/../../../../powerpc64-ps3-elf/lib/libc.a(lib_a-mprec.o)
                0x00000000000313b0                .__mdiff
 *fill*         0x00000000000315f4        0x4 60000000
 .text.__ulp    0x00000000000315f8       0x88 /usr/local/ps3dev/ppu/lib/gcc/powerpc64-ps3-elf/7.2.0/../../../../powerpc64-ps3-elf/lib/libc.a(lib_a-mprec.o)
                0x00000000000315f8                .__ulp
 .text.__b2d    0x0000000000031680      0x1a4 /usr/local/ps3dev/ppu/lib/gcc/powerpc64-ps3-elf/7.2.0/../../../../powerpc64-ps3-elf/lib/libc.a(lib_a-mprec.o)
                0x0000000000031680                .__b2d
 *fill*         0x0000000000031824        0x4 60000000
 .text.__d2b    0x0000000000031828      0x1ac /usr/local/ps3dev/ppu/lib/gcc/powerpc64-ps3-elf/7.2.0/../../../../powerpc64-ps3-elf/lib/libc.a(lib_a-mprec.o)
                0x0000000000031828                .__d2b
 *fill*         0x00000000000319d4        0x4 60000000
 .text.__ratio  0x00000000000319d8       0xe8 /usr/local/ps3dev/ppu/lib/gcc/powerpc64-ps3-elf/7.2.0/../../../../powerpc64-ps3-elf/lib/libc.a(lib_a-mprec.o)
                0x00000000000319d8                .__ratio
 .text._mprec_log10
                0x0000000000031ac0       0x54 /usr/local/ps3dev/ppu/lib/gcc/powerpc64-ps3-elf/7.2.0/../../../../powerpc64-ps3-elf/lib/libc.a(lib_a-mprec.o)
                0x0000000000031ac0                ._mprec_log10
 *fill*         0x0000000000031b14        0x4 60000000
 .text.__copybits
                0x0000000000031b18       0xa0 /usr/local/ps3dev/ppu/lib/gcc/powerpc64-ps3-elf/7.2.0/../../../../powerpc64-ps3-elf/lib/libc.a(lib_a-mprec.o)
                0x0000000000031b18                .__copybits
 .text.__any_on
                0x0000000000031bb8       0xac /usr/local/ps3dev/ppu/lib/gcc/powerpc64-ps3-elf/7.2.0/../../../../powerpc64-ps3-elf/lib/libc.a(lib_a-mprec.o)
                0x0000000000031bb8                .__any_on
 .text          0x0000000000031c64        0x0 /usr/local/ps3dev/ppu/lib/gcc/powerpc64-ps3-elf/7.2.0/../../../../powerpc64-ps3-elf/lib/libc.a(lib_a-strncmp.o)
 *fill*         0x0000000000031c64        0x4 60000000
 .text.strncmp  0x0000000000031c68      0x12c /usr/local/ps3dev/ppu/lib/gcc/powerpc64-ps3-elf/7.2.0/../../../../powerpc64-ps3-elf/lib/libc.a(lib_a-strncmp.o)
                0x0000000000031c68                .strncmp
 .text          0x0000000000031d94        0x0 /usr/local/ps3dev/ppu/lib/gcc/powerpc64-ps3-elf/7.2.0/../../../../powerpc64-ps3-elf/lib/libc.a(lib_a-svfiprintf.o)
 *fill*         0x0000000000031d94        0x4 60000000
 .text.__ssprint_r
                0x0000000000031d98      0x2b4 /usr/local/ps3dev/ppu/lib/gcc/powerpc64-ps3-elf/7.2.0/../../../../powerpc64-ps3-elf/lib/libc.a(lib_a-svfiprintf.o)
                0x0000000000031d98                .__ssprint_r
 *fill*         0x000000000003204c        0x4 60000000
 .text._svfiprintf_r
                0x0000000000032050     0x1148 /usr/local/ps3dev/ppu/lib/gcc/powerpc64-ps3-elf/7.2.0/../../../../powerpc64-ps3-elf/lib/libc.a(lib_a-svfiprintf.o)
                0x0000000000032050                ._svfiprintf_r
 .text          0x0000000000033198        0x0 /usr/local/ps3dev/ppu/lib/gcc/powerpc64-ps3-elf/7.2.0/../../../../powerpc64-ps3-elf/lib/libc.a(lib_a-abort.o)
 .text.abort    0x0000000000033198       0x30 /usr/local/ps3dev/ppu/lib/gcc/powerpc64-ps3-elf/7.2.0/../../../../powerpc64-ps3-elf/lib/libc.a(lib_a-abort.o)
                0x0000000000033198                .abort
 .text          0x00000000000331c8        0x0 /usr/local/ps3dev/ppu/lib/gcc/powerpc64-ps3-elf/7.2.0/../../../../powerpc64-ps3-elf/lib/libc.a(lib_a-fclose.o)
 .text._fclose_r
                0x00000000000331c8      0x1e8 /usr/local/ps3dev/ppu/lib/gcc/powerpc64-ps3-elf/7.2.0/../../../../powerpc64-ps3-elf/lib/libc.a(lib_a-fclose.o)
                0x00000000000331c8                ._fclose_r
 .text.fclose   0x00000000000333b0       0x40 /usr/local/ps3dev/ppu/lib/gcc/powerpc64-ps3-elf/7.2.0/../../../../powerpc64-ps3-elf/lib/libc.a(lib_a-fclose.o)
                0x00000000000333b0                .fclose
 .text          0x00000000000333f0        0x0 /usr/local/ps3dev/ppu/lib/gcc/powerpc64-ps3-elf/7.2.0/../../../../powerpc64-ps3-elf/lib/libc.a(lib_a-signal.o)
 .text._init_signal_r.part.0
                0x00000000000333f0       0x74 /usr/local/ps3dev/ppu/lib/gcc/powerpc64-ps3-elf/7.2.0/../../../../powerpc64-ps3-elf/lib/libc.a(lib_a-signal.o)
 *fill*         0x0000000000033464        0x4 60000000
 .text._init_signal_r
                0x0000000000033468       0x28 /usr/local/ps3dev/ppu/lib/gcc/powerpc64-ps3-elf/7.2.0/../../../../powerpc64-ps3-elf/lib/libc.a(lib_a-signal.o)
                0x0000000000033468                ._init_signal_r
 .text._signal_r
                0x0000000000033490       0x98 /usr/local/ps3dev/ppu/lib/gcc/powerpc64-ps3-elf/7.2.0/../../../../powerpc64-ps3-elf/lib/libc.a(lib_a-signal.o)
                0x0000000000033490                ._signal_r
 .text._raise_r
                0x0000000000033528      0x13c /usr/local/ps3dev/ppu/lib/gcc/powerpc64-ps3-elf/7.2.0/../../../../powerpc64-ps3-elf/lib/libc.a(lib_a-signal.o)
                0x0000000000033528                ._raise_r
 *fill*         0x0000000000033664        0x4 60000000
 .text.__sigtramp_r
                0x0000000000033668       0xfc /usr/local/ps3dev/ppu/lib/gcc/powerpc64-ps3-elf/7.2.0/../../../../powerpc64-ps3-elf/lib/libc.a(lib_a-signal.o)
                0x0000000000033668                .__sigtramp_r
 *fill*         0x0000000000033764        0x4 60000000
 .text.raise    0x0000000000033768       0x40 /usr/local/ps3dev/ppu/lib/gcc/powerpc64-ps3-elf/7.2.0/../../../../powerpc64-ps3-elf/lib/libc.a(lib_a-signal.o)
                0x0000000000033768                .raise
 .text.signal   0x00000000000337a8       0xbc /usr/local/ps3dev/ppu/lib/gcc/powerpc64-ps3-elf/7.2.0/../../../../powerpc64-ps3-elf/lib/libc.a(lib_a-signal.o)
                0x00000000000337a8                .signal
 *fill*         0x0000000000033864        0x4 60000000
 .text._init_signal
                0x0000000000033868       0x54 /usr/local/ps3dev/ppu/lib/gcc/powerpc64-ps3-elf/7.2.0/../../../../powerpc64-ps3-elf/lib/libc.a(lib_a-signal.o)
                0x0000000000033868                ._init_signal
 *fill*         0x00000000000338bc        0x4 60000000
 .text.__sigtramp
                0x00000000000338c0       0x40 /usr/local/ps3dev/ppu/lib/gcc/powerpc64-ps3-elf/7.2.0/../../../../powerpc64-ps3-elf/lib/libc.a(lib_a-signal.o)
                0x00000000000338c0                .__sigtramp
 .text          0x0000000000033900        0x0 /usr/local/ps3dev/ppu/lib/gcc/powerpc64-ps3-elf/7.2.0/../../../../powerpc64-ps3-elf/lib/libsysbase.a(close.o)
 .text._close_r
                0x0000000000033900       0x68 /usr/local/ps3dev/ppu/lib/gcc/powerpc64-ps3-elf/7.2.0/../../../../powerpc64-ps3-elf/lib/libsysbase.a(close.o)
                0x0000000000033900                ._close_r
 .text          0x0000000000033968        0x0 /usr/local/ps3dev/ppu/lib/gcc/powerpc64-ps3-elf/7.2.0/../../../../powerpc64-ps3-elf/lib/libsysbase.a(sbrk.o)
 .text._sbrk_r  0x0000000000033968       0x68 /usr/local/ps3dev/ppu/lib/gcc/powerpc64-ps3-elf/7.2.0/../../../../powerpc64-ps3-elf/lib/libsysbase.a(sbrk.o)
                0x0000000000033968                ._sbrk_r
 .text          0x00000000000339d0        0x0 /usr/local/ps3dev/ppu/lib/gcc/powerpc64-ps3-elf/7.2.0/../../../../powerpc64-ps3-elf/lib/libsysbase.a(_exit.o)
 .text._exit    0x00000000000339d0       0x4c /usr/local/ps3dev/ppu/lib/gcc/powerpc64-ps3-elf/7.2.0/../../../../powerpc64-ps3-elf/lib/libsysbase.a(_exit.o)
                0x00000000000339d0                ._exit
 .text          0x0000000000033a1c        0x0 /usr/local/ps3dev/ppu/lib/gcc/powerpc64-ps3-elf/7.2.0/../../../../powerpc64-ps3-elf/lib/libsysbase.a(fstat.o)
 *fill*         0x0000000000033a1c        0x4 60000000
 .text._fstat_r
                0x0000000000033a20       0x68 /usr/local/ps3dev/ppu/lib/gcc/powerpc64-ps3-elf/7.2.0/../../../../powerpc64-ps3-elf/lib/libsysbase.a(fstat.o)
                0x0000000000033a20                ._fstat_r
 .text          0x0000000000033a88        0x0 /usr/local/ps3dev/ppu/lib/gcc/powerpc64-ps3-elf/7.2.0/../../../../powerpc64-ps3-elf/lib/libsysbase.a(isatty.o)
 .text._isatty_r
                0x0000000000033a88       0x68 /usr/local/ps3dev/ppu/lib/gcc/powerpc64-ps3-elf/7.2.0/../../../../powerpc64-ps3-elf/lib/libsysbase.a(isatty.o)
                0x0000000000033a88                ._isatty_r
 .text          0x0000000000033af0        0x0 /usr/local/ps3dev/ppu/lib/gcc/powerpc64-ps3-elf/7.2.0/../../../../powerpc64-ps3-elf/lib/libsysbase.a(lseek.o)
 .text._lseek_r
                0x0000000000033af0       0x68 /usr/local/ps3dev/ppu/lib/gcc/powerpc64-ps3-elf/7.2.0/../../../../powerpc64-ps3-elf/lib/libsysbase.a(lseek.o)
                0x0000000000033af0                ._lseek_r
 .text          0x0000000000033b58        0x0 /usr/local/ps3dev/ppu/lib/gcc/powerpc64-ps3-elf/7.2.0/../../../../powerpc64-ps3-elf/lib/libsysbase.a(read.o)
 .text._read_r  0x0000000000033b58       0x68 /usr/local/ps3dev/ppu/lib/gcc/powerpc64-ps3-elf/7.2.0/../../../../powerpc64-ps3-elf/lib/libsysbase.a(read.o)
                0x0000000000033b58                ._read_r
 .text          0x0000000000033bc0        0x0 /usr/local/ps3dev/ppu/lib/gcc/powerpc64-ps3-elf/7.2.0/../../../../powerpc64-ps3-elf/lib/libsysbase.a(write.o)
 .text._write_r
                0x0000000000033bc0       0x68 /usr/local/ps3dev/ppu/lib/gcc/powerpc64-ps3-elf/7.2.0/../../../../powerpc64-ps3-elf/lib/libsysbase.a(write.o)
                0x0000000000033bc0                ._write_r
 .text          0x0000000000033c28        0x0 /usr/local/ps3dev/ppu/lib/gcc/powerpc64-ps3-elf/7.2.0/../../../../powerpc64-ps3-elf/lib/libsysbase.a(lock.o)
 .text.sys_lwmutex_create
                0x0000000000033c28       0x90 /usr/local/ps3dev/ppu/lib/gcc/powerpc64-ps3-elf/7.2.0/../../../../powerpc64-ps3-elf/lib/libsysbase.a(lock.o)
                0x0000000000033c28                .sys_lwmutex_create
 .text.sys_lwmutex_destroy
                0x0000000000033cb8       0x80 /usr/local/ps3dev/ppu/lib/gcc/powerpc64-ps3-elf/7.2.0/../../../../powerpc64-ps3-elf/lib/libsysbase.a(lock.o)
                0x0000000000033cb8                .sys_lwmutex_destroy
 .text.sys_lwmutex_lock
                0x0000000000033d38       0x90 /usr/local/ps3dev/ppu/lib/gcc/powerpc64-ps3-elf/7.2.0/../../../../powerpc64-ps3-elf/lib/libsysbase.a(lock.o)
                0x0000000000033d38                .sys_lwmutex_lock
 .text.sys_lwmutex_trylock
                0x0000000000033dc8       0x80 /usr/local/ps3dev/ppu/lib/gcc/powerpc64-ps3-elf/7.2.0/../../../../powerpc64-ps3-elf/lib/libsysbase.a(lock.o)
                0x0000000000033dc8                .sys_lwmutex_trylock
 .text.sys_lwmutex_unlock
                0x0000000000033e48       0x80 /usr/local/ps3dev/ppu/lib/gcc/powerpc64-ps3-elf/7.2.0/../../../../powerpc64-ps3-elf/lib/libsysbase.a(lock.o)
                0x0000000000033e48                .sys_lwmutex_unlock
 .text          0x0000000000033ec8        0x0 /usr/local/ps3dev/ppu/lib/gcc/powerpc64-ps3-elf/7.2.0/../../../../powerpc64-ps3-elf/lib/libsysbase.a(getpid.o)
 .text._getpid_r
                0x0000000000033ec8       0x68 /usr/local/ps3dev/ppu/lib/gcc/powerpc64-ps3-elf/7.2.0/../../../../powerpc64-ps3-elf/lib/libsysbase.a(getpid.o)
                0x0000000000033ec8                ._getpid_r
 .text          0x0000000000033f30        0x0 /usr/local/ps3dev/ppu/lib/gcc/powerpc64-ps3-elf/7.2.0/../../../../powerpc64-ps3-elf/lib/libsysbase.a(kill.o)
 .text._kill_r  0x0000000000033f30       0x1c /usr/local/ps3dev/ppu/lib/gcc/powerpc64-ps3-elf/7.2.0/../../../../powerpc64-ps3-elf/lib/libsysbase.a(kill.o)
                0x0000000000033f30                ._kill_r
 .text          0x0000000000033f4c        0x0 /usr/local/ps3dev/ppu/lib/gcc/powerpc64-ps3-elf/7.2.0/crtend.o
 *fill*         0x0000000000033f4c        0x4 60000000
 .text.__do_global_ctors_aux
                0x0000000000033f50       0x64 /usr/local/ps3dev/ppu/lib/gcc/powerpc64-ps3-elf/7.2.0/crtend.o
 .text          0x0000000000033fb4        0x0 /usr/local/ps3dev/ppu/lib/gcc/powerpc64-ps3-elf/7.2.0/../../../../powerpc64-ps3-elf/lib/lv2-crtn.o
 *(.text.*personality*)
 *(.gnu.warning)
 *(.sfpr .glink)
 .sfpr          0x0000000000000000        0x0 linker stubs
 *fill*         0x0000000000033fb4        0x0 60000000
 .glink         0x0000000000000000        0x0 linker stubs

.fini           0x0000000000033fb4       0x2c
 *(.fini)
 .fini          0x0000000000033fb4        0xc /usr/local/ps3dev/ppu/lib/gcc/powerpc64-ps3-elf/7.2.0/../../../../powerpc64-ps3-elf/lib/lv2-crti.o
                0x0000000000033fb4                ._fini
 .fini          0x0000000000033fc0        0x8 /usr/local/ps3dev/ppu/lib/gcc/powerpc64-ps3-elf/7.2.0/crtbegin.o
 .fini          0x0000000000033fc8        0x8 /usr/local/ps3dev/psl1ght/ppu/lib/librt.a(sbrk.o)
 .fini          0x0000000000033fd0       0x10 /usr/local/ps3dev/ppu/lib/gcc/powerpc64-ps3-elf/7.2.0/../../../../powerpc64-ps3-elf/lib/lv2-crtn.o

.sceStub.text   0x0000000000033fe0     0x6380
 *(.sceStub.text)
 .sceStub.text  0x0000000000033fe0     0x1640 /usr/local/ps3dev/psl1ght/ppu/lib/libgcm_sys.a(sprx.o)
                0x0000000000033fe0                .gcmInitBody
                0x0000000000033fe0                __gcmInitBody
                0x0000000000034020                .gcmSetDisplayBuffer
                0x0000000000034020                __gcmSetDisplayBuffer
                0x0000000000034060                __gcmGetControlRegister
                0x0000000000034060                .gcmGetControlRegister
                0x00000000000340a0                __gcmAddressToOffset
                0x00000000000340a0                .gcmAddressToOffset
                0x00000000000340e0                __gcmGetConfiguration
                0x00000000000340e0                .gcmGetConfiguration
                0x0000000000034120                __gcmGetCurrentField
                0x0000000000034160                .gcmSetFlipMode
                0x0000000000034160                __gcmSetFlipMode
                0x00000000000341a0                .gcmGetFlipStatus
                0x00000000000341a0                __gcmGetFlipStatus
                0x00000000000341e0                __gcmGetLastFlipTime
                0x0000000000034220                __gcmGetVBlankCount
                0x0000000000034260                __gcmSetWaitFlip
                0x0000000000034260                .gcmSetWaitFlip
                0x00000000000342a0                __gcmSetFlipStatus
                0x00000000000342e0                __gcmResetFlipStatus
                0x00000000000342e0                .gcmResetFlipStatus
                0x0000000000034320                __gcmSetFlip
                0x0000000000034320                .gcmSetFlip
                0x0000000000034360                __gcmSetFlipImmediate
                0x00000000000343a0                __gcmFunc15
                0x00000000000343e0                __gcmFunc3
                0x0000000000034420                __gcmFunc1
                0x0000000000034460                __gcmFunc2
                0x00000000000344a0                __gcmFunc4
                0x00000000000344e0                __gcmFunc12
                0x0000000000034520                __gcmFunc13
                0x0000000000034560                __gcmGetReport
                0x00000000000345a0                __gcmSetTile
                0x00000000000345e0                __gcmBindTile
                0x0000000000034620                __gcmUnbindTile
                0x0000000000034660                __gcmSetZcull
                0x00000000000346a0                __gcmBindZcull
                0x00000000000346e0                __gcmUnbindZcull
                0x0000000000034720                __gcmGetTimeStamp
                0x0000000000034760                __gcmSetVBlankFrequency
                0x00000000000347a0                __gcmSetSecondVFrequency
                0x00000000000347e0                __gcmSetDebugOutputLevel
                0x0000000000034820                __gcmGetLabelAddress
                0x0000000000034860                __gcmSetVBlankHandlerEx
                0x00000000000348a0                __gcmSetFlipHandlerEx
                0x00000000000348e0                __gcmSetSecondVHandlerEx
                0x0000000000034920                __gcmSetGraphicsHandlerEx
                0x0000000000034960                __gcmTerminate
                0x00000000000349a0                __gcmMapMainMemory
                0x00000000000349e0                __gcmMapEaIoAddress
                0x0000000000034a20                __gcmUnmapEaIoAddress
                0x0000000000034a60                __gcmUnmapIoAddress
                0x0000000000034aa0                __gcmIoOffsetToAddress
                0x0000000000034ae0                __gcmSetDefaultCommandBuffer
                0x0000000000034b20                __gcmSetTileInfo
                0x0000000000034b60                __gcmGetTiledPitchSize
                0x0000000000034ba0                __gcmSetInvalidateTile
                0x0000000000034be0                __gcmSetUserCommandEx
                0x0000000000034c20                __gcmSetUserHandlerEx
                0x0000000000034c60                __gcmSetQueueHandlerEx
                0x0000000000034ca0                __gcmSetPrepareFlip
                0x0000000000034ce0                __gcmGetOffsetTable
                0x0000000000034d20                __gcmGetLastSecondVTime
                0x0000000000034d60                __gcmSortRemapEaIoAddress
                0x0000000000034da0                __gcmGetDisplayBufferByFlipIndex
                0x0000000000034de0                __gcmGcmGetDefaultCommandWordSize
                0x0000000000034e20                __gcmGcmGetDefaultSegmentWordSize
                0x0000000000034e60                __gcmSetDefaultCommandBufferAndSegmentWordSize
                0x0000000000034ea0                __gcmGetDisplayInfo
                0x0000000000034ee0                __gcmDumpGraphicsError
                0x0000000000034f20                __gcmFunc38
                0x0000000000034f60                __gcmGetCurrentDisplayBufferId
                0x0000000000034fa0                __gcmGetDefaultCommandWordSize
                0x0000000000034fe0                __gcmGetDefaultSegmentWordSize
                0x0000000000035020                __gcmGetMaxIoMapSize
                0x0000000000035060                __gcmGetNotifyDataAddress
                0x00000000000350a0                __gcmGetReportDataAddress
                0x00000000000350e0                __gcmGetReportDataAddressLocation
                0x0000000000035120                __gcmGetReportDataLocation
                0x0000000000035160                __gcmGetTileInfo
                0x00000000000351a0                __gcmGetTimeStampLocation
                0x00000000000351e0                __gcmGetZcullInfo
                0x0000000000035220                __gcmInitCursor
                0x0000000000035260                __gcmInitDefaultFifoMode
                0x00000000000352a0                __gcmInitSystemMode
                0x00000000000352e0                __gcmMapEaIoAddressWithFlags
                0x0000000000035320                __gcmMapLocalMemory
                0x0000000000035360                __gcmReserveIoMapSize
                0x00000000000353a0                __gcmSetCursorDisable
                0x00000000000353e0                __gcmSetCursorEnable
                0x0000000000035420                __gcmSetCursorImageOffset
                0x0000000000035460                __gcmSetCursorPosition
                0x00000000000354a0                __gcmSetDefaultFifoSize
                0x00000000000354e0                __gcmSetFlipCommand
                0x0000000000035520                __gcmSetFlipCommandWithWaitLabel
                0x0000000000035560                __gcmSysGetLastVBlankTime
                0x00000000000355a0                __gcmUnreserveIoMapSize
                0x00000000000355e0                __gcmUpdateCursor
 .sceStub.text  0x0000000000035620      0xbc0 /usr/local/ps3dev/psl1ght/ppu/lib/libio.a(sprx.o)
                0x0000000000035620                __sys_config_start
                0x0000000000035660                __sys_config_stop
                0x00000000000356a0                __sys_config_add_service_listener
                0x00000000000356e0                __sys_config_remove_service_listener
                0x0000000000035720                __sys_config_register_service
                0x0000000000035760                __sys_config_unregister_service
                0x00000000000357a0                __ioPadInit
                0x00000000000357a0                .ioPadInit
                0x00000000000357e0                __ioPadEnd
                0x0000000000035820                __ioPadClearBuf
                0x0000000000035860                __ioPadInfoPressMode
                0x00000000000358a0                __ioPadLddRegisterController
                0x00000000000358e0                .ioPadGetInfo
                0x00000000000358e0                __ioPadGetInfo
                0x0000000000035920                __ioPadGetRawData
                0x0000000000035960                __ioPadGetDataExtra
                0x00000000000359a0                __ioPadInfoSensorMode
                0x00000000000359e0                .ioPadGetData
                0x00000000000359e0                __ioPadGetData
                0x0000000000035a20                __ioPadLddGetPortNo
                0x0000000000035a60                __ioPadLddDataInsert
                0x0000000000035aa0                __ioPadSetSensorMode
                0x0000000000035ae0                __ioPadGetCapabilityInfo
                0x0000000000035b20                __ioPadLddUnregisterController
                0x0000000000035b60                __ioPadSetActDirect
                0x0000000000035ba0                __ioPadSetPressMode
                0x0000000000035be0                __ioPadPeriphGetInfo
                0x0000000000035c20                __ioPadSetPortSetting
                0x0000000000035c60                __ioPadPeriphGetData
                0x0000000000035ca0                __ioPadGetInfo2
                0x0000000000035ce0                __ioMouseInit
                0x0000000000035d20                __ioMouseEnd
                0x0000000000035d60                __ioMouseClearBuf
                0x0000000000035da0                __ioMouseGetInfo
                0x0000000000035de0                __ioMouseGetTabletDataList
                0x0000000000035e20                __ioMouseSetTabletMode
                0x0000000000035e60                __ioMouseGetData
                0x0000000000035ea0                __ioMouseInfoTabletMode
                0x0000000000035ee0                __ioMouseGetRawData
                0x0000000000035f20                __ioMouseGetDataList
                0x0000000000035f60                __ioKbInit
                0x0000000000035fa0                __ioKbEnd
                0x0000000000035fe0                __ioKbRead
                0x0000000000036020                __ioKbSetReadMode
                0x0000000000036060                __ioKbSetCodeType
                0x00000000000360a0                __ioKbCnvRawCode
                0x00000000000360e0                __ioKbSetLEDStatus
                0x0000000000036120                __ioKbGetInfo
                0x0000000000036160                __ioKbGetConfiguration
                0x00000000000361a0                __ioKbClearBuf
 .sceStub.text  0x00000000000361e0     0x1400 /usr/local/ps3dev/psl1ght/ppu/lib/libsysutil.a(sprx.o)
                0x00000000000361e0                __videoGetResolution
                0x00000000000361e0                .videoGetResolution
                0x0000000000036220                __videoConfigure
                0x0000000000036220                .videoConfigure
                0x0000000000036260                __videoGetState
                0x0000000000036260                .videoGetState
                0x00000000000362a0                __videoGetDeviceInfo
                0x00000000000362e0                __videoGetConfiguration
                0x0000000000036320                __videoGetResolutionAvailability
                0x0000000000036360                __videoDebugSetMonitorType
                0x00000000000363a0                __videoRegisterCallbackEx
                0x00000000000363e0                __videoUnregisterCallback
                0x0000000000036420                __videoGetNumberOfDevice
                0x0000000000036460                __videoGetConvertCursorColorInfo
                0x00000000000364a0                __msgDialogClose
                0x00000000000364e0                __msgDialogOpenErrorCodeEx
                0x00000000000364e0                .msgDialogOpenErrorCodeEx
                0x0000000000036520                __msgDialogOpenEx
                0x0000000000036520                .msgDialogOpenEx
                0x0000000000036560                __msgDialogProgressBarInc
                0x00000000000365a0                __msgDialogAbort
                0x00000000000365e0                .msgDialogOpen2Ex
                0x00000000000365e0                __msgDialogOpen2Ex
                0x0000000000036620                __msgDialogProgressBarReset
                0x0000000000036660                __msgDialogProgressBarSetMsg
                0x00000000000366a0                __oskGetInputText
                0x00000000000366e0                __oskSetInitialInputDevice
                0x0000000000036720                __oskGetSize
                0x0000000000036760                __oskUnloadAsync
                0x00000000000367a0                __oskDisableDimmer
                0x00000000000367e0                __oskSetKeyLayoutOption
                0x0000000000036820                __oskAbort
                0x0000000000036860                __oskSetDeviceMask
                0x00000000000368a0                __oskSetSeparateWindowOption
                0x00000000000368e0                __oskAddSupportLanguage
                0x0000000000036920                __oskLoadAsync
                0x0000000000036960                __oskSetInitialKeyLayout
                0x00000000000369a0                __oskSetLayoutMode
                0x00000000000369e0                __sysUtilRegisterCallbackEx
                0x00000000000369e0                .sysUtilRegisterCallbackEx
                0x0000000000036a20                .sysUtilCheckCallback
                0x0000000000036a20                __sysUtilCheckCallback
                0x0000000000036a60                .sysUtilUnregisterCallback
                0x0000000000036a60                __sysUtilUnregisterCallback
                0x0000000000036aa0                .sysSaveListLoad2Ex
                0x0000000000036aa0                __sysSaveListLoad2Ex
                0x0000000000036ae0                __sysSaveListSave2Ex
                0x0000000000036ae0                .sysSaveListSave2Ex
                0x0000000000036b20                __sysSaveListAutoLoadEx
                0x0000000000036b20                .sysSaveListAutoLoadEx
                0x0000000000036b60                .sysSaveListAutoSaveEx
                0x0000000000036b60                __sysSaveListAutoSaveEx
                0x0000000000036ba0                .sysSaveFixedLoad2Ex
                0x0000000000036ba0                __sysSaveFixedLoad2Ex
                0x0000000000036be0                .sysSaveFixedSave2Ex
                0x0000000000036be0                __sysSaveFixedSave2Ex
                0x0000000000036c20                .sysSaveAutoLoad2Ex
                0x0000000000036c20                __sysSaveAutoLoad2Ex
                0x0000000000036c60                __sysSaveAutoSave2Ex
                0x0000000000036c60                .sysSaveAutoSave2Ex
                0x0000000000036ca0                __sysSaveDelete2
                0x0000000000036ce0                __sysGameDataCheck
                0x0000000000036d20                __sysGameBootCheck
                0x0000000000036d60                __sysGamePatchCheck
                0x0000000000036da0                __sysGameCreateGameData
                0x0000000000036de0                __sysGameGetParamInt
                0x0000000000036e20                __sysGameGetParamString
                0x0000000000036e60                __sysGameGetSizeKB
                0x0000000000036ea0                __sysGameSetParamString
                0x0000000000036ee0                __sysGameGetDiscContentInfoUpdatePath
                0x0000000000036f20                __sysGameContentPermit
                0x0000000000036f60                __sysGameContentErrorDialog
                0x0000000000036fa0                __sysGameThemeInstall
                0x0000000000036fe0                .sysGameThemeInstallFromBufferEx
                0x0000000000036fe0                __sysGameThemeInstallFromBufferEx
                0x0000000000037020                __sysGameGetLocalWebContentPath
                0x0000000000037060                __sysGameDeleteGameData
                0x00000000000370a0                __sysGameRegisterDiscChangeCallbackEx
                0x00000000000370e0                __sysGameUnregisterDiscChangeCallback
                0x0000000000037120                __sysDiscRegisterDiscChangeCallbackEx
                0x0000000000037120                .sysDiscRegisterDiscChangeCallbackEx
                0x0000000000037160                __sysDiscUnregisterDiscChangeCallback
                0x00000000000371a0                __sysTrophyInit
                0x00000000000371e0                __sysTrophyAbortHandle
                0x0000000000037220                __sysTrophyCreateContext
                0x0000000000037260                __sysTrophyCreateHandle
                0x00000000000372a0                __sysTrophyDestroyContext
                0x00000000000372e0                __sysTrophyDestroyHandle
                0x0000000000037320                __sysTrophyGetGameIcon
                0x0000000000037360                __sysTrophyGetGameInfo
                0x00000000000373a0                __sysTrophyGetGameProgress
                0x00000000000373e0                __sysTrophyGetRequiredDiskSpace
                0x0000000000037420                __sysTrophyGetTrophyIcon
                0x0000000000037460                __sysTrophyGetTrophyInfo
                0x00000000000374a0                __sysTrophyGetTrophyUnlockState
                0x00000000000374e0                __sysTrophyRegisterContextEx
                0x0000000000037520                __sysTrophySetSoundLevel
                0x0000000000037560                __sysTrophyTerm
                0x00000000000375a0                __sysTrophyUnlockTrophy
 .sceStub.text  0x00000000000375e0     0x1dc0 /usr/local/ps3dev/psl1ght/ppu/lib/liblv2.a(sprx.o)
                0x00000000000375e0                __sysGetSystemTime
                0x0000000000037620                __sysGetSystemSwVersion
                0x0000000000037660                __sysGetTemperature
                0x00000000000376a0                __sysGetRandomNumber
                0x00000000000376e0                __sysGetRtcStatus
                0x0000000000037720                __sysBoardStorageRead
                0x0000000000037760                __sysBoardStorageWrite
                0x00000000000377a0                __sysProcessIsStack
                0x00000000000377e0                .sysProcessExit
                0x00000000000377e0                __sysProcessExit
                0x0000000000037820                __sysProcessExitspawn
                0x0000000000037860                __sysProcessExitSpawn2Ex
                0x00000000000378a0                __sysProcessExitSpawnWithLevel
                0x00000000000378e0                __sysProcessAtExitSpawn
                0x0000000000037920                __sysProcess_At_ExitSpawn
                0x0000000000037960                __sysPrxRegisterLibrary
                0x00000000000379a0                __sysPrxUnregisterLibrary
                0x00000000000379e0                __sysPrxStartModule
                0x0000000000037a20                __sysPrxStopModule
                0x0000000000037a60                __sysPrxLoadModule
                0x0000000000037aa0                __sysPrxLoadModuleByFd
                0x0000000000037ae0                __sysPrxLoadModuleList
                0x0000000000037b20                __sysPrxLoadModuleListOnMemcontainer
                0x0000000000037b60                __sysPrxLoadModuleOnMemcontainer
                0x0000000000037ba0                __sysPrxLoadModuleOnMemcontainerByFd
                0x0000000000037be0                __sysPrxGetModuleInfo
                0x0000000000037c20                __sysPrxGetModuleList
                0x0000000000037c60                __sysPrxGetModuleId
                0x0000000000037ca0                __sysPrxGetModuleIdByAddress
                0x0000000000037ce0                __sysPrxGetModuleIdByName
                0x0000000000037d20                __sysPrxUnloadModule
                0x0000000000037d60                __sysPrxExitSpawnWithLevel
                0x0000000000037da0                __sysThreadCreateEx
                0x0000000000037de0                __sysThreadExit
                0x0000000000037e20                __sysThreadGetId
                0x0000000000037e60                __sysThreadOnce
                0x0000000000037ea0                __sysThreadInitialzeTLS
                0x0000000000037ee0                __sysThreadRegisterAtexit
                0x0000000000037f20                __sysThreadUnregisterAtexit
                0x0000000000037f60                __sysInterruptThreadDisestablish
                0x0000000000037fa0                .sysLwMutexCreate
                0x0000000000037fa0                __sysLwMutexCreate
                0x0000000000037fe0                __sysLwMutexDestroy
                0x0000000000037fe0                .sysLwMutexDestroy
                0x0000000000038020                .sysLwMutexLock
                0x0000000000038020                __sysLwMutexLock
                0x0000000000038060                __sysLwMutexTryLock
                0x0000000000038060                .sysLwMutexTryLock
                0x00000000000380a0                .sysLwMutexUnlock
                0x00000000000380a0                __sysLwMutexUnlock
                0x00000000000380e0                __sysLwCondCreate
                0x0000000000038120                __sysLwCondWait
                0x0000000000038160                __sysLwCondSignal
                0x00000000000381a0                __sysLwCondSignalTo
                0x00000000000381e0                __sysLwCondSignalAll
                0x0000000000038220                __sysLwCondDestroy
                0x0000000000038260                .sysSpinlockInitialize
                0x0000000000038260                __sysSpinlockInitialize
                0x00000000000382a0                .sysSpinlockLock
                0x00000000000382a0                __sysSpinlockLock
                0x00000000000382e0                __sysSpinlockTryLock
                0x0000000000038320                .sysSpinlockUnlock
                0x0000000000038320                __sysSpinlockUnlock
                0x0000000000038360                __sysWatchdogClear
                0x00000000000383a0                __sysWatchdogStart
                0x00000000000383e0                __sysWatchdogStop
                0x0000000000038420                __sysMalloc
                0x0000000000038460                __sysMemalign
                0x00000000000384a0                __sysMemchr
                0x00000000000384e0                __sysMemcmp
                0x0000000000038520                __sysMemcpy
                0x0000000000038560                __sysMemmove
                0x00000000000385a0                __sysMemset
                0x00000000000385e0                __sysFree
                0x0000000000038620                __sysHeapAllocHeapMemory
                0x0000000000038660                __sysHeapCreateHeap
                0x00000000000386a0                __sysHeapDeleteHeap
                0x00000000000386e0                __sysHeapFree
                0x0000000000038720                __sysHeapGetMallInfo
                0x0000000000038760                __sysHeapGetTotalFreeSize
                0x00000000000387a0                __sysHeapMalloc
                0x00000000000387e0                __sysHeapMemalign
                0x0000000000038820                __sysHeapStats
                0x0000000000038860                __sysQsort
                0x00000000000388a0                __sysMempoolCreate
                0x00000000000388e0                __sysMempoolDestroy
                0x0000000000038920                __sysMempoolGetCount
                0x0000000000038960                __sysMempoolAllocateBlock
                0x00000000000389a0                __sysMempoolTryAllocateBlock
                0x00000000000389e0                __sysMempoolFreeBlock
                0x0000000000038a20                .sysMMapperFreeMemory
                0x0000000000038a20                __sysMMapperFreeMemory
                0x0000000000038a60                __sysMMapperMapMemory
                0x0000000000038aa0                __sysMMapperUnmapMemory
                0x0000000000038aa0                .sysMMapperUnmapMemory
                0x0000000000038ae0                __sysMMapperAllocateMemory
                0x0000000000038ae0                .sysMMapperAllocateMemory
                0x0000000000038b20                __sysMMapperAllocateMemoryFromContainer
                0x0000000000038b60                __sysStrlen
                0x0000000000038ba0                __sysStrcpy
                0x0000000000038be0                __sysStrncpy
                0x0000000000038c20                __sysStrcat
                0x0000000000038c60                __sysStrncat
                0x0000000000038ca0                __sysStrchr
                0x0000000000038ce0                __sysStrrchr
                0x0000000000038d20                __sysStrcmp
                0x0000000000038d60                __sysStrncmp
                0x0000000000038da0                __sysStrncasecmp
                0x0000000000038de0                __sysToLower
                0x0000000000038e20                __sysToUpper
                0x0000000000038e60                __sysSpuElfGetSegments
                0x0000000000038ea0                __sysSpuElfGetInformation
                0x0000000000038ee0                __sysSpuRawLoad
                0x0000000000038f20                __sysSpuRawImageLoad
                0x0000000000038f60                __sysSpuImageClose
                0x0000000000038fa0                __sysSpuImageImport
                0x0000000000038fe0                __sysSpuPrintfAttachGroup
                0x0000000000039020                __sysSpuPrintfAttachThread
                0x0000000000039060                __sysSpuPrintfDetachGroup
                0x00000000000390a0                __sysSpuPrintfDetach_Tread
                0x00000000000390e0                __sysSpuPrintfFinalize
                0x0000000000039120                __sysSpuPrintfInitialize
                0x0000000000039160                __sysConsoleGetc
                0x00000000000391a0                __sysConsolePutc
                0x00000000000391e0                __sysConsoleWrite
                0x0000000000039220                __sysPrintf
                0x0000000000039260                __sysSprintf
                0x00000000000392a0                __sysSnprintf
                0x00000000000392e0                __sysVprintf
                0x0000000000039320                __sysVsprintf
                0x0000000000039360                __sysVsnprintf
 .sceStub.text  0x00000000000393a0      0xdc0 /usr/local/ps3dev/psl1ght/ppu/lib/libnet.a(sprx.o)
                0x00000000000393a0                __netErrnoLoc
                0x00000000000393e0                __netHErrnoLoc
                0x0000000000039420                __netAccept
                0x0000000000039460                __netBind
                0x00000000000394a0                .netConnect
                0x00000000000394a0                __netConnect
                0x00000000000394e0                __netGetHostByAddr
                0x0000000000039520                __netGetHostByName
                0x0000000000039560                __netGetPeerName
                0x00000000000395a0                __netGetSockName
                0x00000000000395e0                __netGetSockOpt
                0x0000000000039620                __inet_addr
                0x0000000000039660                __inet_aton
                0x00000000000396a0                __inet_lnaof
                0x00000000000396e0                __inet_makeaddr
                0x0000000000039720                __inet_netof
                0x0000000000039760                __inet_network
                0x00000000000397a0                __inet_ntoa
                0x00000000000397e0                __inet_ntop
                0x0000000000039820                __inet_pton
                0x0000000000039860                __netListen
                0x00000000000398a0                __netRecv
                0x00000000000398e0                __netRecvFrom
                0x0000000000039920                __netRecvMsg
                0x0000000000039960                .netSend
                0x0000000000039960                __netSend
                0x00000000000399a0                __netSendMsg
                0x00000000000399e0                __netSendTo
                0x0000000000039a20                __netSetSockOpt
                0x0000000000039a60                __netShutdown
                0x0000000000039aa0                .netSocket
                0x0000000000039aa0                __netSocket
                0x0000000000039ae0                __netClose
                0x0000000000039b20                __netPoll
                0x0000000000039b60                __netSelect
                0x0000000000039ba0                __netAbortResolver
                0x0000000000039be0                __netAbortSocket
                0x0000000000039c20                __netCloseDump
                0x0000000000039c60                __netFinalizeNetwork
                0x0000000000039c60                .netFinalizeNetwork
                0x0000000000039ca0                __netFreethreadContext
                0x0000000000039ce0                __netGetLibNameServer
                0x0000000000039d20                __netGetNetEmuTestParam
                0x0000000000039d60                __netGetSockInfo
                0x0000000000039da0                __netGetSockInfoEx
                0x0000000000039de0                __netGetTestParam
                0x0000000000039e20                __netGetUdpp2pTestparam
                0x0000000000039e60                __netIfCtl
                0x0000000000039ea0                .netInitializeNetworkEx
                0x0000000000039ea0                __netInitializeNetworkEx
                0x0000000000039ee0                __netOpenDump
                0x0000000000039f20                __netReadDump
                0x0000000000039f60                __netSetlibNameServer
                0x0000000000039fa0                __netSetnetemutestparam
                0x0000000000039fe0                __netSetResolverConfigurations
                0x000000000003a020                __netSetTestParam
                0x000000000003a060                __netSetUdpp2pTestParam
                0x000000000003a0a0                __netShowIfConfig
                0x000000000003a0e0                __netShowNameserver
                0x000000000003a120                __netShowRoute
 .sceStub.text  0x000000000003a160      0x200 /usr/local/ps3dev/psl1ght/ppu/lib/libsysmodule.a(sprx.o)
                0x000000000003a160                __sysModuleInitialize
                0x000000000003a1a0                __sysModuleFinalize
                0x000000000003a1e0                __sysModuleLoad
                0x000000000003a1e0                .sysModuleLoad
                0x000000000003a220                __sysModuleUnload
                0x000000000003a220                .sysModuleUnload
                0x000000000003a260                __sysModuleIsLoaded
                0x000000000003a2a0                __sysModuleGetImagesize
                0x000000000003a2e0                __sysModuleFetchImage
                0x000000000003a320                __sysModuleSetMemcontainer
 *(SORT(.sceStub.text.*))
                0x000000000003a360                PROVIDE (__etext, .)
                0x000000000003a360                PROVIDE (_etext, .)
                0x000000000003a360                PROVIDE (etext, .)

.eh_frame_hdr   0x000000000003a360        0x0
 *(.eh_frame_hdr)
 .eh_frame_hdr  0x0000000000000000        0x0 /usr/local/ps3dev/ppu/lib/gcc/powerpc64-ps3-elf/7.2.0/../../../../powerpc64-ps3-elf/lib/lv2-crtn.o

.eh_frame       0x000000000003a360        0x4
 *(.eh_frame)
 .eh_frame      0x000000000003a360        0x0 linker stubs
 .eh_frame      0x000000000003a360        0x0 /usr/local/ps3dev/ppu/lib/gcc/powerpc64-ps3-elf/7.2.0/crtbegin.o
 .eh_frame      0x000000000003a360        0x4 /usr/local/ps3dev/ppu/lib/gcc/powerpc64-ps3-elf/7.2.0/crtend.o

.gcc_except_table
 *(.gcc_except_table .gcc_except_table.*)

.rodata.sceResident
                0x000000000003a364       0x5e
 *(.rodata.sceResident)
 .rodata.sceResident
                0x000000000003a364        0xf /usr/local/ps3dev/psl1ght/ppu/lib/libgcm_sys.a(sprx.o)
 *fill*         0x000000000003a373        0x1 00
 .rodata.sceResident
                0x000000000003a374        0xb /usr/local/ps3dev/psl1ght/ppu/lib/libio.a(sprx.o)
 *fill*         0x000000000003a37f        0x1 00
 .rodata.sceResident
                0x000000000003a380       0x10 /usr/local/ps3dev/psl1ght/ppu/lib/libsysutil.a(sprx.o)
 .rodata.sceResident
                0x000000000003a390       0x12 /usr/local/ps3dev/psl1ght/ppu/lib/liblv2.a(sprx.o)
 *fill*         0x000000000003a3a2        0x2 00
 .rodata.sceResident
                0x000000000003a3a4        0xc /usr/local/ps3dev/psl1ght/ppu/lib/libnet.a(sprx.o)
 .rodata.sceResident
                0x000000000003a3b0       0x12 /usr/local/ps3dev/psl1ght/ppu/lib/libsysmodule.a(sprx.o)

.rodata.sceFNID
                0x000000000003a3c4      0x638
 *(.rodata.sceFNID .rodata.sceFNID.*)
 .rodata.sceFNID
                0x000000000003a3c4      0x164 /usr/local/ps3dev/psl1ght/ppu/lib/libgcm_sys.a(sprx.o)
                0x000000000003a3c4                gcmInitBody_fnid
                0x000000000003a3c4                cellGcmSys
                0x000000000003a3c8                gcmSetDisplayBuffer_fnid
                0x000000000003a3cc                gcmGetControlRegister_fnid
                0x000000000003a3d0                gcmAddressToOffset_fnid
                0x000000000003a3d4                gcmGetConfiguration_fnid
                0x000000000003a3d8                gcmGetCurrentField_fnid
                0x000000000003a3dc                gcmSetFlipMode_fnid
                0x000000000003a3e0                gcmGetFlipStatus_fnid
                0x000000000003a3e4                gcmGetLastFlipTime_fnid
                0x000000000003a3e8                gcmGetVBlankCount_fnid
                0x000000000003a3ec                gcmSetWaitFlip_fnid
                0x000000000003a3f0                gcmSetFlipStatus_fnid
                0x000000000003a3f4                gcmResetFlipStatus_fnid
                0x000000000003a3f8                gcmSetFlip_fnid
                0x000000000003a3fc                gcmSetFlipImmediate_fnid
                0x000000000003a400                gcmFunc15_fnid
                0x000000000003a404                gcmFunc3_fnid
                0x000000000003a408                gcmFunc1_fnid
                0x000000000003a40c                gcmFunc2_fnid
                0x000000000003a410                gcmFunc4_fnid
                0x000000000003a414                gcmFunc12_fnid
                0x000000000003a418                gcmFunc13_fnid
                0x000000000003a41c                gcmGetReport_fnid
                0x000000000003a420                gcmSetTile_fnid
                0x000000000003a424                gcmBindTile_fnid
                0x000000000003a428                gcmUnbindTile_fnid
                0x000000000003a42c                gcmSetZcull_fnid
                0x000000000003a430                gcmBindZcull_fnid
                0x000000000003a434                gcmUnbindZcull_fnid
                0x000000000003a438                gcmGetTimeStamp_fnid
                0x000000000003a43c                gcmSetVBlankFrequency_fnid
                0x000000000003a440                gcmSetSecondVFrequency_fnid
                0x000000000003a444                gcmSetDebugOutputLevel_fnid
                0x000000000003a448                gcmGetLabelAddress_fnid
                0x000000000003a44c                gcmSetVBlankHandlerEx_fnid
                0x000000000003a450                gcmSetFlipHandlerEx_fnid
                0x000000000003a454                gcmSetSecondVHandlerEx_fnid
                0x000000000003a458                gcmSetGraphicsHandlerEx_fnid
                0x000000000003a45c                gcmTerminate_fnid
                0x000000000003a460                gcmMapMainMemory_fnid
                0x000000000003a464                gcmMapEaIoAddress_fnid
                0x000000000003a468                gcmUnmapEaIoAddress_fnid
                0x000000000003a46c                gcmUnmapIoAddress_fnid
                0x000000000003a470                gcmIoOffsetToAddress_fnid
                0x000000000003a474                gcmSetDefaultCommandBuffer_fnid
                0x000000000003a478                gcmSetTileInfo_fnid
                0x000000000003a47c                gcmGetTiledPitchSize_fnid
                0x000000000003a480                gcmSetInvalidateTile_fnid
                0x000000000003a484                gcmSetUserCommandEx_fnid
                0x000000000003a488                gcmSetUserHandlerEx_fnid
                0x000000000003a48c                gcmSetQueueHandlerEx_fnid
                0x000000000003a490                gcmSetPrepareFlip_fnid
                0x000000000003a494                gcmGetOffsetTable_fnid
                0x000000000003a498                gcmGetLastSecondVTime_fnid
                0x000000000003a49c                gcmSortRemapEaIoAddress_fnid
                0x000000000003a4a0                gcmGetDisplayBufferByFlipIndex_fnid
                0x000000000003a4a4                gcmGcmGetDefaultCommandWordSize_fnid
                0x000000000003a4a8                gcmGcmGetDefaultSegmentWordSize_fnid
                0x000000000003a4ac                gcmSetDefaultCommandBufferAndSegmentWordSize_fnid
                0x000000000003a4b0                gcmGetDisplayInfo_fnid
                0x000000000003a4b4                gcmDumpGraphicsError_fnid
                0x000000000003a4b8                gcmFunc38_fnid
                0x000000000003a4bc                gcmGetCurrentDisplayBufferId_fnid
                0x000000000003a4c0                gcmGetDefaultCommandWordSize_fnid
                0x000000000003a4c4                gcmGetDefaultSegmentWordSize_fnid
                0x000000000003a4c8                gcmGetMaxIoMapSize_fnid
                0x000000000003a4cc                gcmGetNotifyDataAddress_fnid
                0x000000000003a4d0                gcmGetReportDataAddress_fnid
                0x000000000003a4d4                gcmGetReportDataAddressLocation_fnid
                0x000000000003a4d8                gcmGetReportDataLocation_fnid
                0x000000000003a4dc                gcmGetTileInfo_fnid
                0x000000000003a4e0                gcmGetTimeStampLocation_fnid
                0x000000000003a4e4                gcmGetZcullInfo_fnid
                0x000000000003a4e8                gcmInitCursor_fnid
                0x000000000003a4ec                gcmInitDefaultFifoMode_fnid
                0x000000000003a4f0                gcmInitSystemMode_fnid
                0x000000000003a4f4                gcmMapEaIoAddressWithFlags_fnid
                0x000000000003a4f8                gcmMapLocalMemory_fnid
                0x000000000003a4fc                gcmReserveIoMapSize_fnid
                0x000000000003a500                gcmSetCursorDisable_fnid
                0x000000000003a504                gcmSetCursorEnable_fnid
                0x000000000003a508                gcmSetCursorImageOffset_fnid
                0x000000000003a50c                gcmSetCursorPosition_fnid
                0x000000000003a510                gcmSetDefaultFifoSize_fnid
                0x000000000003a514                gcmSetFlipCommand_fnid
                0x000000000003a518                gcmSetFlipCommandWithWaitLabel_fnid
                0x000000000003a51c                gcmSysGetLastVBlankTime_fnid
                0x000000000003a520                gcmUnreserveIoMapSize_fnid
                0x000000000003a524                gcmUpdateCursor_fnid
 .rodata.sceFNID
                0x000000000003a528       0xbc /usr/local/ps3dev/psl1ght/ppu/lib/libio.a(sprx.o)
                0x000000000003a528                sys_io
                0x000000000003a528                sys_config_start_fnid
                0x000000000003a52c                sys_config_stop_fnid
                0x000000000003a530                sys_config_add_service_listener_fnid
                0x000000000003a534                sys_config_remove_service_listener_fnid
                0x000000000003a538                sys_config_register_service_fnid
                0x000000000003a53c                sys_config_unregister_service_fnid
                0x000000000003a540                ioPadInit_fnid
                0x000000000003a544                ioPadEnd_fnid
                0x000000000003a548                ioPadClearBuf_fnid
                0x000000000003a54c                ioPadInfoPressMode_fnid
                0x000000000003a550                ioPadLddRegisterController_fnid
                0x000000000003a554                ioPadGetInfo_fnid
                0x000000000003a558                ioPadGetRawData_fnid
                0x000000000003a55c                ioPadGetDataExtra_fnid
                0x000000000003a560                ioPadInfoSensorMode_fnid
                0x000000000003a564                ioPadGetData_fnid
                0x000000000003a568                ioPadLddGetPortNo_fnid
                0x000000000003a56c                ioPadLddDataInsert_fnid
                0x000000000003a570                ioPadSetSensorMode_fnid
                0x000000000003a574                ioPadGetCapabilityInfo_fnid
                0x000000000003a578                ioPadLddUnregisterController_fnid
                0x000000000003a57c                ioPadSetActDirect_fnid
                0x000000000003a580                ioPadSetPressMode_fnid
                0x000000000003a584                ioPadPeriphGetInfo_fnid
                0x000000000003a588                ioPadSetPortSetting_fnid
                0x000000000003a58c                ioPadPeriphGetData_fnid
                0x000000000003a590                ioPadGetInfo2_fnid
                0x000000000003a594                ioMouseInit_fnid
                0x000000000003a598                ioMouseEnd_fnid
                0x000000000003a59c                ioMouseClearBuf_fnid
                0x000000000003a5a0                ioMouseGetInfo_fnid
                0x000000000003a5a4                ioMouseGetTabletDataList_fnid
                0x000000000003a5a8                ioMouseSetTabletMode_fnid
                0x000000000003a5ac                ioMouseGetData_fnid
                0x000000000003a5b0                ioMouseInfoTabletMode_fnid
                0x000000000003a5b4                ioMouseGetRawData_fnid
                0x000000000003a5b8                ioMouseGetDataList_fnid
                0x000000000003a5bc                ioKbInit_fnid
                0x000000000003a5c0                ioKbEnd_fnid
                0x000000000003a5c4                ioKbRead_fnid
                0x000000000003a5c8                ioKbSetReadMode_fnid
                0x000000000003a5cc                ioKbSetCodeType_fnid
                0x000000000003a5d0                ioKbCnvRawCode_fnid
                0x000000000003a5d4                ioKbSetLEDStatus_fnid
                0x000000000003a5d8                ioKbGetInfo_fnid
                0x000000000003a5dc                ioKbGetConfiguration_fnid
                0x000000000003a5e0                ioKbClearBuf_fnid
 .rodata.sceFNID
                0x000000000003a5e4      0x140 /usr/local/ps3dev/psl1ght/ppu/lib/libsysutil.a(sprx.o)
                0x000000000003a5e4                cellSysutil
                0x000000000003a5e4                videoGetResolution_fnid
                0x000000000003a5e8                videoConfigure_fnid
                0x000000000003a5ec                videoGetState_fnid
                0x000000000003a5f0                videoGetDeviceInfo_fnid
                0x000000000003a5f4                videoGetConfiguration_fnid
                0x000000000003a5f8                videoGetResolutionAvailability_fnid
                0x000000000003a5fc                videoDebugSetMonitorType_fnid
                0x000000000003a600                videoRegisterCallbackEx_fnid
                0x000000000003a604                videoUnregisterCallback_fnid
                0x000000000003a608                videoGetNumberOfDevice_fnid
                0x000000000003a60c                videoGetConvertCursorColorInfo_fnid
                0x000000000003a610                msgDialogClose_fnid
                0x000000000003a614                msgDialogOpenErrorCodeEx_fnid
                0x000000000003a618                msgDialogOpenEx_fnid
                0x000000000003a61c                msgDialogProgressBarInc_fnid
                0x000000000003a620                msgDialogAbort_fnid
                0x000000000003a624                msgDialogOpen2Ex_fnid
                0x000000000003a628                msgDialogProgressBarReset_fnid
                0x000000000003a62c                msgDialogProgressBarSetMsg_fnid
                0x000000000003a630                oskGetInputText_fnid
                0x000000000003a634                oskSetInitialInputDevice_fnid
                0x000000000003a638                oskGetSize_fnid
                0x000000000003a63c                oskUnloadAsync_fnid
                0x000000000003a640                oskDisableDimmer_fnid
                0x000000000003a644                oskSetKeyLayoutOption_fnid
                0x000000000003a648                oskAbort_fnid
                0x000000000003a64c                oskSetDeviceMask_fnid
                0x000000000003a650                oskSetSeparateWindowOption_fnid
                0x000000000003a654                oskAddSupportLanguage_fnid
                0x000000000003a658                oskLoadAsync_fnid
                0x000000000003a65c                oskSetInitialKeyLayout_fnid
                0x000000000003a660                oskSetLayoutMode_fnid
                0x000000000003a664                sysUtilRegisterCallbackEx_fnid
                0x000000000003a668                sysUtilCheckCallback_fnid
                0x000000000003a66c                sysUtilUnregisterCallback_fnid
                0x000000000003a670                sysSaveListLoad2Ex_fnid
                0x000000000003a674                sysSaveListSave2Ex_fnid
                0x000000000003a678                sysSaveListAutoLoadEx_fnid
                0x000000000003a67c                sysSaveListAutoSaveEx_fnid
                0x000000000003a680                sysSaveFixedLoad2Ex_fnid
                0x000000000003a684                sysSaveFixedSave2Ex_fnid
                0x000000000003a688                sysSaveAutoLoad2Ex_fnid
                0x000000000003a68c                sysSaveAutoSave2Ex_fnid
                0x000000000003a690                sysSaveDelete2_fnid
                0x000000000003a694                sysGameDataCheck_fnid
                0x000000000003a698                sysGameBootCheck_fnid
                0x000000000003a69c                sysGamePatchCheck_fnid
                0x000000000003a6a0                sysGameCreateGameData_fnid
                0x000000000003a6a4                sysGameGetParamInt_fnid
                0x000000000003a6a8                sysGameGetParamString_fnid
                0x000000000003a6ac                sysGameGetSizeKB_fnid
                0x000000000003a6b0                sysGameSetParamString_fnid
                0x000000000003a6b4                sysGameGetDiscContentInfoUpdatePath_fnid
                0x000000000003a6b8                sysGameContentPermit_fnid
                0x000000000003a6bc                sysGameContentErrorDialog_fnid
                0x000000000003a6c0                sysGameThemeInstall_fnid
                0x000000000003a6c4                sysGameThemeInstallFromBufferEx_fnid
                0x000000000003a6c8                sysGameGetLocalWebContentPath_fnid
                0x000000000003a6cc                sysGameDeleteGameData_fnid
                0x000000000003a6d0                sysGameRegisterDiscChangeCallbackEx_fnid
                0x000000000003a6d4                sysGameUnregisterDiscChangeCallback_fnid
                0x000000000003a6d8                sysDiscRegisterDiscChangeCallbackEx_fnid
                0x000000000003a6dc                sysDiscUnregisterDiscChangeCallback_fnid
                0x000000000003a6e0                sysTrophyInit_fnid
                0x000000000003a6e4                sysTrophyAbortHandle_fnid
                0x000000000003a6e8                sysTrophyCreateContext_fnid
                0x000000000003a6ec                sysTrophyCreateHandle_fnid
                0x000000000003a6f0                sysTrophyDestroyContext_fnid
                0x000000000003a6f4                sysTrophyDestroyHandle_fnid
                0x000000000003a6f8                sysTrophyGetGameIcon_fnid
                0x000000000003a6fc                sysTrophyGetGameInfo_fnid
                0x000000000003a700                sysTrophyGetGameProgress_fnid
                0x000000000003a704                sysTrophyGetRequiredDiskSpace_fnid
                0x000000000003a708                sysTrophyGetTrophyIcon_fnid
                0x000000000003a70c                sysTrophyGetTrophyInfo_fnid
                0x000000000003a710                sysTrophyGetTrophyUnlockState_fnid
                0x000000000003a714                sysTrophyRegisterContextEx_fnid
                0x000000000003a718                sysTrophySetSoundLevel_fnid
                0x000000000003a71c                sysTrophyTerm_fnid
                0x000000000003a720                sysTrophyUnlockTrophy_fnid
 .rodata.sceFNID
                0x000000000003a724      0x1dc /usr/local/ps3dev/psl1ght/ppu/lib/liblv2.a(sprx.o)
                0x000000000003a724                sysPrxForUser
                0x000000000003a724                sysGetSystemTime_fnid
                0x000000000003a728                sysGetSystemSwVersion_fnid
                0x000000000003a72c                sysGetTemperature_fnid
                0x000000000003a730                sysGetRandomNumber_fnid
                0x000000000003a734                sysGetRtcStatus_fnid
                0x000000000003a738                sysBoardStorageRead_fnid
                0x000000000003a73c                sysBoardStorageWrite_fnid
                0x000000000003a740                sysProcessIsStack_fnid
                0x000000000003a744                sysProcessExit_fnid
                0x000000000003a748                sysProcessExitspawn_fnid
                0x000000000003a74c                sysProcessExitSpawn2Ex_fnid
                0x000000000003a750                sysProcessExitSpawnWithLevel_fnid
                0x000000000003a754                sysProcessAtExitSpawn_fnid
                0x000000000003a758                sysProcess_At_ExitSpawn_fnid
                0x000000000003a75c                sysPrxRegisterLibrary_fnid
                0x000000000003a760                sysPrxUnregisterLibrary_fnid
                0x000000000003a764                sysPrxStartModule_fnid
                0x000000000003a768                sysPrxStopModule_fnid
                0x000000000003a76c                sysPrxLoadModule_fnid
                0x000000000003a770                sysPrxLoadModuleByFd_fnid
                0x000000000003a774                sysPrxLoadModuleList_fnid
                0x000000000003a778                sysPrxLoadModuleListOnMemcontainer_fnid
                0x000000000003a77c                sysPrxLoadModuleOnMemcontainer_fnid
                0x000000000003a780                sysPrxLoadModuleOnMemcontainerByFd_fnid
                0x000000000003a784                sysPrxGetModuleInfo_fnid
                0x000000000003a788                sysPrxGetModuleList_fnid
                0x000000000003a78c                sysPrxGetModuleId_fnid
                0x000000000003a790                sysPrxGetModuleIdByAddress_fnid
                0x000000000003a794                sysPrxGetModuleIdByName_fnid
                0x000000000003a798                sysPrxUnloadModule_fnid
                0x000000000003a79c                sysPrxExitSpawnWithLevel_fnid
                0x000000000003a7a0                sysThreadCreateEx_fnid
                0x000000000003a7a4                sysThreadExit_fnid
                0x000000000003a7a8                sysThreadGetId_fnid
                0x000000000003a7ac                sysThreadOnce_fnid
                0x000000000003a7b0                sysThreadInitialzeTLS_fnid
                0x000000000003a7b4                sysThreadRegisterAtexit_fnid
                0x000000000003a7b8                sysThreadUnregisterAtexit_fnid
                0x000000000003a7bc                sysInterruptThreadDisestablish_fnid
                0x000000000003a7c0                sysLwMutexCreate_fnid
                0x000000000003a7c4                sysLwMutexDestroy_fnid
                0x000000000003a7c8                sysLwMutexLock_fnid
                0x000000000003a7cc                sysLwMutexTryLock_fnid
                0x000000000003a7d0                sysLwMutexUnlock_fnid
                0x000000000003a7d4                sysLwCondCreate_fnid
                0x000000000003a7d8                sysLwCondWait_fnid
                0x000000000003a7dc                sysLwCondSignal_fnid
                0x000000000003a7e0                sysLwCondSignalTo_fnid
                0x000000000003a7e4                sysLwCondSignalAll_fnid
                0x000000000003a7e8                sysLwCondDestroy_fnid
                0x000000000003a7ec                sysSpinlockInitialize_fnid
                0x000000000003a7f0                sysSpinlockLock_fnid
                0x000000000003a7f4                sysSpinlockTryLock_fnid
                0x000000000003a7f8                sysSpinlockUnlock_fnid
                0x000000000003a7fc                sysWatchdogClear_fnid
                0x000000000003a800                sysWatchdogStart_fnid
                0x000000000003a804                sysWatchdogStop_fnid
                0x000000000003a808                sysMalloc_fnid
                0x000000000003a80c                sysMemalign_fnid
                0x000000000003a810                sysMemchr_fnid
                0x000000000003a814                sysMemcmp_fnid
                0x000000000003a818                sysMemcpy_fnid
                0x000000000003a81c                sysMemmove_fnid
                0x000000000003a820                sysMemset_fnid
                0x000000000003a824                sysFree_fnid
                0x000000000003a828                sysHeapAllocHeapMemory_fnid
                0x000000000003a82c                sysHeapCreateHeap_fnid
                0x000000000003a830                sysHeapDeleteHeap_fnid
                0x000000000003a834                sysHeapFree_fnid
                0x000000000003a838                sysHeapGetMallInfo_fnid
                0x000000000003a83c                sysHeapGetTotalFreeSize_fnid
                0x000000000003a840                sysHeapMalloc_fnid
                0x000000000003a844                sysHeapMemalign_fnid
                0x000000000003a848                sysHeapStats_fnid
                0x000000000003a84c                sysQsort_fnid
                0x000000000003a850                sysMempoolCreate_fnid
                0x000000000003a854                sysMempoolDestroy_fnid
                0x000000000003a858                sysMempoolGetCount_fnid
                0x000000000003a85c                sysMempoolAllocateBlock_fnid
                0x000000000003a860                sysMempoolTryAllocateBlock_fnid
                0x000000000003a864                sysMempoolFreeBlock_fnid
                0x000000000003a868                sysMMapperFreeMemory_fnid
                0x000000000003a86c                sysMMapperMapMemory_fnid
                0x000000000003a870                sysMMapperUnmapMemory_fnid
                0x000000000003a874                sysMMapperAllocateMemory_fnid
                0x000000000003a878                sysMMapperAllocateMemoryFromContainer_fnid
                0x000000000003a87c                sysStrlen_fnid
                0x000000000003a880                sysStrcpy_fnid
                0x000000000003a884                sysStrncpy_fnid
                0x000000000003a888                sysStrcat_fnid
                0x000000000003a88c                sysStrncat_fnid
                0x000000000003a890                sysStrchr_fnid
                0x000000000003a894                sysStrrchr_fnid
                0x000000000003a898                sysStrcmp_fnid
                0x000000000003a89c                sysStrncmp_fnid
                0x000000000003a8a0                sysStrncasecmp_fnid
                0x000000000003a8a4                sysToLower_fnid
                0x000000000003a8a8                sysToUpper_fnid
                0x000000000003a8ac                sysSpuElfGetSegments_fnid
                0x000000000003a8b0                sysSpuElfGetInformation_fnid
                0x000000000003a8b4                sysSpuRawLoad_fnid
                0x000000000003a8b8                sysSpuRawImageLoad_fnid
                0x000000000003a8bc                sysSpuImageClose_fnid
                0x000000000003a8c0                sysSpuImageImport_fnid
                0x000000000003a8c4                sysSpuPrintfAttachGroup_fnid
                0x000000000003a8c8                sysSpuPrintfAttachThread_fnid
                0x000000000003a8cc                sysSpuPrintfDetachGroup_fnid
                0x000000000003a8d0                sysSpuPrintfDetach_Tread_fnid
                0x000000000003a8d4                sysSpuPrintfFinalize_fnid
                0x000000000003a8d8                sysSpuPrintfInitialize_fnid
                0x000000000003a8dc                sysConsoleGetc_fnid
                0x000000000003a8e0                sysConsolePutc_fnid
                0x000000000003a8e4                sysConsoleWrite_fnid
                0x000000000003a8e8                sysPrintf_fnid
                0x000000000003a8ec                sysSprintf_fnid
                0x000000000003a8f0                sysSnprintf_fnid
                0x000000000003a8f4                sysVprintf_fnid
                0x000000000003a8f8                sysVsprintf_fnid
                0x000000000003a8fc                sysVsnprintf_fnid
 .rodata.sceFNID
                0x000000000003a900       0xdc /usr/local/ps3dev/psl1ght/ppu/lib/libnet.a(sprx.o)
                0x000000000003a900                sys_net
                0x000000000003a900                netErrnoLoc_fnid
                0x000000000003a904                netHErrnoLoc_fnid
                0x000000000003a908                netAccept_fnid
                0x000000000003a90c                netBind_fnid
                0x000000000003a910                netConnect_fnid
                0x000000000003a914                netGetHostByAddr_fnid
                0x000000000003a918                netGetHostByName_fnid
                0x000000000003a91c                netGetPeerName_fnid
                0x000000000003a920                netGetSockName_fnid
                0x000000000003a924                netGetSockOpt_fnid
                0x000000000003a928                inet_addr_fnid
                0x000000000003a92c                inet_aton_fnid
                0x000000000003a930                inet_lnaof_fnid
                0x000000000003a934                inet_makeaddr_fnid
                0x000000000003a938                inet_netof_fnid
                0x000000000003a93c                inet_network_fnid
                0x000000000003a940                inet_ntoa_fnid
                0x000000000003a944                inet_ntop_fnid
                0x000000000003a948                inet_pton_fnid
                0x000000000003a94c                netListen_fnid
                0x000000000003a950                netRecv_fnid
                0x000000000003a954                netRecvFrom_fnid
                0x000000000003a958                netRecvMsg_fnid
                0x000000000003a95c                netSend_fnid
                0x000000000003a960                netSendMsg_fnid
                0x000000000003a964                netSendTo_fnid
                0x000000000003a968                netSetSockOpt_fnid
                0x000000000003a96c                netShutdown_fnid
                0x000000000003a970                netSocket_fnid
                0x000000000003a974                netClose_fnid
                0x000000000003a978                netPoll_fnid
                0x000000000003a97c                netSelect_fnid
                0x000000000003a980                netAbortResolver_fnid
                0x000000000003a984                netAbortSocket_fnid
                0x000000000003a988                netCloseDump_fnid
                0x000000000003a98c                netFinalizeNetwork_fnid
                0x000000000003a990                netFreethreadContext_fnid
                0x000000000003a994                netGetLibNameServer_fnid
                0x000000000003a998                netGetNetEmuTestParam_fnid
                0x000000000003a99c                netGetSockInfo_fnid
                0x000000000003a9a0                netGetSockInfoEx_fnid
                0x000000000003a9a4                netGetTestParam_fnid
                0x000000000003a9a8                netGetUdpp2pTestparam_fnid
                0x000000000003a9ac                netIfCtl_fnid
                0x000000000003a9b0                netInitializeNetworkEx_fnid
                0x000000000003a9b4                netOpenDump_fnid
                0x000000000003a9b8                netReadDump_fnid
                0x000000000003a9bc                netSetlibNameServer_fnid
                0x000000000003a9c0                netSetnetemutestparam_fnid
                0x000000000003a9c4                netSetResolverConfigurations_fnid
                0x000000000003a9c8                netSetTestParam_fnid
                0x000000000003a9cc                netSetUdpp2pTestParam_fnid
                0x000000000003a9d0                netShowIfConfig_fnid
                0x000000000003a9d4                netShowNameserver_fnid
                0x000000000003a9d8                netShowRoute_fnid
 .rodata.sceFNID
                0x000000000003a9dc       0x20 /usr/local/ps3dev/psl1ght/ppu/lib/libsysmodule.a(sprx.o)
                0x000000000003a9dc                cellSysmodule
                0x000000000003a9dc                sysModuleInitialize_fnid
                0x000000000003a9e0                sysModuleFinalize_fnid
                0x000000000003a9e4                sysModuleLoad_fnid
                0x000000000003a9e8                sysModuleUnload_fnid
                0x000000000003a9ec                sysModuleIsLoaded_fnid
                0x000000000003a9f0                sysModuleGetImagesize_fnid
                0x000000000003a9f4                sysModuleFetchImage_fnid
                0x000000000003a9f8                sysModuleSetMemcontainer_fnid

.rodata.sceVNID
 *(.rodata.sceVNID .rodata.sceVNID.*)

.rodata.sceTNID
 *(.rodata.sceTNID .rodata.sceTNID.*)

.rodata.sceVStub
 *(.rodata.sceVStub)
 *(SORT(.rodata.sceVStub.*))
                0x000000000003a9fc                PROVIDE (__libentstart, .)

.lib.ent.top
 *(.lib.ent.top)

.lib.ent        0x000000000003a9fc        0x0
 *(.lib.ent)
 .lib.ent       0x000000000003a9fc        0x0 /usr/local/ps3dev/ppu/lib/gcc/powerpc64-ps3-elf/7.2.0/../../../../powerpc64-ps3-elf/lib/lv2-sprx.o

.lib.ent.btm
 *(.lib.ent.btm)
                0x000000000003a9fc                PROVIDE (__libentend, .)
                0x000000000003a9fc                PROVIDE (__libstubstart, .)

.lib.stub.top
 *(.lib.stub.top)

.lib.stub       0x000000000003a9fc      0x108
 *(.lib.stub)
 .lib.stub      0x000000000003a9fc        0x0 /usr/local/ps3dev/ppu/lib/gcc/powerpc64-ps3-elf/7.2.0/../../../../powerpc64-ps3-elf/lib/lv2-sprx.o
 .lib.stub      0x000000000003a9fc       0x2c /usr/local/ps3dev/psl1ght/ppu/lib/libgcm_sys.a(sprx.o)
 .lib.stub      0x000000000003aa28       0x2c /usr/local/ps3dev/psl1ght/ppu/lib/libio.a(sprx.o)
 .lib.stub      0x000000000003aa54       0x2c /usr/local/ps3dev/psl1ght/ppu/lib/libsysutil.a(sprx.o)
 .lib.stub      0x000000000003aa80       0x2c /usr/local/ps3dev/psl1ght/ppu/lib/liblv2.a(sprx.o)
 .lib.stub      0x000000000003aaac       0x2c /usr/local/ps3dev/psl1ght/ppu/lib/libnet.a(sprx.o)
 .lib.stub      0x000000000003aad8       0x2c /usr/local/ps3dev/psl1ght/ppu/lib/libsysmodule.a(sprx.o)

.lib.stub.btm
 *(.lib.stub.btm)
                0x000000000003ab04                PROVIDE (__libstubend, .)

.ppu_rodata
 *(.ppu_rodata .ppu_rodata.*)

.sys_proc_param
 *(.sys_proc_param)

.sys_proc_prx_param
                0x000000000003ab04       0x28
 *(.sys_proc_prx_param)
 .sys_proc_prx_param
                0x000000000003ab04       0x28 /usr/local/ps3dev/ppu/lib/gcc/powerpc64-ps3-elf/7.2.0/../../../../powerpc64-ps3-elf/lib/lv2-sprx.o
                0x0000000000040000                . = ALIGN (0x10000)

.ppu_data
 *(.ppu_data .ppu_data.*)

.sdata2
 *(.sdata2 .sdata2.* .gnu.linkonce.s2.*)

.sbss2
 *(.sbss2 .sbss2.* .gnu.linkonce.sb2.*)

.eh_frame
 *(.eh_frame)

.gcc_except_table
 *(.gcc_except_table .gcc_except_table.*)
                0x0000000000040000                . = ALIGN (0x8)

.preinit_array  0x0000000000040000        0x0
                0x0000000000040000                PROVIDE (__preinit_array_start, .)
 *(.preinit_array)
                0x0000000000040000                PROVIDE (__preinit_array_end, .)

.init_array     0x0000000000040000        0x0
                0x0000000000040000                PROVIDE (__init_array_start, .)
 *(SORT(.init_array.*))
 *(.init_array)
                0x0000000000040000                PROVIDE (__init_array_end, .)

.fini_array     0x0000000000040000        0x0
                0x0000000000040000                PROVIDE (__fini_array_start, .)
 *(.fini_array)
 *(SORT(.fini_array.*))
                0x0000000000040000                PROVIDE (__fini_array_end, .)

.ctors          0x0000000000040000       0x28
 *crtbegin.o(.ctors)
 .ctors         0x0000000000040000        0x8 /usr/local/ps3dev/ppu/lib/gcc/powerpc64-ps3-elf/7.2.0/crtbegin.o
 *crtbegin?.o(.ctors)
 *(EXCLUDE_FILE(*crtend?.o *crtend.o) .ctors)
 *(SORT(.ctors.*))
 .ctors.65430   0x0000000000040008        0x8 /usr/local/ps3dev/ppu/lib/gcc/powerpc64-ps3-elf/7.2.0/../../../../powerpc64-ps3-elf/lib/libc.a(lib_a-lock_internal.o)
 .ctors.65431   0x0000000000040010        0x8 /usr/local/ps3dev/ppu/lib/gcc/powerpc64-ps3-elf/7.2.0/../../../../powerpc64-ps3-elf/lib/lv2-crt0.o
 .ctors.65432   0x0000000000040018        0x8 /usr/local/ps3dev/psl1ght/ppu/lib/librt.a(sbrk.o)
 *(.ctors)
 .ctors         0x0000000000040020        0x8 /usr/local/ps3dev/ppu/lib/gcc/powerpc64-ps3-elf/7.2.0/crtend.o

.dtors          0x0000000000040028       0x10
 *crtbegin.o(.dtors)
 .dtors         0x0000000000040028        0x8 /usr/local/ps3dev/ppu/lib/gcc/powerpc64-ps3-elf/7.2.0/crtbegin.o
 *crtbegin?.o(.dtors)
 *(EXCLUDE_FILE(*crtend?.o *crtend.o) .dtors)
 *(SORT(.dtors.*))
 *(.dtors)
 .dtors         0x0000000000040030        0x8 /usr/local/ps3dev/ppu/lib/gcc/powerpc64-ps3-elf/7.2.0/crtend.o
                0x0000000000040030                __DTOR_END__

.jcr
 *(.jcr)

.data.rel.ro
 *(.data.rel.ro.local*)
 *(.data.rel.ro*)

.dynamic
 *(.dynamic)

.data.sceFStub  0x0000000000040038      0x638
 *(.data.sceFStub)
 *(SORT(.data.sceFStub.*))
 .data.sceFStub.cellGcmSys
                0x0000000000040038      0x164 /usr/local/ps3dev/psl1ght/ppu/lib/libgcm_sys.a(sprx.o)
                0x0000000000040038                gcmInitBody_stub
                0x000000000004003c                gcmSetDisplayBuffer_stub
                0x0000000000040040                gcmGetControlRegister_stub
                0x0000000000040044                gcmAddressToOffset_stub
                0x0000000000040048                gcmGetConfiguration_stub
                0x000000000004004c                gcmGetCurrentField_stub
                0x0000000000040050                gcmSetFlipMode_stub
                0x0000000000040054                gcmGetFlipStatus_stub
                0x0000000000040058                gcmGetLastFlipTime_stub
                0x000000000004005c                gcmGetVBlankCount_stub
                0x0000000000040060                gcmSetWaitFlip_stub
                0x0000000000040064                gcmSetFlipStatus_stub
                0x0000000000040068                gcmResetFlipStatus_stub
                0x000000000004006c                gcmSetFlip_stub
                0x0000000000040070                gcmSetFlipImmediate_stub
                0x0000000000040074                gcmFunc15_stub
                0x0000000000040078                gcmFunc3_stub
                0x000000000004007c                gcmFunc1_stub
                0x0000000000040080                gcmFunc2_stub
                0x0000000000040084                gcmFunc4_stub
                0x0000000000040088                gcmFunc12_stub
                0x000000000004008c                gcmFunc13_stub
                0x0000000000040090                gcmGetReport_stub
                0x0000000000040094                gcmSetTile_stub
                0x0000000000040098                gcmBindTile_stub
                0x000000000004009c                gcmUnbindTile_stub
                0x00000000000400a0                gcmSetZcull_stub
                0x00000000000400a4                gcmBindZcull_stub
                0x00000000000400a8                gcmUnbindZcull_stub
                0x00000000000400ac                gcmGetTimeStamp_stub
                0x00000000000400b0                gcmSetVBlankFrequency_stub
                0x00000000000400b4                gcmSetSecondVFrequency_stub
                0x00000000000400b8                gcmSetDebugOutputLevel_stub
                0x00000000000400bc                gcmGetLabelAddress_stub
                0x00000000000400c0                gcmSetVBlankHandlerEx_stub
                0x00000000000400c4                gcmSetFlipHandlerEx_stub
                0x00000000000400c8                gcmSetSecondVHandlerEx_stub
                0x00000000000400cc                gcmSetGraphicsHandlerEx_stub
                0x00000000000400d0                gcmTerminate_stub
                0x00000000000400d4                gcmMapMainMemory_stub
                0x00000000000400d8                gcmMapEaIoAddress_stub
                0x00000000000400dc                gcmUnmapEaIoAddress_stub
                0x00000000000400e0                gcmUnmapIoAddress_stub
                0x00000000000400e4                gcmIoOffsetToAddress_stub
                0x00000000000400e8                gcmSetDefaultCommandBuffer_stub
                0x00000000000400ec                gcmSetTileInfo_stub
                0x00000000000400f0                gcmGetTiledPitchSize_stub
                0x00000000000400f4                gcmSetInvalidateTile_stub
                0x00000000000400f8                gcmSetUserCommandEx_stub
                0x00000000000400fc                gcmSetUserHandlerEx_stub
                0x0000000000040100                gcmSetQueueHandlerEx_stub
                0x0000000000040104                gcmSetPrepareFlip_stub
                0x0000000000040108                gcmGetOffsetTable_stub
                0x000000000004010c                gcmGetLastSecondVTime_stub
                0x0000000000040110                gcmSortRemapEaIoAddress_stub
                0x0000000000040114                gcmGetDisplayBufferByFlipIndex_stub
                0x0000000000040118                gcmGcmGetDefaultCommandWordSize_stub
                0x000000000004011c                gcmGcmGetDefaultSegmentWordSize_stub
                0x0000000000040120                gcmSetDefaultCommandBufferAndSegmentWordSize_stub
                0x0000000000040124                gcmGetDisplayInfo_stub
                0x0000000000040128                gcmDumpGraphicsError_stub
                0x000000000004012c                gcmFunc38_stub
                0x0000000000040130                gcmGetCurrentDisplayBufferId_stub
                0x0000000000040134                gcmGetDefaultCommandWordSize_stub
                0x0000000000040138                gcmGetDefaultSegmentWordSize_stub
                0x000000000004013c                gcmGetMaxIoMapSize_stub
                0x0000000000040140                gcmGetNotifyDataAddress_stub
                0x0000000000040144                gcmGetReportDataAddress_stub
                0x0000000000040148                gcmGetReportDataAddressLocation_stub
                0x000000000004014c                gcmGetReportDataLocation_stub
                0x0000000000040150                gcmGetTileInfo_stub
                0x0000000000040154                gcmGetTimeStampLocation_stub
                0x0000000000040158                gcmGetZcullInfo_stub
                0x000000000004015c                gcmInitCursor_stub
                0x0000000000040160                gcmInitDefaultFifoMode_stub
                0x0000000000040164                gcmInitSystemMode_stub
                0x0000000000040168                gcmMapEaIoAddressWithFlags_stub
                0x000000000004016c                gcmMapLocalMemory_stub
                0x0000000000040170                gcmReserveIoMapSize_stub
                0x0000000000040174                gcmSetCursorDisable_stub
                0x0000000000040178                gcmSetCursorEnable_stub
                0x000000000004017c                gcmSetCursorImageOffset_stub
                0x0000000000040180                gcmSetCursorPosition_stub
                0x0000000000040184                gcmSetDefaultFifoSize_stub
                0x0000000000040188                gcmSetFlipCommand_stub
                0x000000000004018c                gcmSetFlipCommandWithWaitLabel_stub
                0x0000000000040190                gcmSysGetLastVBlankTime_stub
                0x0000000000040194                gcmUnreserveIoMapSize_stub
                0x0000000000040198                gcmUpdateCursor_stub
 .data.sceFStub.cellSysmodule
                0x000000000004019c       0x20 /usr/local/ps3dev/psl1ght/ppu/lib/libsysmodule.a(sprx.o)
                0x000000000004019c                sysModuleInitialize_stub
                0x00000000000401a0                sysModuleFinalize_stub
                0x00000000000401a4                sysModuleLoad_stub
                0x00000000000401a8                sysModuleUnload_stub
                0x00000000000401ac                sysModuleIsLoaded_stub
                0x00000000000401b0                sysModuleGetImagesize_stub
                0x00000000000401b4                sysModuleFetchImage_stub
                0x00000000000401b8                sysModuleSetMemcontainer_stub
 .data.sceFStub.cellSysutil
                0x00000000000401bc      0x140 /usr/local/ps3dev/psl1ght/ppu/lib/libsysutil.a(sprx.o)
                0x00000000000401bc                videoGetResolution_stub
                0x00000000000401c0                videoConfigure_stub
                0x00000000000401c4                videoGetState_stub
                0x00000000000401c8                videoGetDeviceInfo_stub
                0x00000000000401cc                videoGetConfiguration_stub
                0x00000000000401d0                videoGetResolutionAvailability_stub
                0x00000000000401d4                videoDebugSetMonitorType_stub
                0x00000000000401d8                videoRegisterCallbackEx_stub
                0x00000000000401dc                videoUnregisterCallback_stub
                0x00000000000401e0                videoGetNumberOfDevice_stub
                0x00000000000401e4                videoGetConvertCursorColorInfo_stub
                0x00000000000401e8                msgDialogClose_stub
                0x00000000000401ec                msgDialogOpenErrorCodeEx_stub
                0x00000000000401f0                msgDialogOpenEx_stub
                0x00000000000401f4                msgDialogProgressBarInc_stub
                0x00000000000401f8                msgDialogAbort_stub
                0x00000000000401fc                msgDialogOpen2Ex_stub
                0x0000000000040200                msgDialogProgressBarReset_stub
                0x0000000000040204                msgDialogProgressBarSetMsg_stub
                0x0000000000040208                oskGetInputText_stub
                0x000000000004020c                oskSetInitialInputDevice_stub
                0x0000000000040210                oskGetSize_stub
                0x0000000000040214                oskUnloadAsync_stub
                0x0000000000040218                oskDisableDimmer_stub
                0x000000000004021c                oskSetKeyLayoutOption_stub
                0x0000000000040220                oskAbort_stub
                0x0000000000040224                oskSetDeviceMask_stub
                0x0000000000040228                oskSetSeparateWindowOption_stub
                0x000000000004022c                oskAddSupportLanguage_stub
                0x0000000000040230                oskLoadAsync_stub
                0x0000000000040234                oskSetInitialKeyLayout_stub
                0x0000000000040238                oskSetLayoutMode_stub
                0x000000000004023c                sysUtilRegisterCallbackEx_stub
                0x0000000000040240                sysUtilCheckCallback_stub
                0x0000000000040244                sysUtilUnregisterCallback_stub
                0x0000000000040248                sysSaveListLoad2Ex_stub
                0x000000000004024c                sysSaveListSave2Ex_stub
                0x0000000000040250                sysSaveListAutoLoadEx_stub
                0x0000000000040254                sysSaveListAutoSaveEx_stub
                0x0000000000040258                sysSaveFixedLoad2Ex_stub
                0x000000000004025c                sysSaveFixedSave2Ex_stub
                0x0000000000040260                sysSaveAutoLoad2Ex_stub
                0x0000000000040264                sysSaveAutoSave2Ex_stub
                0x0000000000040268                sysSaveDelete2_stub
                0x000000000004026c                sysGameDataCheck_stub
                0x0000000000040270                sysGameBootCheck_stub
                0x0000000000040274                sysGamePatchCheck_stub
                0x0000000000040278                sysGameCreateGameData_stub
                0x000000000004027c                sysGameGetParamInt_stub
                0x0000000000040280                sysGameGetParamString_stub
                0x0000000000040284                sysGameGetSizeKB_stub
                0x0000000000040288                sysGameSetParamString_stub
                0x000000000004028c                sysGameGetDiscContentInfoUpdatePath_stub
                0x0000000000040290                sysGameContentPermit_stub
                0x0000000000040294                sysGameContentErrorDialog_stub
                0x0000000000040298                sysGameThemeInstall_stub
                0x000000000004029c                sysGameThemeInstallFromBufferEx_stub
                0x00000000000402a0                sysGameGetLocalWebContentPath_stub
                0x00000000000402a4                sysGameDeleteGameData_stub
                0x00000000000402a8                sysGameRegisterDiscChangeCallbackEx_stub
                0x00000000000402ac                sysGameUnregisterDiscChangeCallback_stub
                0x00000000000402b0                sysDiscRegisterDiscChangeCallbackEx_stub
                0x00000000000402b4                sysDiscUnregisterDiscChangeCallback_stub
                0x00000000000402b8                sysTrophyInit_stub
                0x00000000000402bc                sysTrophyAbortHandle_stub
                0x00000000000402c0                sysTrophyCreateContext_stub
                0x00000000000402c4                sysTrophyCreateHandle_stub
                0x00000000000402c8                sysTrophyDestroyContext_stub
                0x00000000000402cc                sysTrophyDestroyHandle_stub
                0x00000000000402d0                sysTrophyGetGameIcon_stub
                0x00000000000402d4                sysTrophyGetGameInfo_stub
                0x00000000000402d8                sysTrophyGetGameProgress_stub
                0x00000000000402dc                sysTrophyGetRequiredDiskSpace_stub
                0x00000000000402e0                sysTrophyGetTrophyIcon_stub
                0x00000000000402e4                sysTrophyGetTrophyInfo_stub
                0x00000000000402e8                sysTrophyGetTrophyUnlockState_stub
                0x00000000000402ec                sysTrophyRegisterContextEx_stub
                0x00000000000402f0                sysTrophySetSoundLevel_stub
                0x00000000000402f4                sysTrophyTerm_stub
                0x00000000000402f8                sysTrophyUnlockTrophy_stub
 .data.sceFStub.sysPrxForUser
                0x00000000000402fc      0x1dc /usr/local/ps3dev/psl1ght/ppu/lib/liblv2.a(sprx.o)
                0x00000000000402fc                sysGetSystemTime_stub
                0x0000000000040300                sysGetSystemSwVersion_stub
                0x0000000000040304                sysGetTemperature_stub
                0x0000000000040308                sysGetRandomNumber_stub
                0x000000000004030c                sysGetRtcStatus_stub
                0x0000000000040310                sysBoardStorageRead_stub
                0x0000000000040314                sysBoardStorageWrite_stub
                0x0000000000040318                sysProcessIsStack_stub
                0x000000000004031c                sysProcessExit_stub
                0x0000000000040320                sysProcessExitspawn_stub
                0x0000000000040324                sysProcessExitSpawn2Ex_stub
                0x0000000000040328                sysProcessExitSpawnWithLevel_stub
                0x000000000004032c                sysProcessAtExitSpawn_stub
                0x0000000000040330                sysProcess_At_ExitSpawn_stub
                0x0000000000040334                sysPrxRegisterLibrary_stub
                0x0000000000040338                sysPrxUnregisterLibrary_stub
                0x000000000004033c                sysPrxStartModule_stub
                0x0000000000040340                sysPrxStopModule_stub
                0x0000000000040344                sysPrxLoadModule_stub
                0x0000000000040348                sysPrxLoadModuleByFd_stub
                0x000000000004034c                sysPrxLoadModuleList_stub
                0x0000000000040350                sysPrxLoadModuleListOnMemcontainer_stub
                0x0000000000040354                sysPrxLoadModuleOnMemcontainer_stub
                0x0000000000040358                sysPrxLoadModuleOnMemcontainerByFd_stub
                0x000000000004035c                sysPrxGetModuleInfo_stub
                0x0000000000040360                sysPrxGetModuleList_stub
                0x0000000000040364                sysPrxGetModuleId_stub
                0x0000000000040368                sysPrxGetModuleIdByAddress_stub
                0x000000000004036c                sysPrxGetModuleIdByName_stub
                0x0000000000040370                sysPrxUnloadModule_stub
                0x0000000000040374                sysPrxExitSpawnWithLevel_stub
                0x0000000000040378                sysThreadCreateEx_stub
                0x000000000004037c                sysThreadExit_stub
                0x0000000000040380                sysThreadGetId_stub
                0x0000000000040384                sysThreadOnce_stub
                0x0000000000040388                sysThreadInitialzeTLS_stub
                0x000000000004038c                sysThreadRegisterAtexit_stub
                0x0000000000040390                sysThreadUnregisterAtexit_stub
                0x0000000000040394                sysInterruptThreadDisestablish_stub
                0x0000000000040398                sysLwMutexCreate_stub
                0x000000000004039c                sysLwMutexDestroy_stub
                0x00000000000403a0                sysLwMutexLock_stub
                0x00000000000403a4                sysLwMutexTryLock_stub
                0x00000000000403a8                sysLwMutexUnlock_stub
                0x00000000000403ac                sysLwCondCreate_stub
                0x00000000000403b0                sysLwCondWait_stub
                0x00000000000403b4                sysLwCondSignal_stub
                0x00000000000403b8                sysLwCondSignalTo_stub
                0x00000000000403bc                sysLwCondSignalAll_stub
                0x00000000000403c0                sysLwCondDestroy_stub
                0x00000000000403c4                sysSpinlockInitialize_stub
                0x00000000000403c8                sysSpinlockLock_stub
                0x00000000000403cc                sysSpinlockTryLock_stub
                0x00000000000403d0                sysSpinlockUnlock_stub
                0x00000000000403d4                sysWatchdogClear_stub
                0x00000000000403d8                sysWatchdogStart_stub
                0x00000000000403dc                sysWatchdogStop_stub
                0x00000000000403e0                sysMalloc_stub
                0x00000000000403e4                sysMemalign_stub
                0x00000000000403e8                sysMemchr_stub
                0x00000000000403ec                sysMemcmp_stub
                0x00000000000403f0                sysMemcpy_stub
                0x00000000000403f4                sysMemmove_stub
                0x00000000000403f8                sysMemset_stub
                0x00000000000403fc                sysFree_stub
                0x0000000000040400                sysHeapAllocHeapMemory_stub
                0x0000000000040404                sysHeapCreateHeap_stub
                0x0000000000040408                sysHeapDeleteHeap_stub
                0x000000000004040c                sysHeapFree_stub
                0x0000000000040410                sysHeapGetMallInfo_stub
                0x0000000000040414                sysHeapGetTotalFreeSize_stub
                0x0000000000040418                sysHeapMalloc_stub
                0x000000000004041c                sysHeapMemalign_stub
                0x0000000000040420                sysHeapStats_stub
                0x0000000000040424                sysQsort_stub
                0x0000000000040428                sysMempoolCreate_stub
                0x000000000004042c                sysMempoolDestroy_stub
                0x0000000000040430                sysMempoolGetCount_stub
                0x0000000000040434                sysMempoolAllocateBlock_stub
                0x0000000000040438                sysMempoolTryAllocateBlock_stub
                0x000000000004043c                sysMempoolFreeBlock_stub
                0x0000000000040440                sysMMapperFreeMemory_stub
                0x0000000000040444                sysMMapperMapMemory_stub
                0x0000000000040448                sysMMapperUnmapMemory_stub
                0x000000000004044c                sysMMapperAllocateMemory_stub
                0x0000000000040450                sysMMapperAllocateMemoryFromContainer_stub
                0x0000000000040454                sysStrlen_stub
                0x0000000000040458                sysStrcpy_stub
                0x000000000004045c                sysStrncpy_stub
                0x0000000000040460                sysStrcat_stub
                0x0000000000040464                sysStrncat_stub
                0x0000000000040468                sysStrchr_stub
                0x000000000004046c                sysStrrchr_stub
                0x0000000000040470                sysStrcmp_stub
                0x0000000000040474                sysStrncmp_stub
                0x0000000000040478                sysStrncasecmp_stub
                0x000000000004047c                sysToLower_stub
                0x0000000000040480                sysToUpper_stub
                0x0000000000040484                sysSpuElfGetSegments_stub
                0x0000000000040488                sysSpuElfGetInformation_stub
                0x000000000004048c                sysSpuRawLoad_stub
                0x0000000000040490                sysSpuRawImageLoad_stub
                0x0000000000040494                sysSpuImageClose_stub
                0x0000000000040498                sysSpuImageImport_stub
                0x000000000004049c                sysSpuPrintfAttachGroup_stub
                0x00000000000404a0                sysSpuPrintfAttachThread_stub
                0x00000000000404a4                sysSpuPrintfDetachGroup_stub
                0x00000000000404a8                sysSpuPrintfDetach_Tread_stub
                0x00000000000404ac                sysSpuPrintfFinalize_stub
                0x00000000000404b0                sysSpuPrintfInitialize_stub
                0x00000000000404b4                sysConsoleGetc_stub
                0x00000000000404b8                sysConsolePutc_stub
                0x00000000000404bc                sysConsoleWrite_stub
                0x00000000000404c0                sysPrintf_stub
                0x00000000000404c4                sysSprintf_stub
                0x00000000000404c8                sysSnprintf_stub
                0x00000000000404cc                sysVprintf_stub
                0x00000000000404d0                sysVsprintf_stub
                0x00000000000404d4                sysVsnprintf_stub
 .data.sceFStub.sys_io
                0x00000000000404d8       0xbc /usr/local/ps3dev/psl1ght/ppu/lib/libio.a(sprx.o)
                0x00000000000404d8                sys_config_start_stub
                0x00000000000404dc                sys_config_stop_stub
                0x00000000000404e0                sys_config_add_service_listener_stub
                0x00000000000404e4                sys_config_remove_service_listener_stub
                0x00000000000404e8                sys_config_register_service_stub
                0x00000000000404ec                sys_config_unregister_service_stub
                0x00000000000404f0                ioPadInit_stub
                0x00000000000404f4                ioPadEnd_stub
                0x00000000000404f8                ioPadClearBuf_stub
                0x00000000000404fc                ioPadInfoPressMode_stub
                0x0000000000040500                ioPadLddRegisterController_stub
                0x0000000000040504                ioPadGetInfo_stub
                0x0000000000040508                ioPadGetRawData_stub
                0x000000000004050c                ioPadGetDataExtra_stub
                0x0000000000040510                ioPadInfoSensorMode_stub
                0x0000000000040514                ioPadGetData_stub
                0x0000000000040518                ioPadLddGetPortNo_stub
                0x000000000004051c                ioPadLddDataInsert_stub
                0x0000000000040520                ioPadSetSensorMode_stub
                0x0000000000040524                ioPadGetCapabilityInfo_stub
                0x0000000000040528                ioPadLddUnregisterController_stub
                0x000000000004052c                ioPadSetActDirect_stub
                0x0000000000040530                ioPadSetPressMode_stub
                0x0000000000040534                ioPadPeriphGetInfo_stub
                0x0000000000040538                ioPadSetPortSetting_stub
                0x000000000004053c                ioPadPeriphGetData_stub
                0x0000000000040540                ioPadGetInfo2_stub
                0x0000000000040544                ioMouseInit_stub
                0x0000000000040548                ioMouseEnd_stub
                0x000000000004054c                ioMouseClearBuf_stub
                0x0000000000040550                ioMouseGetInfo_stub
                0x0000000000040554                ioMouseGetTabletDataList_stub
                0x0000000000040558                ioMouseSetTabletMode_stub
                0x000000000004055c                ioMouseGetData_stub
                0x0000000000040560                ioMouseInfoTabletMode_stub
                0x0000000000040564                ioMouseGetRawData_stub
                0x0000000000040568                ioMouseGetDataList_stub
                0x000000000004056c                ioKbInit_stub
                0x0000000000040570                ioKbEnd_stub
                0x0000000000040574                ioKbRead_stub
                0x0000000000040578                ioKbSetReadMode_stub
                0x000000000004057c                ioKbSetCodeType_stub
                0x0000000000040580                ioKbCnvRawCode_stub
                0x0000000000040584                ioKbSetLEDStatus_stub
                0x0000000000040588                ioKbGetInfo_stub
                0x000000000004058c                ioKbGetConfiguration_stub
                0x0000000000040590                ioKbClearBuf_stub
 .data.sceFStub.sys_net
                0x0000000000040594       0xdc /usr/local/ps3dev/psl1ght/ppu/lib/libnet.a(sprx.o)
                0x0000000000040594                netErrnoLoc_stub
                0x0000000000040598                netHErrnoLoc_stub
                0x000000000004059c                netAccept_stub
                0x00000000000405a0                netBind_stub
                0x00000000000405a4                netConnect_stub
                0x00000000000405a8                netGetHostByAddr_stub
                0x00000000000405ac                netGetHostByName_stub
                0x00000000000405b0                netGetPeerName_stub
                0x00000000000405b4                netGetSockName_stub
                0x00000000000405b8                netGetSockOpt_stub
                0x00000000000405bc                inet_addr_stub
                0x00000000000405c0                inet_aton_stub
                0x00000000000405c4                inet_lnaof_stub
                0x00000000000405c8                inet_makeaddr_stub
                0x00000000000405cc                inet_netof_stub
                0x00000000000405d0                inet_network_stub
                0x00000000000405d4                inet_ntoa_stub
                0x00000000000405d8                inet_ntop_stub
                0x00000000000405dc                inet_pton_stub
                0x00000000000405e0                netListen_stub
                0x00000000000405e4                netRecv_stub
                0x00000000000405e8                netRecvFrom_stub
                0x00000000000405ec                netRecvMsg_stub
                0x00000000000405f0                netSend_stub
                0x00000000000405f4                netSendMsg_stub
                0x00000000000405f8                netSendTo_stub
                0x00000000000405fc                netSetSockOpt_stub
                0x0000000000040600                netShutdown_stub
                0x0000000000040604                netSocket_stub
                0x0000000000040608                netClose_stub
                0x000000000004060c                netPoll_stub
                0x0000000000040610                netSelect_stub
                0x0000000000040614                netAbortResolver_stub
                0x0000000000040618                netAbortSocket_stub
                0x000000000004061c                netCloseDump_stub
                0x0000000000040620                netFinalizeNetwork_stub
                0x0000000000040624                netFreethreadContext_stub
                0x0000000000040628                netGetLibNameServer_stub
                0x000000000004062c                netGetNetEmuTestParam_stub
                0x0000000000040630                netGetSockInfo_stub
                0x0000000000040634                netGetSockInfoEx_stub
                0x0000000000040638                netGetTestParam_stub
                0x000000000004063c                netGetUdpp2pTestparam_stub
                0x0000000000040640                netIfCtl_stub
                0x0000000000040644                netInitializeNetworkEx_stub
                0x0000000000040648                netOpenDump_stub
                0x000000000004064c                netReadDump_stub
                0x0000000000040650                netSetlibNameServer_stub
                0x0000000000040654                netSetnetemutestparam_stub
                0x0000000000040658                netSetResolverConfigurations_stub
                0x000000000004065c                netSetTestParam_stub
                0x0000000000040660                netSetUdpp2pTestParam_stub
                0x0000000000040664                netShowIfConfig_stub
                0x0000000000040668                netShowNameserver_stub
                0x000000000004066c                netShowRoute_stub

.toc1
 *(.toc1)

.opd            0x0000000000040670     0x4cf8
 *(.opd)
 .opd           0x0000000000040670       0x30 /usr/local/ps3dev/ppu/lib/gcc/powerpc64-ps3-elf/7.2.0/../../../../powerpc64-ps3-elf/lib/lv2-crti.o
                0x0000000000040670                _init
                0x0000000000040688                _fini
 .opd           0x00000000000406a0       0x60 /usr/local/ps3dev/ppu/lib/gcc/powerpc64-ps3-elf/7.2.0/crtbegin.o
 .opd           0x0000000000040700       0x48 /usr/local/ps3dev/ppu/lib/gcc/powerpc64-ps3-elf/7.2.0/../../../../powerpc64-ps3-elf/lib/lv2-crt0.o
                0x0000000000040730                _initialize
 .opd           0x0000000000040748       0x60 main.o
                0x0000000000040748                DrawBackground2D
                0x0000000000040760                drawScene
                0x0000000000040778                LoadTexture
                0x0000000000040790                main
 .opd           0x00000000000407a8      0x1b0 /usr/local/ps3dev/portlibs/ppu/lib/libfont.a(libfont.o)
                0x00000000000407c0                ResetFont
                0x00000000000407d8                AddFontFromBitmapArray
                0x00000000000407f0                AddFontFromTTF
                0x0000000000040808                SetCurrentFont
                0x0000000000040820                SetFontSize
                0x0000000000040838                SetFontColor
                0x0000000000040850                SetFontTextureMethod
                0x0000000000040868                SetDoubleTextureModule
                0x0000000000040880                SetFontAutoCenter
                0x0000000000040898                SetFontAutoNewLine
                0x00000000000408b0                SetFontZ
                0x00000000000408c8                GetFontX
                0x00000000000408e0                GetFontY
                0x00000000000408f8                SetFontScreenLimits
                0x0000000000040910                DrawChar
                0x0000000000040928                DrawString
                0x0000000000040940                DrawFormatString
 .opd           0x0000000000040958      0x5a0 /home/scristaldi/tiny3d_Estwald_work/fonts/libtiny3d_.a(tiny3d.o)
                0x0000000000040988                tiny3d_Exit
                0x0000000000040a18                debugPrintf
                0x0000000000040a30                debugInit
                0x0000000000040a48                tiny3d_alarm
                0x0000000000040a60                tiny3d_RecordList
                0x0000000000040a78                tiny3d_StopList
                0x0000000000040a90                tiny3d_FreeList
                0x0000000000040aa8                tiny3d_DynamicMatrixList
                0x0000000000040ac0                tiny3d_ApplyMatrixList
                0x0000000000040ad8                tiny3d_Init
                0x0000000000040af0                tiny3d_SetPolygon
                0x0000000000040b08                tiny3d_VertexPos
                0x0000000000040b20                tiny3d_VertexPos4
                0x0000000000040b38                tiny3d_VertexPosVector
                0x0000000000040b50                tiny3d_VertexColor
                0x0000000000040b68                tiny3d_VertexFcolor
                0x0000000000040b80                tiny3d_VertexTexture
                0x0000000000040b98                tiny3d_VertexTexture2
                0x0000000000040bb0                tiny3d_Normal
                0x0000000000040bc8                tiny3d_NormalVector
                0x0000000000040be0                tiny3d_End
                0x0000000000040bf8                tiny3d_SetMatrixModelView
                0x0000000000040c10                tiny3d_SetProjectionMatrix
                0x0000000000040c28                tiny3d_Flip
                0x0000000000040c40                tiny3d_UserViewport
                0x0000000000040c58                tiny3d_UserViewport2
                0x0000000000040c70                tiny3d_UserViewportSurface
                0x0000000000040c88                tiny3d_Project2D
                0x0000000000040ca0                tiny3d_Project3D
                0x0000000000040cb8                tiny3d_Clear
                0x0000000000040cd0                tiny3d_ClearSurface
                0x0000000000040ce8                tiny3d_AlphaTest
                0x0000000000040d00                tiny3d_BlendFunc
                0x0000000000040d18                tiny3d_SetTextureWrap
                0x0000000000040d30                tiny3d_SetTexture
                0x0000000000040d48                tiny3d_AllocTexture
                0x0000000000040d60                tiny3d_TextureOffset
                0x0000000000040d78                tiny3d_EmissiveMaterial
                0x0000000000040d90                tiny3d_AmbientMaterial
                0x0000000000040da8                tiny3d_DiffuseMaterial
                0x0000000000040dc0                tiny3d_SpecularMaterial
                0x0000000000040dd8                tiny3d_SetLightCameraPosition
                0x0000000000040df0                tiny3d_SetLight
                0x0000000000040e08                tiny3d_SetLightsOff
                0x0000000000040e20                tiny3d_SetAmbientLight
                0x0000000000040e38                tiny3d_SelMultiTexturesMethod
                0x0000000000040e50                tiny3d_DrawList
                0x0000000000040e68                tiny3d_MenuActive
                0x0000000000040e80                tiny3d_Enable_YUV
                0x0000000000040e98                tiny3d_Disable_YUV
                0x0000000000040eb0                tiny3d_Dirty_Status
                0x0000000000040ec8                tiny3d_Get_GCM_Context
                0x0000000000040ee0                tiny3d_DoCmd_Space
 .opd           0x0000000000040ef8       0x30 /home/scristaldi/tiny3d_Estwald_work/fonts/libtiny3d_.a(mm.o)
                0x0000000000040ef8                rsxtiny_MemAlign
                0x0000000000040f10                rsxtiny_Mem
 .opd           0x0000000000040f28       0x48 /home/scristaldi/tiny3d_Estwald_work/fonts/libtiny3d_.a(glue.o)
                0x0000000000040f28                rsxtiny_FlushBuffer
                0x0000000000040f40                rsxtiny_Init
                0x0000000000040f58                rsxtiny_AddressToOffset
 .opd           0x0000000000040f70       0xa8 /home/scristaldi/tiny3d_Estwald_work/fonts/libtiny3d_.a(realityVP.o)
                0x0000000000040f70                rsxtiny_VertexProgramGetUCode
                0x0000000000040f88                rsxtiny_VertexProgramGetInputMask
                0x0000000000040fa0                rsxtiny_VertexProgramGetOutputMask
                0x0000000000040fb8                rsxtiny_VertexProgramGetAttributes
                0x0000000000040fd0                rsxtiny_VertexProgramGetInputAttribute
                0x0000000000040fe8                rsxtiny_VertexProgramGetConstants
                0x0000000000041000                rsxtiny_VertexProgramGetConstant
 .opd           0x0000000000041018      0x168 /home/scristaldi/tiny3d_Estwald_work/fonts/libtiny3d_.a(matrix.o)
                0x0000000000041018                MatrixProjPerspective
                0x0000000000041030                MatrixVectorMultiply
                0x0000000000041048                MatrixVectorMultiply3x3
                0x0000000000041060                MatrixMultiply
                0x0000000000041078                MatrixIdentity
                0x0000000000041090                MatrixTranslation
                0x00000000000410a8                MatrixTranspose
                0x00000000000410c0                MatrixScale
                0x00000000000410d8                MatrixRotationX
                0x00000000000410f0                MatrixRotationY
                0x0000000000041108                MatrixRotationZ
                0x0000000000041120                MatrixRotationAxis
                0x0000000000041138                VectorToUnit
                0x0000000000041150                VectorNormalPlane
                0x0000000000041168                MakeLookAtMatrix
 .opd           0x0000000000041180      0x408 /home/scristaldi/tiny3d_Estwald_work/fonts/libtiny3d_.a(commands.o)
                0x0000000000041180                rsxtiny_MakeCmdSpace
                0x0000000000041198                rsxtiny_SetReferenceCommand
                0x00000000000411b0                rsxtiny_SetWriteBackendLabel
                0x00000000000411c8                rsxtiny_SetWaitLabel
                0x00000000000411e0                rsxtiny_SetScissor
                0x00000000000411f8                rsxtiny_SetClearColor
                0x0000000000041210                rsxtiny_SetClearDepthValue
                0x0000000000041228                rsxtiny_Nop
                0x0000000000041240                rsxtiny_ClearBuffers
                0x0000000000041258                rsxtiny_SetRenderSurface
                0x0000000000041270                rsxtiny_SelectRenderTarget
                0x0000000000041288                rsxtiny_Viewport
                0x00000000000412a0                rsxtiny_ViewportClip
                0x00000000000412b8                rsxtiny_VertexBegin
                0x00000000000412d0                rsxtiny_VertexEnd
                0x00000000000412e8                rsxtiny_Vertex4f
                0x0000000000041300                rsxtiny_TexCoord2f
                0x0000000000041318                rsxtiny_SetVertexProgramConstant4f
                0x0000000000041330                rsxtiny_LoadVertexProgram
                0x0000000000041348                rsxtiny_SetVertexProgramConstant4fBlock
                0x0000000000041360                rsxtiny_InstallFragmentProgram
                0x0000000000041378                rsxtiny_LoadFragmentProgram
                0x0000000000041390                rsxtiny_InvalidateTextureCache
                0x00000000000413a8                rsxtiny_SetTexture
                0x00000000000413c0                rsxtiny_ViewportTranslate
                0x00000000000413d8                rsxtiny_ViewportScale
                0x00000000000413f0                rsxtiny_CullFace
                0x0000000000041408                rsxtiny_FrontFace
                0x0000000000041420                rsxtiny_CullEnable
                0x0000000000041438                rsxtiny_AlphaEnable
                0x0000000000041450                rsxtiny_AlphaRef
                0x0000000000041468                rsxtiny_AlphaFunc
                0x0000000000041480                rsxtiny_BlendEnable
                0x0000000000041498                rsxtiny_BlendEquation
                0x00000000000414b0                rsxtiny_BlendFunc
                0x00000000000414c8                rsxtiny_ZControl
                0x00000000000414e0                rsxtiny_BindVertexBufferAttribute
                0x00000000000414f8                rsxtiny_VertexInvalidate
                0x0000000000041510                rsxtiny_DrawVertexBuffer
                0x0000000000041528                rsxtiny_DrawVertexBufferIndex
                0x0000000000041540                rsxtiny_DepthTestEnable
                0x0000000000041558                rsxtiny_DepthTestFunc
                0x0000000000041570                rsxtiny_DepthWriteEnable
 .opd           0x0000000000041588       0x78 /home/scristaldi/tiny3d_Estwald_work/fonts/libtiny3d_.a(rsxutil.o)
                0x0000000000041588                waitFlip
                0x00000000000415a0                flip
                0x00000000000415b8                init_screen
                0x00000000000415d0                setupRenderTarget
                0x00000000000415e8                setupRenderTarget2
 .opd           0x0000000000041600       0x30 /home/scristaldi/tiny3d_Estwald_work/fonts/libtiny3d_.a(buffer.o)
                0x0000000000041600                tiny_rsxContextCallback
                0x0000000000041618                commandBufferPut
 .opd           0x0000000000041630      0x858 /usr/local/ps3dev/psl1ght/ppu/lib/libgcm_sys.a(sprx.o)
                0x0000000000041630                gcmInitBody
                0x0000000000041648                gcmSetDisplayBuffer
                0x0000000000041660                gcmGetControlRegister
                0x0000000000041678                gcmAddressToOffset
                0x0000000000041690                gcmGetConfiguration
                0x00000000000416a8                gcmGetCurrentField
                0x00000000000416c0                gcmSetFlipMode
                0x00000000000416d8                gcmGetFlipStatus
                0x00000000000416f0                gcmGetLastFlipTime
                0x0000000000041708                gcmGetVBlankCount
                0x0000000000041720                gcmSetWaitFlip
                0x0000000000041738                gcmSetFlipStatus
                0x0000000000041750                gcmResetFlipStatus
                0x0000000000041768                gcmSetFlip
                0x0000000000041780                gcmSetFlipImmediate
                0x0000000000041798                gcmFunc15
                0x00000000000417b0                gcmFunc3
                0x00000000000417c8                gcmFunc1
                0x00000000000417e0                gcmFunc2
                0x00000000000417f8                gcmFunc4
                0x0000000000041810                gcmFunc12
                0x0000000000041828                gcmFunc13
                0x0000000000041840                gcmGetReport
                0x0000000000041858                gcmSetTile
                0x0000000000041870                gcmBindTile
                0x0000000000041888                gcmUnbindTile
                0x00000000000418a0                gcmSetZcull
                0x00000000000418b8                gcmBindZcull
                0x00000000000418d0                gcmUnbindZcull
                0x00000000000418e8                gcmGetTimeStamp
                0x0000000000041900                gcmSetVBlankFrequency
                0x0000000000041918                gcmSetSecondVFrequency
                0x0000000000041930                gcmSetDebugOutputLevel
                0x0000000000041948                gcmGetLabelAddress
                0x0000000000041960                gcmSetVBlankHandlerEx
                0x0000000000041978                gcmSetFlipHandlerEx
                0x0000000000041990                gcmSetSecondVHandlerEx
                0x00000000000419a8                gcmSetGraphicsHandlerEx
                0x00000000000419c0                gcmTerminate
                0x00000000000419d8                gcmMapMainMemory
                0x00000000000419f0                gcmMapEaIoAddress
                0x0000000000041a08                gcmUnmapEaIoAddress
                0x0000000000041a20                gcmUnmapIoAddress
                0x0000000000041a38                gcmIoOffsetToAddress
                0x0000000000041a50                gcmSetDefaultCommandBuffer
                0x0000000000041a68                gcmSetTileInfo
                0x0000000000041a80                gcmGetTiledPitchSize
                0x0000000000041a98                gcmSetInvalidateTile
                0x0000000000041ab0                gcmSetUserCommandEx
                0x0000000000041ac8                gcmSetUserHandlerEx
                0x0000000000041ae0                gcmSetQueueHandlerEx
                0x0000000000041af8                gcmSetPrepareFlip
                0x0000000000041b10                gcmGetOffsetTable
                0x0000000000041b28                gcmGetLastSecondVTime
                0x0000000000041b40                gcmSortRemapEaIoAddress
                0x0000000000041b58                gcmGetDisplayBufferByFlipIndex
                0x0000000000041b70                gcmGcmGetDefaultCommandWordSize
                0x0000000000041b88                gcmGcmGetDefaultSegmentWordSize
                0x0000000000041ba0                gcmSetDefaultCommandBufferAndSegmentWordSize
                0x0000000000041bb8                gcmGetDisplayInfo
                0x0000000000041bd0                gcmDumpGraphicsError
                0x0000000000041be8                gcmFunc38
                0x0000000000041c00                gcmGetCurrentDisplayBufferId
                0x0000000000041c18                gcmGetDefaultCommandWordSize
                0x0000000000041c30                gcmGetDefaultSegmentWordSize
                0x0000000000041c48                gcmGetMaxIoMapSize
                0x0000000000041c60                gcmGetNotifyDataAddress
                0x0000000000041c78                gcmGetReportDataAddress
                0x0000000000041c90                gcmGetReportDataAddressLocation
                0x0000000000041ca8                gcmGetReportDataLocation
                0x0000000000041cc0                gcmGetTileInfo
                0x0000000000041cd8                gcmGetTimeStampLocation
                0x0000000000041cf0                gcmGetZcullInfo
                0x0000000000041d08                gcmInitCursor
                0x0000000000041d20                gcmInitDefaultFifoMode
                0x0000000000041d38                gcmInitSystemMode
                0x0000000000041d50                gcmMapEaIoAddressWithFlags
                0x0000000000041d68                gcmMapLocalMemory
                0x0000000000041d80                gcmReserveIoMapSize
                0x0000000000041d98                gcmSetCursorDisable
                0x0000000000041db0                gcmSetCursorEnable
                0x0000000000041dc8                gcmSetCursorImageOffset
                0x0000000000041de0                gcmSetCursorPosition
                0x0000000000041df8                gcmSetDefaultFifoSize
                0x0000000000041e10                gcmSetFlipCommand
                0x0000000000041e28                gcmSetFlipCommandWithWaitLabel
                0x0000000000041e40                gcmSysGetLastVBlankTime
                0x0000000000041e58                gcmUnreserveIoMapSize
                0x0000000000041e70                gcmUpdateCursor
 .opd           0x0000000000041e88      0x468 /usr/local/ps3dev/psl1ght/ppu/lib/libio.a(sprx.o)
                0x0000000000041e88                sys_config_start
                0x0000000000041ea0                sys_config_stop
                0x0000000000041eb8                sys_config_add_service_listener
                0x0000000000041ed0                sys_config_remove_service_listener
                0x0000000000041ee8                sys_config_register_service
                0x0000000000041f00                sys_config_unregister_service
                0x0000000000041f18                ioPadInit
                0x0000000000041f30                ioPadEnd
                0x0000000000041f48                ioPadClearBuf
                0x0000000000041f60                ioPadInfoPressMode
                0x0000000000041f78                ioPadLddRegisterController
                0x0000000000041f90                ioPadGetInfo
                0x0000000000041fa8                ioPadGetRawData
                0x0000000000041fc0                ioPadGetDataExtra
                0x0000000000041fd8                ioPadInfoSensorMode
                0x0000000000041ff0                ioPadGetData
                0x0000000000042008                ioPadLddGetPortNo
                0x0000000000042020                ioPadLddDataInsert
                0x0000000000042038                ioPadSetSensorMode
                0x0000000000042050                ioPadGetCapabilityInfo
                0x0000000000042068                ioPadLddUnregisterController
                0x0000000000042080                ioPadSetActDirect
                0x0000000000042098                ioPadSetPressMode
                0x00000000000420b0                ioPadPeriphGetInfo
                0x00000000000420c8                ioPadSetPortSetting
                0x00000000000420e0                ioPadPeriphGetData
                0x00000000000420f8                ioPadGetInfo2
                0x0000000000042110                ioMouseInit
                0x0000000000042128                ioMouseEnd
                0x0000000000042140                ioMouseClearBuf
                0x0000000000042158                ioMouseGetInfo
                0x0000000000042170                ioMouseGetTabletDataList
                0x0000000000042188                ioMouseSetTabletMode
                0x00000000000421a0                ioMouseGetData
                0x00000000000421b8                ioMouseInfoTabletMode
                0x00000000000421d0                ioMouseGetRawData
                0x00000000000421e8                ioMouseGetDataList
                0x0000000000042200                ioKbInit
                0x0000000000042218                ioKbEnd
                0x0000000000042230                ioKbRead
                0x0000000000042248                ioKbSetReadMode
                0x0000000000042260                ioKbSetCodeType
                0x0000000000042278                ioKbCnvRawCode
                0x0000000000042290                ioKbSetLEDStatus
                0x00000000000422a8                ioKbGetInfo
                0x00000000000422c0                ioKbGetConfiguration
                0x00000000000422d8                ioKbClearBuf
 .opd           0x00000000000422f0      0x780 /usr/local/ps3dev/psl1ght/ppu/lib/libsysutil.a(sprx.o)
                0x00000000000422f0                videoGetResolution
                0x0000000000042308                videoConfigure
                0x0000000000042320                videoGetState
                0x0000000000042338                videoGetDeviceInfo
                0x0000000000042350                videoGetConfiguration
                0x0000000000042368                videoGetResolutionAvailability
                0x0000000000042380                videoDebugSetMonitorType
                0x0000000000042398                videoRegisterCallbackEx
                0x00000000000423b0                videoUnregisterCallback
                0x00000000000423c8                videoGetNumberOfDevice
                0x00000000000423e0                videoGetConvertCursorColorInfo
                0x00000000000423f8                msgDialogClose
                0x0000000000042410                msgDialogOpenErrorCodeEx
                0x0000000000042428                msgDialogOpenEx
                0x0000000000042440                msgDialogProgressBarInc
                0x0000000000042458                msgDialogAbort
                0x0000000000042470                msgDialogOpen2Ex
                0x0000000000042488                msgDialogProgressBarReset
                0x00000000000424a0                msgDialogProgressBarSetMsg
                0x00000000000424b8                oskGetInputText
                0x00000000000424d0                oskSetInitialInputDevice
                0x00000000000424e8                oskGetSize
                0x0000000000042500                oskUnloadAsync
                0x0000000000042518                oskDisableDimmer
                0x0000000000042530                oskSetKeyLayoutOption
                0x0000000000042548                oskAbort
                0x0000000000042560                oskSetDeviceMask
                0x0000000000042578                oskSetSeparateWindowOption
                0x0000000000042590                oskAddSupportLanguage
                0x00000000000425a8                oskLoadAsync
                0x00000000000425c0                oskSetInitialKeyLayout
                0x00000000000425d8                oskSetLayoutMode
                0x00000000000425f0                sysUtilRegisterCallbackEx
                0x0000000000042608                sysUtilCheckCallback
                0x0000000000042620                sysUtilUnregisterCallback
                0x0000000000042638                sysSaveListLoad2Ex
                0x0000000000042650                sysSaveListSave2Ex
                0x0000000000042668                sysSaveListAutoLoadEx
                0x0000000000042680                sysSaveListAutoSaveEx
                0x0000000000042698                sysSaveFixedLoad2Ex
                0x00000000000426b0                sysSaveFixedSave2Ex
                0x00000000000426c8                sysSaveAutoLoad2Ex
                0x00000000000426e0                sysSaveAutoSave2Ex
                0x00000000000426f8                sysSaveDelete2
                0x0000000000042710                sysGameDataCheck
                0x0000000000042728                sysGameBootCheck
                0x0000000000042740                sysGamePatchCheck
                0x0000000000042758                sysGameCreateGameData
                0x0000000000042770                sysGameGetParamInt
                0x0000000000042788                sysGameGetParamString
                0x00000000000427a0                sysGameGetSizeKB
                0x00000000000427b8                sysGameSetParamString
                0x00000000000427d0                sysGameGetDiscContentInfoUpdatePath
                0x00000000000427e8                sysGameContentPermit
                0x0000000000042800                sysGameContentErrorDialog
                0x0000000000042818                sysGameThemeInstall
                0x0000000000042830                sysGameThemeInstallFromBufferEx
                0x0000000000042848                sysGameGetLocalWebContentPath
                0x0000000000042860                sysGameDeleteGameData
                0x0000000000042878                sysGameRegisterDiscChangeCallbackEx
                0x0000000000042890                sysGameUnregisterDiscChangeCallback
                0x00000000000428a8                sysDiscRegisterDiscChangeCallbackEx
                0x00000000000428c0                sysDiscUnregisterDiscChangeCallback
                0x00000000000428d8                sysTrophyInit
                0x00000000000428f0                sysTrophyAbortHandle
                0x0000000000042908                sysTrophyCreateContext
                0x0000000000042920                sysTrophyCreateHandle
                0x0000000000042938                sysTrophyDestroyContext
                0x0000000000042950                sysTrophyDestroyHandle
                0x0000000000042968                sysTrophyGetGameIcon
                0x0000000000042980                sysTrophyGetGameInfo
                0x0000000000042998                sysTrophyGetGameProgress
                0x00000000000429b0                sysTrophyGetRequiredDiskSpace
                0x00000000000429c8                sysTrophyGetTrophyIcon
                0x00000000000429e0                sysTrophyGetTrophyInfo
                0x00000000000429f8                sysTrophyGetTrophyUnlockState
                0x0000000000042a10                sysTrophyRegisterContextEx
                0x0000000000042a28                sysTrophySetSoundLevel
                0x0000000000042a40                sysTrophyTerm
                0x0000000000042a58                sysTrophyUnlockTrophy
 .opd           0x0000000000042a70      0x168 /usr/local/ps3dev/psl1ght/ppu/lib/libsysutil.a(sysutil_wrapper.o)
                0x0000000000042a70                sysUtilRegisterCallback
                0x0000000000042a88                msgDialogOpen
                0x0000000000042aa0                msgDialogOpen2
                0x0000000000042ab8                msgDialogOpenErrorCode
                0x0000000000042ad0                sysSaveListLoad2
                0x0000000000042ae8                sysSaveListSave2
                0x0000000000042b00                sysSaveListAutoLoad
                0x0000000000042b18                sysSaveListAutoSave
                0x0000000000042b30                sysSaveFixedLoad2
                0x0000000000042b48                sysSaveFixedSave2
                0x0000000000042b60                sysSaveAutoLoad2
                0x0000000000042b78                sysSaveAutoSave2
                0x0000000000042b90                sysGameThemeInstallFromBuffer
                0x0000000000042ba8                sysDiscRegisterDiscChangeCallback
                0x0000000000042bc0                sysGameDiscRegisterDiscChangeCallback
 .opd           0x0000000000042bd8       0x48 /usr/local/ps3dev/psl1ght/ppu/lib/librt.a(sbrk.o)
                0x0000000000042c08                __librt_sbrk_r
 .opd           0x0000000000042c20       0x18 /usr/local/ps3dev/psl1ght/ppu/lib/librt.a(exit.o)
                0x0000000000042c20                __librt_exit
 .opd           0x0000000000042c38       0x18 /usr/local/ps3dev/psl1ght/ppu/lib/librt.a(close.o)
                0x0000000000042c38                __librt_close_r
 .opd           0x0000000000042c50       0x30 /usr/local/ps3dev/psl1ght/ppu/lib/librt.a(lseek.o)
                0x0000000000042c50                __librt_lseek_r
                0x0000000000042c68                __librt_lseek64_r
 .opd           0x0000000000042c80       0x18 /usr/local/ps3dev/psl1ght/ppu/lib/librt.a(read.o)
                0x0000000000042c80                __librt_read_r
 .opd           0x0000000000042c98       0x18 /usr/local/ps3dev/psl1ght/ppu/lib/librt.a(open.o)
                0x0000000000042c98                __librt_open_r
 .opd           0x0000000000042cb0       0x30 /usr/local/ps3dev/psl1ght/ppu/lib/librt.a(sleep.o)
                0x0000000000042cb0                __librt_usleep_r
                0x0000000000042cc8                __librt_sleep_r
 .opd           0x0000000000042ce0       0x18 /usr/local/ps3dev/psl1ght/ppu/lib/librt.a(write.o)
                0x0000000000042ce0                __librt_write_r
 .opd           0x0000000000042cf8       0x60 /usr/local/ps3dev/psl1ght/ppu/lib/librt.a(fstat.o)
                0x0000000000042cf8                __librt_fstat_r
                0x0000000000042d10                __librt_fstat64_r
                0x0000000000042d28                __librt_stat_r
                0x0000000000042d40                __librt_stat64_r
 .opd           0x0000000000042d58      0x150 /usr/local/ps3dev/psl1ght/ppu/lib/librt.a(socket.o)
                0x0000000000042d58                accept
                0x0000000000042d70                bind
                0x0000000000042d88                connect
                0x0000000000042da0                listen
                0x0000000000042db8                socket
                0x0000000000042dd0                send
                0x0000000000042de8                sendto
                0x0000000000042e00                recv
                0x0000000000042e18                recvfrom
                0x0000000000042e30                shutdown
                0x0000000000042e78                select
                0x0000000000042e90                closesocket
 .opd           0x0000000000042ea8       0x78 /usr/local/ps3dev/psl1ght/ppu/lib/librt.a(lock.o)
                0x0000000000042ea8                __librt_sys_lwmutex_create_r
                0x0000000000042ec0                __librt_sys_lwmutex_destroy_r
                0x0000000000042ed8                __librt_sys_lwmutex_lock_r
                0x0000000000042ef0                __librt_sys_lwmutex_trylock_r
                0x0000000000042f08                __librt_sys_lwmutex_unlock_r
 .opd           0x0000000000042f20       0xc0 /usr/local/ps3dev/psl1ght/ppu/lib/librt.a(dirent.o)
                0x0000000000042f38                __librt_opendir_r
                0x0000000000042f50                __librt_readdir_r
                0x0000000000042f68                __librt_readdir_r_r
                0x0000000000042f80                __librt_closedir_r
                0x0000000000042f98                __librt_telldir_r
                0x0000000000042fb0                __librt_rewinddir_r
                0x0000000000042fc8                __librt_seekdir_r
 .opd           0x0000000000042fe0       0x18 /usr/local/ps3dev/psl1ght/ppu/lib/librt.a(mkdir.o)
                0x0000000000042fe0                __librt_mkdir_r
 .opd           0x0000000000042ff8       0x18 /usr/local/ps3dev/psl1ght/ppu/lib/librt.a(times.o)
                0x0000000000042ff8                __librt_times_r
 .opd           0x0000000000043010       0x18 /usr/local/ps3dev/psl1ght/ppu/lib/librt.a(umask.o)
                0x0000000000043010                __librt_umask_r
 .opd           0x0000000000043028       0x48 /usr/local/ps3dev/psl1ght/ppu/lib/librt.a(lv2errno.o)
                0x0000000000043028                lv2error
                0x0000000000043040                lv2errno
                0x0000000000043058                lv2errno_r
 .opd           0x0000000000043070       0x60 /usr/local/ps3dev/psl1ght/ppu/lib/librt.a(heap.o)
                0x0000000000043070                heapInit
                0x0000000000043088                heapAllocate
                0x00000000000430a0                heapAllocateAligned
                0x00000000000430b8                heapFree
 .opd           0x00000000000430d0       0x18 /usr/local/ps3dev/psl1ght/ppu/lib/librt.a(chmod.o)
                0x00000000000430d0                __librt_chmod_r
 .opd           0x00000000000430e8       0x18 /usr/local/ps3dev/psl1ght/ppu/lib/librt.a(rmdir.o)
                0x00000000000430e8                __librt_rmdir_r
 .opd           0x0000000000043100       0x18 /usr/local/ps3dev/psl1ght/ppu/lib/librt.a(isatty.o)
                0x0000000000043100                __librt_isatty_r
 .opd           0x0000000000043118       0x18 /usr/local/ps3dev/psl1ght/ppu/lib/librt.a(gettod.o)
                0x0000000000043118                __librt_gettod_r
 .opd           0x0000000000043130       0x18 /usr/local/ps3dev/psl1ght/ppu/lib/librt.a(settod.o)
                0x0000000000043130                __librt_settod_r
 .opd           0x0000000000043148      0xb28 /usr/local/ps3dev/psl1ght/ppu/lib/liblv2.a(sprx.o)
                0x0000000000043148                sysGetSystemTime
                0x0000000000043160                sysGetSystemSwVersion
                0x0000000000043178                sysGetTemperature
                0x0000000000043190                sysGetRandomNumber
                0x00000000000431a8                sysGetRtcStatus
                0x00000000000431c0                sysBoardStorageRead
                0x00000000000431d8                sysBoardStorageWrite
                0x00000000000431f0                sysProcessIsStack
                0x0000000000043208                sysProcessExit
                0x0000000000043220                sysProcessExitspawn
                0x0000000000043238                sysProcessExitSpawn2Ex
                0x0000000000043250                sysProcessExitSpawnWithLevel
                0x0000000000043268                sysProcessAtExitSpawn
                0x0000000000043280                sysProcess_At_ExitSpawn
                0x0000000000043298                sysPrxRegisterLibrary
                0x00000000000432b0                sysPrxUnregisterLibrary
                0x00000000000432c8                sysPrxStartModule
                0x00000000000432e0                sysPrxStopModule
                0x00000000000432f8                sysPrxLoadModule
                0x0000000000043310                sysPrxLoadModuleByFd
                0x0000000000043328                sysPrxLoadModuleList
                0x0000000000043340                sysPrxLoadModuleListOnMemcontainer
                0x0000000000043358                sysPrxLoadModuleOnMemcontainer
                0x0000000000043370                sysPrxLoadModuleOnMemcontainerByFd
                0x0000000000043388                sysPrxGetModuleInfo
                0x00000000000433a0                sysPrxGetModuleList
                0x00000000000433b8                sysPrxGetModuleId
                0x00000000000433d0                sysPrxGetModuleIdByAddress
                0x00000000000433e8                sysPrxGetModuleIdByName
                0x0000000000043400                sysPrxUnloadModule
                0x0000000000043418                sysPrxExitSpawnWithLevel
                0x0000000000043430                sysThreadCreateEx
                0x0000000000043448                sysThreadExit
                0x0000000000043460                sysThreadGetId
                0x0000000000043478                sysThreadOnce
                0x0000000000043490                sysThreadInitialzeTLS
                0x00000000000434a8                sysThreadRegisterAtexit
                0x00000000000434c0                sysThreadUnregisterAtexit
                0x00000000000434d8                sysInterruptThreadDisestablish
                0x00000000000434f0                sysLwMutexCreate
                0x0000000000043508                sysLwMutexDestroy
                0x0000000000043520                sysLwMutexLock
                0x0000000000043538                sysLwMutexTryLock
                0x0000000000043550                sysLwMutexUnlock
                0x0000000000043568                sysLwCondCreate
                0x0000000000043580                sysLwCondWait
                0x0000000000043598                sysLwCondSignal
                0x00000000000435b0                sysLwCondSignalTo
                0x00000000000435c8                sysLwCondSignalAll
                0x00000000000435e0                sysLwCondDestroy
                0x00000000000435f8                sysSpinlockInitialize
                0x0000000000043610                sysSpinlockLock
                0x0000000000043628                sysSpinlockTryLock
                0x0000000000043640                sysSpinlockUnlock
                0x0000000000043658                sysWatchdogClear
                0x0000000000043670                sysWatchdogStart
                0x0000000000043688                sysWatchdogStop
                0x00000000000436a0                sysMalloc
                0x00000000000436b8                sysMemalign
                0x00000000000436d0                sysMemchr
                0x00000000000436e8                sysMemcmp
                0x0000000000043700                sysMemcpy
                0x0000000000043718                sysMemmove
                0x0000000000043730                sysMemset
                0x0000000000043748                sysFree
                0x0000000000043760                sysHeapAllocHeapMemory
                0x0000000000043778                sysHeapCreateHeap
                0x0000000000043790                sysHeapDeleteHeap
                0x00000000000437a8                sysHeapFree
                0x00000000000437c0                sysHeapGetMallInfo
                0x00000000000437d8                sysHeapGetTotalFreeSize
                0x00000000000437f0                sysHeapMalloc
                0x0000000000043808                sysHeapMemalign
                0x0000000000043820                sysHeapStats
                0x0000000000043838                sysQsort
                0x0000000000043850                sysMempoolCreate
                0x0000000000043868                sysMempoolDestroy
                0x0000000000043880                sysMempoolGetCount
                0x0000000000043898                sysMempoolAllocateBlock
                0x00000000000438b0                sysMempoolTryAllocateBlock
                0x00000000000438c8                sysMempoolFreeBlock
                0x00000000000438e0                sysMMapperFreeMemory
                0x00000000000438f8                sysMMapperMapMemory
                0x0000000000043910                sysMMapperUnmapMemory
                0x0000000000043928                sysMMapperAllocateMemory
                0x0000000000043940                sysMMapperAllocateMemoryFromContainer
                0x0000000000043958                sysStrlen
                0x0000000000043970                sysStrcpy
                0x0000000000043988                sysStrncpy
                0x00000000000439a0                sysStrcat
                0x00000000000439b8                sysStrncat
                0x00000000000439d0                sysStrchr
                0x00000000000439e8                sysStrrchr
                0x0000000000043a00                sysStrcmp
                0x0000000000043a18                sysStrncmp
                0x0000000000043a30                sysStrncasecmp
                0x0000000000043a48                sysToLower
                0x0000000000043a60                sysToUpper
                0x0000000000043a78                sysSpuElfGetSegments
                0x0000000000043a90                sysSpuElfGetInformation
                0x0000000000043aa8                sysSpuRawLoad
                0x0000000000043ac0                sysSpuRawImageLoad
                0x0000000000043ad8                sysSpuImageClose
                0x0000000000043af0                sysSpuImageImport
                0x0000000000043b08                sysSpuPrintfAttachGroup
                0x0000000000043b20                sysSpuPrintfAttachThread
                0x0000000000043b38                sysSpuPrintfDetachGroup
                0x0000000000043b50                sysSpuPrintfDetach_Tread
                0x0000000000043b68                sysSpuPrintfFinalize
                0x0000000000043b80                sysSpuPrintfInitialize
                0x0000000000043b98                sysConsoleGetc
                0x0000000000043bb0                sysConsolePutc
                0x0000000000043bc8                sysConsoleWrite
                0x0000000000043be0                sysPrintf
                0x0000000000043bf8                sysSprintf
                0x0000000000043c10                sysSnprintf
                0x0000000000043c28                sysVprintf
                0x0000000000043c40                sysVsprintf
                0x0000000000043c58                sysVsnprintf
 .opd           0x0000000000043c70      0x528 /usr/local/ps3dev/psl1ght/ppu/lib/libnet.a(sprx.o)
                0x0000000000043c70                netErrnoLoc
                0x0000000000043c88                netHErrnoLoc
                0x0000000000043ca0                netAccept
                0x0000000000043cb8                netBind
                0x0000000000043cd0                netConnect
                0x0000000000043ce8                netGetHostByAddr
                0x0000000000043d00                netGetHostByName
                0x0000000000043d18                netGetPeerName
                0x0000000000043d30                netGetSockName
                0x0000000000043d48                netGetSockOpt
                0x0000000000043d60                inet_addr
                0x0000000000043d78                inet_aton
                0x0000000000043d90                inet_lnaof
                0x0000000000043da8                inet_makeaddr
                0x0000000000043dc0                inet_netof
                0x0000000000043dd8                inet_network
                0x0000000000043df0                inet_ntoa
                0x0000000000043e08                inet_ntop
                0x0000000000043e20                inet_pton
                0x0000000000043e38                netListen
                0x0000000000043e50                netRecv
                0x0000000000043e68                netRecvFrom
                0x0000000000043e80                netRecvMsg
                0x0000000000043e98                netSend
                0x0000000000043eb0                netSendMsg
                0x0000000000043ec8                netSendTo
                0x0000000000043ee0                netSetSockOpt
                0x0000000000043ef8                netShutdown
                0x0000000000043f10                netSocket
                0x0000000000043f28                netClose
                0x0000000000043f40                netPoll
                0x0000000000043f58                netSelect
                0x0000000000043f70                netAbortResolver
                0x0000000000043f88                netAbortSocket
                0x0000000000043fa0                netCloseDump
                0x0000000000043fb8                netFinalizeNetwork
                0x0000000000043fd0                netFreethreadContext
                0x0000000000043fe8                netGetLibNameServer
                0x0000000000044000                netGetNetEmuTestParam
                0x0000000000044018                netGetSockInfo
                0x0000000000044030                netGetSockInfoEx
                0x0000000000044048                netGetTestParam
                0x0000000000044060                netGetUdpp2pTestparam
                0x0000000000044078                netIfCtl
                0x0000000000044090                netInitializeNetworkEx
                0x00000000000440a8                netOpenDump
                0x00000000000440c0                netReadDump
                0x00000000000440d8                netSetlibNameServer
                0x00000000000440f0                netSetnetemutestparam
                0x0000000000044108                netSetResolverConfigurations
                0x0000000000044120                netSetTestParam
                0x0000000000044138                netSetUdpp2pTestParam
                0x0000000000044150                netShowIfConfig
                0x0000000000044168                netShowNameserver
                0x0000000000044180                netShowRoute
 .opd           0x0000000000044198       0x30 /usr/local/ps3dev/psl1ght/ppu/lib/libnet.a(init.o)
                0x0000000000044198                netInitialize
                0x00000000000441b0                netDeinitialize
 .opd           0x00000000000441c8       0xc0 /usr/local/ps3dev/psl1ght/ppu/lib/libsysmodule.a(sprx.o)
                0x00000000000441c8                sysModuleInitialize
                0x00000000000441e0                sysModuleFinalize
                0x00000000000441f8                sysModuleLoad
                0x0000000000044210                sysModuleUnload
                0x0000000000044228                sysModuleIsLoaded
                0x0000000000044240                sysModuleGetImagesize
                0x0000000000044258                sysModuleFetchImage
                0x0000000000044270                sysModuleSetMemcontainer
 .opd           0x0000000000044288       0x18 /usr/local/ps3dev/ppu/lib/gcc/powerpc64-ps3-elf/7.2.0/../../../../powerpc64-ps3-elf/lib/libm.a(lib_a-sf_cos.o)
                0x0000000000044288                cosf
 .opd           0x00000000000442a0       0x18 /usr/local/ps3dev/ppu/lib/gcc/powerpc64-ps3-elf/7.2.0/../../../../powerpc64-ps3-elf/lib/libm.a(lib_a-sf_sin.o)
                0x00000000000442a0                sinf
 .opd           0x00000000000442b8       0x18 /usr/local/ps3dev/ppu/lib/gcc/powerpc64-ps3-elf/7.2.0/../../../../powerpc64-ps3-elf/lib/libm.a(lib_a-sf_tan.o)
                0x00000000000442b8                tanf
 .opd           0x00000000000442d0       0x18 /usr/local/ps3dev/ppu/lib/gcc/powerpc64-ps3-elf/7.2.0/../../../../powerpc64-ps3-elf/lib/libm.a(lib_a-w_sqrt.o)
                0x00000000000442d0                sqrt
 .opd           0x00000000000442e8       0x18 /usr/local/ps3dev/ppu/lib/gcc/powerpc64-ps3-elf/7.2.0/../../../../powerpc64-ps3-elf/lib/libm.a(lib_a-wf_sqrt.o)
                0x00000000000442e8                sqrtf
 .opd           0x0000000000044300       0x18 /usr/local/ps3dev/ppu/lib/gcc/powerpc64-ps3-elf/7.2.0/../../../../powerpc64-ps3-elf/lib/libm.a(lib_a-e_sqrt.o)
                0x0000000000044300                __ieee754_sqrt
 .opd           0x0000000000044318       0x18 /usr/local/ps3dev/ppu/lib/gcc/powerpc64-ps3-elf/7.2.0/../../../../powerpc64-ps3-elf/lib/libm.a(lib_a-ef_rem_pio2.o)
                0x0000000000044318                __ieee754_rem_pio2f
 .opd           0x0000000000044330       0x18 /usr/local/ps3dev/ppu/lib/gcc/powerpc64-ps3-elf/7.2.0/../../../../powerpc64-ps3-elf/lib/libm.a(lib_a-ef_sqrt.o)
                0x0000000000044330                __ieee754_sqrtf
 .opd           0x0000000000044348       0x18 /usr/local/ps3dev/ppu/lib/gcc/powerpc64-ps3-elf/7.2.0/../../../../powerpc64-ps3-elf/lib/libm.a(lib_a-kf_cos.o)
                0x0000000000044348                __kernel_cosf
 .opd           0x0000000000044360       0x18 /usr/local/ps3dev/ppu/lib/gcc/powerpc64-ps3-elf/7.2.0/../../../../powerpc64-ps3-elf/lib/libm.a(lib_a-kf_rem_pio2.o)
                0x0000000000044360                __kernel_rem_pio2f
 .opd           0x0000000000044378       0x18 /usr/local/ps3dev/ppu/lib/gcc/powerpc64-ps3-elf/7.2.0/../../../../powerpc64-ps3-elf/lib/libm.a(lib_a-kf_sin.o)
                0x0000000000044378                __kernel_sinf
 .opd           0x0000000000044390       0x18 /usr/local/ps3dev/ppu/lib/gcc/powerpc64-ps3-elf/7.2.0/../../../../powerpc64-ps3-elf/lib/libm.a(lib_a-kf_tan.o)
                0x0000000000044390                __kernel_tanf
 .opd           0x00000000000443a8       0x18 /usr/local/ps3dev/ppu/lib/gcc/powerpc64-ps3-elf/7.2.0/../../../../powerpc64-ps3-elf/lib/libm.a(lib_a-s_fpclassify.o)
                0x00000000000443a8                __fpclassifyd
 .opd           0x00000000000443c0       0x18 /usr/local/ps3dev/ppu/lib/gcc/powerpc64-ps3-elf/7.2.0/../../../../powerpc64-ps3-elf/lib/libm.a(lib_a-s_matherr.o)
                0x00000000000443c0                matherr
 .opd           0x00000000000443d8       0x18 /usr/local/ps3dev/ppu/lib/gcc/powerpc64-ps3-elf/7.2.0/../../../../powerpc64-ps3-elf/lib/libm.a(lib_a-sf_fabs.o)
                0x00000000000443d8                fabsf
 .opd           0x00000000000443f0       0x18 /usr/local/ps3dev/ppu/lib/gcc/powerpc64-ps3-elf/7.2.0/../../../../powerpc64-ps3-elf/lib/libm.a(lib_a-sf_floor.o)
                0x00000000000443f0                floorf
 .opd           0x0000000000044408       0x18 /usr/local/ps3dev/ppu/lib/gcc/powerpc64-ps3-elf/7.2.0/../../../../powerpc64-ps3-elf/lib/libm.a(lib_a-sf_fpclassify.o)
                0x0000000000044408                __fpclassifyf
 .opd           0x0000000000044420       0x18 /usr/local/ps3dev/ppu/lib/gcc/powerpc64-ps3-elf/7.2.0/../../../../powerpc64-ps3-elf/lib/libm.a(lib_a-sf_scalbn.o)
                0x0000000000044420                scalbnf
 .opd           0x0000000000044438       0x18 /usr/local/ps3dev/ppu/lib/gcc/powerpc64-ps3-elf/7.2.0/../../../../powerpc64-ps3-elf/lib/libm.a(lib_a-sf_copysign.o)
                0x0000000000044438                copysignf
 .opd           0x0000000000044450       0x30 /usr/local/ps3dev/ppu/lib/gcc/powerpc64-ps3-elf/7.2.0/../../../../powerpc64-ps3-elf/lib/libsysbase.a(sleep.o)
                0x0000000000044450                usleep
                0x0000000000044468                sleep
 .opd           0x0000000000044480       0x18 /usr/local/ps3dev/ppu/lib/gcc/powerpc64-ps3-elf/7.2.0/../../../../powerpc64-ps3-elf/lib/libc.a(lib_a-atexit.o)
                0x0000000000044480                atexit
 .opd           0x0000000000044498       0x18 /usr/local/ps3dev/ppu/lib/gcc/powerpc64-ps3-elf/7.2.0/../../../../powerpc64-ps3-elf/lib/libc.a(lib_a-calloc.o)
                0x0000000000044498                calloc
 .opd           0x00000000000444b0       0x18 /usr/local/ps3dev/ppu/lib/gcc/powerpc64-ps3-elf/7.2.0/../../../../powerpc64-ps3-elf/lib/libc.a(lib_a-callocr.o)
                0x00000000000444b0                _calloc_r
 .opd           0x00000000000444c8       0x18 /usr/local/ps3dev/ppu/lib/gcc/powerpc64-ps3-elf/7.2.0/../../../../powerpc64-ps3-elf/lib/libc.a(lib_a-errno.o)
                0x00000000000444c8                __errno
 .opd           0x00000000000444e0       0x18 /usr/local/ps3dev/ppu/lib/gcc/powerpc64-ps3-elf/7.2.0/../../../../powerpc64-ps3-elf/lib/libc.a(lib_a-exit.o)
                0x00000000000444e0                exit
 .opd           0x00000000000444f8       0x18 /usr/local/ps3dev/ppu/lib/gcc/powerpc64-ps3-elf/7.2.0/../../../../powerpc64-ps3-elf/lib/libc.a(lib_a-getreent.o)
                0x00000000000444f8                __getreent
 .opd           0x0000000000044510       0x18 /usr/local/ps3dev/ppu/lib/gcc/powerpc64-ps3-elf/7.2.0/../../../../powerpc64-ps3-elf/lib/libc.a(lib_a-malign.o)
                0x0000000000044510                memalign
 .opd           0x0000000000044528       0x18 /usr/local/ps3dev/ppu/lib/gcc/powerpc64-ps3-elf/7.2.0/../../../../powerpc64-ps3-elf/lib/libc.a(lib_a-malignr.o)
                0x0000000000044528                _memalign_r
 .opd           0x0000000000044540       0x30 /usr/local/ps3dev/ppu/lib/gcc/powerpc64-ps3-elf/7.2.0/../../../../powerpc64-ps3-elf/lib/libc.a(lib_a-malloc.o)
                0x0000000000044540                malloc
                0x0000000000044558                free
 .opd           0x0000000000044570       0x18 /usr/local/ps3dev/ppu/lib/gcc/powerpc64-ps3-elf/7.2.0/../../../../powerpc64-ps3-elf/lib/libc.a(lib_a-mallocr.o)
                0x0000000000044570                _malloc_r
 .opd           0x0000000000044588       0x18 /usr/local/ps3dev/ppu/lib/gcc/powerpc64-ps3-elf/7.2.0/../../../../powerpc64-ps3-elf/lib/libc.a(lib_a-memcpy.o)
                0x0000000000044588                memcpy
 .opd           0x00000000000445a0       0x18 /usr/local/ps3dev/ppu/lib/gcc/powerpc64-ps3-elf/7.2.0/../../../../powerpc64-ps3-elf/lib/libc.a(lib_a-memset.o)
                0x00000000000445a0                memset
 .opd           0x00000000000445b8       0x30 /usr/local/ps3dev/ppu/lib/gcc/powerpc64-ps3-elf/7.2.0/../../../../powerpc64-ps3-elf/lib/libc.a(lib_a-mlock.o)
                0x00000000000445b8                __malloc_lock
                0x00000000000445d0                __malloc_unlock
 .opd           0x00000000000445e8       0x30 /usr/local/ps3dev/ppu/lib/gcc/powerpc64-ps3-elf/7.2.0/../../../../powerpc64-ps3-elf/lib/libc.a(lib_a-puts.o)
                0x00000000000445e8                _puts_r
                0x0000000000044600                puts
 .opd           0x0000000000044618       0x30 /usr/local/ps3dev/ppu/lib/gcc/powerpc64-ps3-elf/7.2.0/../../../../powerpc64-ps3-elf/lib/libc.a(lib_a-sscanf.o)
                0x0000000000044618                sscanf
                0x0000000000044630                _sscanf_r
 .opd           0x0000000000044648       0x78 /usr/local/ps3dev/ppu/lib/gcc/powerpc64-ps3-elf/7.2.0/../../../../powerpc64-ps3-elf/lib/libc.a(lib_a-stdio.o)
                0x0000000000044648                __sread
                0x0000000000044660                __seofread
                0x0000000000044678                __swrite
                0x0000000000044690                __sseek
                0x00000000000446a8                __sclose
 .opd           0x00000000000446c0       0x18 /usr/local/ps3dev/ppu/lib/gcc/powerpc64-ps3-elf/7.2.0/../../../../powerpc64-ps3-elf/lib/libc.a(lib_a-strcasecmp.o)
                0x00000000000446c0                strcasecmp
 .opd           0x00000000000446d8       0x18 /usr/local/ps3dev/ppu/lib/gcc/powerpc64-ps3-elf/7.2.0/../../../../powerpc64-ps3-elf/lib/libc.a(lib_a-strlen.o)
                0x00000000000446d8                strlen
 .opd           0x00000000000446f0       0x18 /usr/local/ps3dev/ppu/lib/gcc/powerpc64-ps3-elf/7.2.0/../../../../powerpc64-ps3-elf/lib/libc.a(lib_a-strncpy.o)
                0x00000000000446f0                strncpy
 .opd           0x0000000000044708       0x18 /usr/local/ps3dev/ppu/lib/gcc/powerpc64-ps3-elf/7.2.0/../../../../powerpc64-ps3-elf/lib/libc.a(lib_a-svfscanf.o)
                0x0000000000044708                __ssvfscanf_r
 .opd           0x0000000000044720       0x30 /usr/local/ps3dev/ppu/lib/gcc/powerpc64-ps3-elf/7.2.0/../../../../powerpc64-ps3-elf/lib/libc.a(lib_a-vsnprintf.o)
                0x0000000000044720                _vsnprintf_r
                0x0000000000044738                vsnprintf
 .opd           0x0000000000044750       0x30 /usr/local/ps3dev/ppu/lib/gcc/powerpc64-ps3-elf/7.2.0/../../../../powerpc64-ps3-elf/lib/libc.a(lib_a-vsprintf.o)
                0x0000000000044750                _vsprintf_r
                0x0000000000044768                vsprintf
 .opd           0x0000000000044780       0x18 /usr/local/ps3dev/ppu/lib/gcc/powerpc64-ps3-elf/7.2.0/../../../../powerpc64-ps3-elf/lib/libc.a(lib_a-__atexit.o)
                0x0000000000044780                __register_exitproc
 .opd           0x0000000000044798       0x18 /usr/local/ps3dev/ppu/lib/gcc/powerpc64-ps3-elf/7.2.0/../../../../powerpc64-ps3-elf/lib/libc.a(lib_a-__call_atexit.o)
                0x0000000000044798                __call_exitprocs
 .opd           0x00000000000447b0       0x30 /usr/local/ps3dev/ppu/lib/gcc/powerpc64-ps3-elf/7.2.0/../../../../powerpc64-ps3-elf/lib/libc.a(lib_a-freer.o)
                0x00000000000447b0                _malloc_trim_r
                0x00000000000447c8                _free_r
 .opd           0x00000000000447e0       0x18 /usr/local/ps3dev/ppu/lib/gcc/powerpc64-ps3-elf/7.2.0/../../../../powerpc64-ps3-elf/lib/libc.a(lib_a-fvwrite.o)
                0x00000000000447e0                __sfvwrite_r
 .opd           0x00000000000447f8       0x18 /usr/local/ps3dev/ppu/lib/gcc/powerpc64-ps3-elf/7.2.0/../../../../powerpc64-ps3-elf/lib/libc.a(lib_a-iswspace.o)
                0x00000000000447f8                iswspace
 .opd           0x0000000000044810       0xc0 /usr/local/ps3dev/ppu/lib/gcc/powerpc64-ps3-elf/7.2.0/../../../../powerpc64-ps3-elf/lib/libc.a(lib_a-locale.o)
                0x0000000000044810                _setlocale_r
                0x0000000000044828                __locale_charset
                0x0000000000044840                __locale_mb_cur_max
                0x0000000000044858                __locale_msgcharset
                0x0000000000044870                __locale_cjk_lang
                0x0000000000044888                _localeconv_r
                0x00000000000448a0                setlocale
                0x00000000000448b8                localeconv
 .opd           0x00000000000448d0       0x78 /usr/local/ps3dev/ppu/lib/gcc/powerpc64-ps3-elf/7.2.0/../../../../powerpc64-ps3-elf/lib/libc.a(lib_a-lock_recursive.o)
                0x00000000000448d0                __libc_lock_init_recursive
                0x00000000000448e8                __libc_lock_close_recursive
                0x0000000000044900                __libc_lock_acquire_recursive
                0x0000000000044918                __libc_lock_try_acquire_recursive
                0x0000000000044930                __libc_lock_release_recursive
 .opd           0x0000000000044948       0x30 /usr/local/ps3dev/ppu/lib/gcc/powerpc64-ps3-elf/7.2.0/../../../../powerpc64-ps3-elf/lib/libc.a(lib_a-mbrtowc.o)
                0x0000000000044948                _mbrtowc_r
                0x0000000000044960                mbrtowc
 .opd           0x0000000000044978       0x30 /usr/local/ps3dev/ppu/lib/gcc/powerpc64-ps3-elf/7.2.0/../../../../powerpc64-ps3-elf/lib/libc.a(lib_a-mbtowc_r.o)
                0x0000000000044978                __ascii_mbtowc
                0x0000000000044990                _mbtowc_r
 .opd           0x00000000000449a8       0x18 /usr/local/ps3dev/ppu/lib/gcc/powerpc64-ps3-elf/7.2.0/../../../../powerpc64-ps3-elf/lib/libc.a(lib_a-memchr.o)
                0x00000000000449a8                memchr
 .opd           0x00000000000449c0       0x18 /usr/local/ps3dev/ppu/lib/gcc/powerpc64-ps3-elf/7.2.0/../../../../powerpc64-ps3-elf/lib/libc.a(lib_a-memmove.o)
                0x00000000000449c0                memmove
 .opd           0x00000000000449d8       0x18 /usr/local/ps3dev/ppu/lib/gcc/powerpc64-ps3-elf/7.2.0/../../../../powerpc64-ps3-elf/lib/libc.a(lib_a-reallocr.o)
                0x00000000000449d8                _realloc_r
 .opd           0x00000000000449f0       0x18 /usr/local/ps3dev/ppu/lib/gcc/powerpc64-ps3-elf/7.2.0/../../../../powerpc64-ps3-elf/lib/libc.a(lib_a-sccl.o)
                0x00000000000449f0                __sccl
 .opd           0x0000000000044a08       0x18 /usr/local/ps3dev/ppu/lib/gcc/powerpc64-ps3-elf/7.2.0/../../../../powerpc64-ps3-elf/lib/libc.a(lib_a-sf_nan.o)
                0x0000000000044a08                nanf
 .opd           0x0000000000044a20       0x30 /usr/local/ps3dev/ppu/lib/gcc/powerpc64-ps3-elf/7.2.0/../../../../powerpc64-ps3-elf/lib/libc.a(lib_a-sprintf.o)
                0x0000000000044a20                _sprintf_r
                0x0000000000044a38                sprintf
 .opd           0x0000000000044a50       0x18 /usr/local/ps3dev/ppu/lib/gcc/powerpc64-ps3-elf/7.2.0/../../../../powerpc64-ps3-elf/lib/libc.a(lib_a-strcmp.o)
                0x0000000000044a50                strcmp
 .opd           0x0000000000044a68       0x48 /usr/local/ps3dev/ppu/lib/gcc/powerpc64-ps3-elf/7.2.0/../../../../powerpc64-ps3-elf/lib/libc.a(lib_a-strtod.o)
                0x0000000000044a68                _strtod_r
                0x0000000000044a80                strtod
                0x0000000000044a98                strtof
 .opd           0x0000000000044ab0       0x30 /usr/local/ps3dev/ppu/lib/gcc/powerpc64-ps3-elf/7.2.0/../../../../powerpc64-ps3-elf/lib/libc.a(lib_a-strtol.o)
                0x0000000000044ab0                _strtol_r
                0x0000000000044ac8                strtol
 .opd           0x0000000000044ae0       0x18 /usr/local/ps3dev/ppu/lib/gcc/powerpc64-ps3-elf/7.2.0/../../../../powerpc64-ps3-elf/lib/libc.a(lib_a-strtoll_r.o)
                0x0000000000044ae0                _strtoll_r
 .opd           0x0000000000044af8       0x30 /usr/local/ps3dev/ppu/lib/gcc/powerpc64-ps3-elf/7.2.0/../../../../powerpc64-ps3-elf/lib/libc.a(lib_a-strtoul.o)
                0x0000000000044af8                _strtoul_r
                0x0000000000044b10                strtoul
 .opd           0x0000000000044b28       0x18 /usr/local/ps3dev/ppu/lib/gcc/powerpc64-ps3-elf/7.2.0/../../../../powerpc64-ps3-elf/lib/libc.a(lib_a-strtoull_r.o)
                0x0000000000044b28                _strtoull_r
 .opd           0x0000000000044b40       0x60 /usr/local/ps3dev/ppu/lib/gcc/powerpc64-ps3-elf/7.2.0/../../../../powerpc64-ps3-elf/lib/libc.a(lib_a-svfiscanf.o)
                0x0000000000044b40                _sungetc_r
                0x0000000000044b58                __ssrefill_r
                0x0000000000044b70                _sfread_r
                0x0000000000044b88                __ssvfiscanf_r
 .opd           0x0000000000044ba0       0x18 /usr/local/ps3dev/ppu/lib/gcc/powerpc64-ps3-elf/7.2.0/../../../../powerpc64-ps3-elf/lib/libc.a(lib_a-svfprintf.o)
                0x0000000000044ba0                _svfprintf_r
 .opd           0x0000000000044bb8       0x48 /usr/local/ps3dev/ppu/lib/gcc/powerpc64-ps3-elf/7.2.0/../../../../powerpc64-ps3-elf/lib/libc.a(lib_a-ungetc.o)
                0x0000000000044bb8                __submore
                0x0000000000044bd0                _ungetc_r
                0x0000000000044be8                ungetc
 .opd           0x0000000000044c00       0x18 /usr/local/ps3dev/ppu/lib/gcc/powerpc64-ps3-elf/7.2.0/../../../../powerpc64-ps3-elf/lib/libc.a(lib_a-wsetup.o)
                0x0000000000044c00                __swsetup_r
 .opd           0x0000000000044c18       0x30 /usr/local/ps3dev/ppu/lib/gcc/powerpc64-ps3-elf/7.2.0/../../../../powerpc64-ps3-elf/lib/libc.a(lib_a-dtoa.o)
                0x0000000000044c30                _dtoa_r
 .opd           0x0000000000044c48       0x48 /usr/local/ps3dev/ppu/lib/gcc/powerpc64-ps3-elf/7.2.0/../../../../powerpc64-ps3-elf/lib/libc.a(lib_a-fflush.o)
                0x0000000000044c48                __sflush_r
                0x0000000000044c60                _fflush_r
                0x0000000000044c78                fflush
 .opd           0x0000000000044c90      0x150 /usr/local/ps3dev/ppu/lib/gcc/powerpc64-ps3-elf/7.2.0/../../../../powerpc64-ps3-elf/lib/libc.a(lib_a-findfp.o)
                0x0000000000044c90                _cleanup_r
                0x0000000000044cf0                __sfmoreglue
                0x0000000000044d08                _cleanup
                0x0000000000044d20                __sinit
                0x0000000000044d38                __sfp
                0x0000000000044d50                __sfp_lock_acquire
                0x0000000000044d68                __sfp_lock_release
                0x0000000000044d80                __sinit_lock_acquire
                0x0000000000044d98                __sinit_lock_release
                0x0000000000044db0                __fp_lock_all
                0x0000000000044dc8                __fp_unlock_all
 .opd           0x0000000000044de0       0x30 /usr/local/ps3dev/ppu/lib/gcc/powerpc64-ps3-elf/7.2.0/../../../../powerpc64-ps3-elf/lib/libc.a(lib_a-fwalk.o)
                0x0000000000044de0                _fwalk
                0x0000000000044df8                _fwalk_reent
 .opd           0x0000000000044e10       0x48 /usr/local/ps3dev/ppu/lib/gcc/powerpc64-ps3-elf/7.2.0/../../../../powerpc64-ps3-elf/lib/libc.a(lib_a-gdtoa-gethex.o)
                0x0000000000044e28                __hexdig_init
                0x0000000000044e40                __gethex
 .opd           0x0000000000044e58       0x18 /usr/local/ps3dev/ppu/lib/gcc/powerpc64-ps3-elf/7.2.0/../../../../powerpc64-ps3-elf/lib/libc.a(lib_a-gdtoa-hexnan.o)
                0x0000000000044e58                __hexnan
 .opd           0x0000000000044e70       0x30 /usr/local/ps3dev/ppu/lib/gcc/powerpc64-ps3-elf/7.2.0/../../../../powerpc64-ps3-elf/lib/libc.a(lib_a-lock_internal.o)
                0x0000000000044e88                __libc_auto_lock_allocate
 .opd           0x0000000000044ea0       0x18 /usr/local/ps3dev/ppu/lib/gcc/powerpc64-ps3-elf/7.2.0/../../../../powerpc64-ps3-elf/lib/libc.a(lib_a-makebuf.o)
                0x0000000000044ea0                __smakebuf_r
 .opd           0x0000000000044eb8      0x1c8 /usr/local/ps3dev/ppu/lib/gcc/powerpc64-ps3-elf/7.2.0/../../../../powerpc64-ps3-elf/lib/libc.a(lib_a-mprec.o)
                0x0000000000044eb8                _Balloc
                0x0000000000044ed0                _Bfree
                0x0000000000044ee8                __multadd
                0x0000000000044f00                __s2b
                0x0000000000044f18                __hi0bits
                0x0000000000044f30                __lo0bits
                0x0000000000044f48                __i2b
                0x0000000000044f60                __multiply
                0x0000000000044f78                __pow5mult
                0x0000000000044f90                __lshift
                0x0000000000044fa8                __mcmp
                0x0000000000044fc0                __mdiff
                0x0000000000044fd8                __ulp
                0x0000000000044ff0                __b2d
                0x0000000000045008                __d2b
                0x0000000000045020                __ratio
                0x0000000000045038                _mprec_log10
                0x0000000000045050                __copybits
                0x0000000000045068                __any_on
 .opd           0x0000000000045080       0x18 /usr/local/ps3dev/ppu/lib/gcc/powerpc64-ps3-elf/7.2.0/../../../../powerpc64-ps3-elf/lib/libc.a(lib_a-strncmp.o)
                0x0000000000045080                strncmp
 .opd           0x0000000000045098       0x30 /usr/local/ps3dev/ppu/lib/gcc/powerpc64-ps3-elf/7.2.0/../../../../powerpc64-ps3-elf/lib/libc.a(lib_a-svfiprintf.o)
                0x0000000000045098                __ssprint_r
                0x00000000000450b0                _svfiprintf_r
 .opd           0x00000000000450c8       0x18 /usr/local/ps3dev/ppu/lib/gcc/powerpc64-ps3-elf/7.2.0/../../../../powerpc64-ps3-elf/lib/libc.a(lib_a-abort.o)
                0x00000000000450c8                abort
 .opd           0x00000000000450e0       0x30 /usr/local/ps3dev/ppu/lib/gcc/powerpc64-ps3-elf/7.2.0/../../../../powerpc64-ps3-elf/lib/libc.a(lib_a-fclose.o)
                0x00000000000450e0                _fclose_r
                0x00000000000450f8                fclose
 .opd           0x0000000000045110       0xd8 /usr/local/ps3dev/ppu/lib/gcc/powerpc64-ps3-elf/7.2.0/../../../../powerpc64-ps3-elf/lib/libc.a(lib_a-signal.o)
                0x0000000000045128                _init_signal_r
                0x0000000000045140                _signal_r
                0x0000000000045158                _raise_r
                0x0000000000045170                __sigtramp_r
                0x0000000000045188                raise
                0x00000000000451a0                signal
                0x00000000000451b8                _init_signal
                0x00000000000451d0                __sigtramp
 .opd           0x00000000000451e8       0x18 /usr/local/ps3dev/ppu/lib/gcc/powerpc64-ps3-elf/7.2.0/../../../../powerpc64-ps3-elf/lib/libsysbase.a(close.o)
                0x00000000000451e8                _close_r
 .opd           0x0000000000045200       0x18 /usr/local/ps3dev/ppu/lib/gcc/powerpc64-ps3-elf/7.2.0/../../../../powerpc64-ps3-elf/lib/libsysbase.a(sbrk.o)
                0x0000000000045200                _sbrk_r
 .opd           0x0000000000045218       0x18 /usr/local/ps3dev/ppu/lib/gcc/powerpc64-ps3-elf/7.2.0/../../../../powerpc64-ps3-elf/lib/libsysbase.a(_exit.o)
                0x0000000000045218                _exit
 .opd           0x0000000000045230       0x18 /usr/local/ps3dev/ppu/lib/gcc/powerpc64-ps3-elf/7.2.0/../../../../powerpc64-ps3-elf/lib/libsysbase.a(fstat.o)
                0x0000000000045230                _fstat_r
 .opd           0x0000000000045248       0x18 /usr/local/ps3dev/ppu/lib/gcc/powerpc64-ps3-elf/7.2.0/../../../../powerpc64-ps3-elf/lib/libsysbase.a(isatty.o)
                0x0000000000045248                _isatty_r
 .opd           0x0000000000045260       0x18 /usr/local/ps3dev/ppu/lib/gcc/powerpc64-ps3-elf/7.2.0/../../../../powerpc64-ps3-elf/lib/libsysbase.a(lseek.o)
                0x0000000000045260                _lseek_r
 .opd           0x0000000000045278       0x18 /usr/local/ps3dev/ppu/lib/gcc/powerpc64-ps3-elf/7.2.0/../../../../powerpc64-ps3-elf/lib/libsysbase.a(read.o)
                0x0000000000045278                _read_r
 .opd           0x0000000000045290       0x18 /usr/local/ps3dev/ppu/lib/gcc/powerpc64-ps3-elf/7.2.0/../../../../powerpc64-ps3-elf/lib/libsysbase.a(write.o)
                0x0000000000045290                _write_r
 .opd           0x00000000000452a8       0x78 /usr/local/ps3dev/ppu/lib/gcc/powerpc64-ps3-elf/7.2.0/../../../../powerpc64-ps3-elf/lib/libsysbase.a(lock.o)
                0x00000000000452a8                sys_lwmutex_create
                0x00000000000452c0                sys_lwmutex_destroy
                0x00000000000452d8                sys_lwmutex_lock
                0x00000000000452f0                sys_lwmutex_trylock
                0x0000000000045308                sys_lwmutex_unlock
 .opd           0x0000000000045320       0x18 /usr/local/ps3dev/ppu/lib/gcc/powerpc64-ps3-elf/7.2.0/../../../../powerpc64-ps3-elf/lib/libsysbase.a(getpid.o)
                0x0000000000045320                _getpid_r
 .opd           0x0000000000045338       0x18 /usr/local/ps3dev/ppu/lib/gcc/powerpc64-ps3-elf/7.2.0/../../../../powerpc64-ps3-elf/lib/libsysbase.a(kill.o)
                0x0000000000045338                _kill_r
 .opd           0x0000000000045350       0x18 /usr/local/ps3dev/ppu/lib/gcc/powerpc64-ps3-elf/7.2.0/crtend.o

.branch_lt      0x0000000000045368        0x0
 *(.branch_lt)
 .branch_lt     0x0000000000045368        0x0 linker stubs

.got            0x0000000000045368      0xe40
 *(.got .toc)
 .toc           0x0000000000045368       0x60 /usr/local/ps3dev/ppu/lib/gcc/powerpc64-ps3-elf/7.2.0/crtbegin.o
 .toc           0x00000000000453c8       0x28 /usr/local/ps3dev/psl1ght/ppu/lib/librt.a(sbrk.o)
 .toc           0x00000000000453f0        0x8 /usr/local/ps3dev/ppu/lib/gcc/powerpc64-ps3-elf/7.2.0/crtend.o
 .toc           0x00000000000453f8      0x118 /usr/local/ps3dev/ppu/lib/gcc/powerpc64-ps3-elf/7.2.0/../../../../powerpc64-ps3-elf/lib/lv2-crt0.o
 .toc           0x0000000000045510       0xc8 main.o
 .toc           0x00000000000455d8       0x40 /usr/local/ps3dev/portlibs/ppu/lib/libfont.a(libfont.o)
 .toc           0x0000000000045618      0x388 /home/scristaldi/tiny3d_Estwald_work/fonts/libtiny3d_.a(tiny3d.o)
 .toc           0x00000000000459a0       0x18 /home/scristaldi/tiny3d_Estwald_work/fonts/libtiny3d_.a(mm.o)
 .toc           0x00000000000459b8       0x38 /home/scristaldi/tiny3d_Estwald_work/fonts/libtiny3d_.a(matrix.o)
 .toc           0x00000000000459f0       0x28 /home/scristaldi/tiny3d_Estwald_work/fonts/libtiny3d_.a(commands.o)
 .toc           0x0000000000045a18       0x60 /home/scristaldi/tiny3d_Estwald_work/fonts/libtiny3d_.a(rsxutil.o)
 .toc           0x0000000000045a78        0x8 /usr/local/ps3dev/psl1ght/ppu/lib/librt.a(open.o)
 .toc           0x0000000000045a80        0x8 /usr/local/ps3dev/psl1ght/ppu/lib/librt.a(socket.o)
 .toc           0x0000000000045a88        0x8 /usr/local/ps3dev/psl1ght/ppu/lib/librt.a(mkdir.o)
 .toc           0x0000000000045a90        0x8 /usr/local/ps3dev/psl1ght/ppu/lib/librt.a(umask.o)
 .toc           0x0000000000045a98        0x8 /usr/local/ps3dev/psl1ght/ppu/lib/libnet.a(init.o)
 .toc           0x0000000000045aa0        0x8 /usr/local/ps3dev/ppu/lib/gcc/powerpc64-ps3-elf/7.2.0/../../../../powerpc64-ps3-elf/lib/libm.a(lib_a-sf_cos.o)
 .toc           0x0000000000045aa8        0x8 /usr/local/ps3dev/ppu/lib/gcc/powerpc64-ps3-elf/7.2.0/../../../../powerpc64-ps3-elf/lib/libm.a(lib_a-sf_sin.o)
 .toc           0x0000000000045ab0        0x8 /usr/local/ps3dev/ppu/lib/gcc/powerpc64-ps3-elf/7.2.0/../../../../powerpc64-ps3-elf/lib/libm.a(lib_a-sf_tan.o)
 .toc           0x0000000000045ab8       0x18 /usr/local/ps3dev/ppu/lib/gcc/powerpc64-ps3-elf/7.2.0/../../../../powerpc64-ps3-elf/lib/libm.a(lib_a-w_sqrt.o)
 .toc           0x0000000000045ad0       0x18 /usr/local/ps3dev/ppu/lib/gcc/powerpc64-ps3-elf/7.2.0/../../../../powerpc64-ps3-elf/lib/libm.a(lib_a-wf_sqrt.o)
 .toc           0x0000000000045ae8       0x60 /usr/local/ps3dev/ppu/lib/gcc/powerpc64-ps3-elf/7.2.0/../../../../powerpc64-ps3-elf/lib/libm.a(lib_a-ef_rem_pio2.o)
 .toc           0x0000000000045b48       0x50 /usr/local/ps3dev/ppu/lib/gcc/powerpc64-ps3-elf/7.2.0/../../../../powerpc64-ps3-elf/lib/libm.a(lib_a-kf_cos.o)
 .toc           0x0000000000045b98       0x50 /usr/local/ps3dev/ppu/lib/gcc/powerpc64-ps3-elf/7.2.0/../../../../powerpc64-ps3-elf/lib/libm.a(lib_a-kf_rem_pio2.o)
 .toc           0x0000000000045be8       0x40 /usr/local/ps3dev/ppu/lib/gcc/powerpc64-ps3-elf/7.2.0/../../../../powerpc64-ps3-elf/lib/libm.a(lib_a-kf_sin.o)
 .toc           0x0000000000045c28       0x98 /usr/local/ps3dev/ppu/lib/gcc/powerpc64-ps3-elf/7.2.0/../../../../powerpc64-ps3-elf/lib/libm.a(lib_a-kf_tan.o)
 .toc           0x0000000000045cc0       0x18 /usr/local/ps3dev/ppu/lib/gcc/powerpc64-ps3-elf/7.2.0/../../../../powerpc64-ps3-elf/lib/libm.a(lib_a-sf_floor.o)
 .toc           0x0000000000045cd8       0x20 /usr/local/ps3dev/ppu/lib/gcc/powerpc64-ps3-elf/7.2.0/../../../../powerpc64-ps3-elf/lib/libm.a(lib_a-sf_scalbn.o)
 .toc           0x0000000000045cf8        0x8 /usr/local/ps3dev/ppu/lib/gcc/powerpc64-ps3-elf/7.2.0/../../../../powerpc64-ps3-elf/lib/libsysbase.a(sleep.o)
 .toc           0x0000000000045d00        0x8 /usr/local/ps3dev/ppu/lib/gcc/powerpc64-ps3-elf/7.2.0/../../../../powerpc64-ps3-elf/lib/libc.a(lib_a-exit.o)
 .toc           0x0000000000045d08        0x8 /usr/local/ps3dev/ppu/lib/gcc/powerpc64-ps3-elf/7.2.0/../../../../powerpc64-ps3-elf/lib/libc.a(lib_a-getreent.o)
 .toc           0x0000000000045d10       0x30 /usr/local/ps3dev/ppu/lib/gcc/powerpc64-ps3-elf/7.2.0/../../../../powerpc64-ps3-elf/lib/libc.a(lib_a-mallocr.o)
 .toc           0x0000000000045d40        0x8 /usr/local/ps3dev/ppu/lib/gcc/powerpc64-ps3-elf/7.2.0/../../../../powerpc64-ps3-elf/lib/libc.a(lib_a-mlock.o)
 .toc           0x0000000000045d48        0x8 /usr/local/ps3dev/ppu/lib/gcc/powerpc64-ps3-elf/7.2.0/../../../../powerpc64-ps3-elf/lib/libc.a(lib_a-puts.o)
 .toc           0x0000000000045d50        0x8 /usr/local/ps3dev/ppu/lib/gcc/powerpc64-ps3-elf/7.2.0/../../../../powerpc64-ps3-elf/lib/libc.a(lib_a-sscanf.o)
 .toc           0x0000000000045d58        0x8 /usr/local/ps3dev/ppu/lib/gcc/powerpc64-ps3-elf/7.2.0/../../../../powerpc64-ps3-elf/lib/libc.a(lib_a-strcasecmp.o)
 .toc           0x0000000000045d60       0x40 /usr/local/ps3dev/ppu/lib/gcc/powerpc64-ps3-elf/7.2.0/../../../../powerpc64-ps3-elf/lib/libc.a(lib_a-svfscanf.o)
 .toc           0x0000000000045da0       0x18 /usr/local/ps3dev/ppu/lib/gcc/powerpc64-ps3-elf/7.2.0/../../../../powerpc64-ps3-elf/lib/libc.a(lib_a-__atexit.o)
 .toc           0x0000000000045db8       0x18 /usr/local/ps3dev/ppu/lib/gcc/powerpc64-ps3-elf/7.2.0/../../../../powerpc64-ps3-elf/lib/libc.a(lib_a-__call_atexit.o)
 .toc           0x0000000000045dd0       0x30 /usr/local/ps3dev/ppu/lib/gcc/powerpc64-ps3-elf/7.2.0/../../../../powerpc64-ps3-elf/lib/libc.a(lib_a-freer.o)
 .toc           0x0000000000045e00        0x8 /usr/local/ps3dev/ppu/lib/gcc/powerpc64-ps3-elf/7.2.0/../../../../powerpc64-ps3-elf/lib/libc.a(lib_a-iswspace.o)
 .toc           0x0000000000045e08       0x38 /usr/local/ps3dev/ppu/lib/gcc/powerpc64-ps3-elf/7.2.0/../../../../powerpc64-ps3-elf/lib/libc.a(lib_a-locale.o)
 .toc           0x0000000000045e40        0x8 /usr/local/ps3dev/ppu/lib/gcc/powerpc64-ps3-elf/7.2.0/../../../../powerpc64-ps3-elf/lib/libc.a(lib_a-lock_recursive.o)
 .toc           0x0000000000045e48       0x10 /usr/local/ps3dev/ppu/lib/gcc/powerpc64-ps3-elf/7.2.0/../../../../powerpc64-ps3-elf/lib/libc.a(lib_a-mbrtowc.o)
 .toc           0x0000000000045e58        0x8 /usr/local/ps3dev/ppu/lib/gcc/powerpc64-ps3-elf/7.2.0/../../../../powerpc64-ps3-elf/lib/libc.a(lib_a-mbtowc_r.o)
 .toc           0x0000000000045e60        0x8 /usr/local/ps3dev/ppu/lib/gcc/powerpc64-ps3-elf/7.2.0/../../../../powerpc64-ps3-elf/lib/libc.a(lib_a-reallocr.o)
 .toc           0x0000000000045e68        0x8 /usr/local/ps3dev/ppu/lib/gcc/powerpc64-ps3-elf/7.2.0/../../../../powerpc64-ps3-elf/lib/libc.a(lib_a-sf_nan.o)
 .toc           0x0000000000045e70       0xa8 /usr/local/ps3dev/ppu/lib/gcc/powerpc64-ps3-elf/7.2.0/../../../../powerpc64-ps3-elf/lib/libc.a(lib_a-strtod.o)
 .toc           0x0000000000045f18        0x8 /usr/local/ps3dev/ppu/lib/gcc/powerpc64-ps3-elf/7.2.0/../../../../powerpc64-ps3-elf/lib/libc.a(lib_a-strtol.o)
 .toc           0x0000000000045f20        0x8 /usr/local/ps3dev/ppu/lib/gcc/powerpc64-ps3-elf/7.2.0/../../../../powerpc64-ps3-elf/lib/libc.a(lib_a-strtoll_r.o)
 .toc           0x0000000000045f28        0x8 /usr/local/ps3dev/ppu/lib/gcc/powerpc64-ps3-elf/7.2.0/../../../../powerpc64-ps3-elf/lib/libc.a(lib_a-strtoul.o)
 .toc           0x0000000000045f30        0x8 /usr/local/ps3dev/ppu/lib/gcc/powerpc64-ps3-elf/7.2.0/../../../../powerpc64-ps3-elf/lib/libc.a(lib_a-strtoull_r.o)
 .toc           0x0000000000045f38       0x30 /usr/local/ps3dev/ppu/lib/gcc/powerpc64-ps3-elf/7.2.0/../../../../powerpc64-ps3-elf/lib/libc.a(lib_a-svfiscanf.o)
 .toc           0x0000000000045f68       0x68 /usr/local/ps3dev/ppu/lib/gcc/powerpc64-ps3-elf/7.2.0/../../../../powerpc64-ps3-elf/lib/libc.a(lib_a-svfprintf.o)
 .toc           0x0000000000045fd0       0x80 /usr/local/ps3dev/ppu/lib/gcc/powerpc64-ps3-elf/7.2.0/../../../../powerpc64-ps3-elf/lib/libc.a(lib_a-dtoa.o)
 .toc           0x0000000000046050       0x10 /usr/local/ps3dev/ppu/lib/gcc/powerpc64-ps3-elf/7.2.0/../../../../powerpc64-ps3-elf/lib/libc.a(lib_a-fflush.o)
 .toc           0x0000000000046060       0x58 /usr/local/ps3dev/ppu/lib/gcc/powerpc64-ps3-elf/7.2.0/../../../../powerpc64-ps3-elf/lib/libc.a(lib_a-findfp.o)
 .toc           0x00000000000460b8       0x20 /usr/local/ps3dev/ppu/lib/gcc/powerpc64-ps3-elf/7.2.0/../../../../powerpc64-ps3-elf/lib/libc.a(lib_a-gdtoa-gethex.o)
 .toc           0x00000000000460d8        0x8 /usr/local/ps3dev/ppu/lib/gcc/powerpc64-ps3-elf/7.2.0/../../../../powerpc64-ps3-elf/lib/libc.a(lib_a-gdtoa-hexnan.o)
 .toc           0x00000000000460e0       0x10 /usr/local/ps3dev/ppu/lib/gcc/powerpc64-ps3-elf/7.2.0/../../../../powerpc64-ps3-elf/lib/libc.a(lib_a-lock_internal.o)
 .toc           0x00000000000460f0       0x10 /usr/local/ps3dev/ppu/lib/gcc/powerpc64-ps3-elf/7.2.0/../../../../powerpc64-ps3-elf/lib/libc.a(lib_a-makebuf.o)
 .toc           0x0000000000046100       0x20 /usr/local/ps3dev/ppu/lib/gcc/powerpc64-ps3-elf/7.2.0/../../../../powerpc64-ps3-elf/lib/libc.a(lib_a-mprec.o)
 .toc           0x0000000000046120       0x38 /usr/local/ps3dev/ppu/lib/gcc/powerpc64-ps3-elf/7.2.0/../../../../powerpc64-ps3-elf/lib/libc.a(lib_a-svfiprintf.o)
 .toc           0x0000000000046158        0x8 /usr/local/ps3dev/ppu/lib/gcc/powerpc64-ps3-elf/7.2.0/../../../../powerpc64-ps3-elf/lib/libsysbase.a(close.o)
 .toc           0x0000000000046160        0x8 /usr/local/ps3dev/ppu/lib/gcc/powerpc64-ps3-elf/7.2.0/../../../../powerpc64-ps3-elf/lib/libsysbase.a(sbrk.o)
 .toc           0x0000000000046168        0x8 /usr/local/ps3dev/ppu/lib/gcc/powerpc64-ps3-elf/7.2.0/../../../../powerpc64-ps3-elf/lib/libsysbase.a(_exit.o)
 .toc           0x0000000000046170        0x8 /usr/local/ps3dev/ppu/lib/gcc/powerpc64-ps3-elf/7.2.0/../../../../powerpc64-ps3-elf/lib/libsysbase.a(fstat.o)
 .toc           0x0000000000046178        0x8 /usr/local/ps3dev/ppu/lib/gcc/powerpc64-ps3-elf/7.2.0/../../../../powerpc64-ps3-elf/lib/libsysbase.a(isatty.o)
 .toc           0x0000000000046180        0x8 /usr/local/ps3dev/ppu/lib/gcc/powerpc64-ps3-elf/7.2.0/../../../../powerpc64-ps3-elf/lib/libsysbase.a(lseek.o)
 .toc           0x0000000000046188        0x8 /usr/local/ps3dev/ppu/lib/gcc/powerpc64-ps3-elf/7.2.0/../../../../powerpc64-ps3-elf/lib/libsysbase.a(read.o)
 .toc           0x0000000000046190        0x8 /usr/local/ps3dev/ppu/lib/gcc/powerpc64-ps3-elf/7.2.0/../../../../powerpc64-ps3-elf/lib/libsysbase.a(write.o)
 .toc           0x0000000000046198        0x8 /usr/local/ps3dev/ppu/lib/gcc/powerpc64-ps3-elf/7.2.0/../../../../powerpc64-ps3-elf/lib/libsysbase.a(lock.o)
 .toc           0x00000000000461a0        0x8 /usr/local/ps3dev/ppu/lib/gcc/powerpc64-ps3-elf/7.2.0/../../../../powerpc64-ps3-elf/lib/libsysbase.a(getpid.o)

.toc.sceStub
 *(.toc.sceStub)
 *(SORT(.toc.sceStub.*))

.tdata
 *(.tdata .tdata.* .gnu.linkonce.td.*)

.tbss           0x00000000000461a8      0x780
 *(.tbss .tbss.* .gnu.linkonce.tb.*)
 .tbss.t_reentp
                0x00000000000461a8        0x8 /usr/local/ps3dev/ppu/lib/gcc/powerpc64-ps3-elf/7.2.0/../../../../powerpc64-ps3-elf/lib/libc.a(lib_a-getreent.o)
 .tbss.t_reent  0x00000000000461b0      0x778 /usr/local/ps3dev/ppu/lib/gcc/powerpc64-ps3-elf/7.2.0/../../../../powerpc64-ps3-elf/lib/libc.a(lib_a-getreent.o)
 *(.tcommon)
                0x0000000010000000                . = ALIGN (0x10000000)

.rodata         0x0000000010000000     0x1bd0
 *(.rodata .rodata.* .gnu.linkonce.r.*)
 .rodata        0x0000000010000000       0x18 /usr/local/ps3dev/ppu/lib/gcc/powerpc64-ps3-elf/7.2.0/../../../../powerpc64-ps3-elf/lib/lv2-crt0.o
                0x0000000010000000                _start
 .rodata.DrawBackground2D.cst4
                0x0000000010000018       0x10 main.o
 .rodata.drawScene.cst4
                0x0000000010000028       0x1c main.o
 *fill*         0x0000000010000044        0x4 00
 .rodata.drawScene.str1.8
                0x0000000010000048      0x1e0 main.o
 .rodata.DrawChar.cst4
                0x0000000010000228        0xc /usr/local/ps3dev/portlibs/ppu/lib/libfont.a(libfont.o)
 .rodata.DrawString.cst4
                0x0000000010000234        0x4 /usr/local/ps3dev/portlibs/ppu/lib/libfont.a(libfont.o)
 .rodata.i_must_break_line.cst4
                0x0000000000000000        0x4 /usr/local/ps3dev/portlibs/ppu/lib/libfont.a(libfont.o)
 .rodata.Update_With_Normal.cst4
                0x0000000010000238        0x4 /home/scristaldi/tiny3d_Estwald_work/fonts/libtiny3d_.a(tiny3d.o)
                                          0x8 (size before relaxing)
 *fill*         0x000000001000023c        0x4 00
 .rodata.debugInit.str1.8
                0x0000000010000240       0x54 /home/scristaldi/tiny3d_Estwald_work/fonts/libtiny3d_.a(tiny3d.o)
 *fill*         0x0000000010000294        0x4 00
 .rodata.fpshader_list
                0x0000000010000298       0x70 /home/scristaldi/tiny3d_Estwald_work/fonts/libtiny3d_.a(tiny3d.o)
 .rodata.tiny3d_Clear.cst4
                0x0000000010000308        0x4 /home/scristaldi/tiny3d_Estwald_work/fonts/libtiny3d_.a(tiny3d.o)
                                         0x10 (size before relaxing)
 *fill*         0x000000001000030c        0x4 00
 .rodata.tiny3d_Init.str1.8
                0x0000000010000310      0x122 /home/scristaldi/tiny3d_Estwald_work/fonts/libtiny3d_.a(tiny3d.o)
 *fill*         0x0000000010000432        0x2 00
 .rodata.tiny3d_Project2D.cst4
                0x0000000010000434       0x34 /home/scristaldi/tiny3d_Estwald_work/fonts/libtiny3d_.a(tiny3d.o)
                                         0x3c (size before relaxing)
 .rodata.tiny3d_Project3D.cst4
                0x0000000010000468        0x8 /home/scristaldi/tiny3d_Estwald_work/fonts/libtiny3d_.a(tiny3d.o)
                                          0xc (size before relaxing)
 .rodata        0x0000000010000470      0xe00 /home/scristaldi/tiny3d_Estwald_work/fonts/libtiny3d_.a(vshader_text_normal.vcg.o)
                0x0000000010000470                vshader_text_normal_bin
 .rodata.MatrixMultiply.cst4
                0x0000000000000000        0x4 /home/scristaldi/tiny3d_Estwald_work/fonts/libtiny3d_.a(matrix.o)
 .rodata.MatrixProjPerspective.cst4
                0x0000000010001270        0x4 /home/scristaldi/tiny3d_Estwald_work/fonts/libtiny3d_.a(matrix.o)
                                          0x8 (size before relaxing)
 .rodata.MatrixRotationAxis.cst4
                0x0000000010001274        0xc /home/scristaldi/tiny3d_Estwald_work/fonts/libtiny3d_.a(matrix.o)
 .rodata.matrix_ident
                0x0000000010001280       0x40 /home/scristaldi/tiny3d_Estwald_work/fonts/libtiny3d_.a(matrix.o)
 .rodata.dma_cmds
                0x00000000100012c0       0x14 /home/scristaldi/tiny3d_Estwald_work/fonts/libtiny3d_.a(commands.o)
 .rodata.offset_cmds
                0x00000000100012d4       0x14 /home/scristaldi/tiny3d_Estwald_work/fonts/libtiny3d_.a(commands.o)
 .rodata.pitch_cmds
                0x00000000100012e8       0x14 /home/scristaldi/tiny3d_Estwald_work/fonts/libtiny3d_.a(commands.o)
 *fill*         0x00000000100012fc        0x4 00
 .rodata.inet_aton.str1.8
                0x0000000010001300        0xc /usr/local/ps3dev/psl1ght/ppu/lib/librt.a(socket.o)
 .rodata.cosf.cst4
                0x0000000000000000        0x4 /usr/local/ps3dev/ppu/lib/gcc/powerpc64-ps3-elf/7.2.0/../../../../powerpc64-ps3-elf/lib/libm.a(lib_a-sf_cos.o)
 .rodata.sinf.cst4
                0x0000000000000000        0x4 /usr/local/ps3dev/ppu/lib/gcc/powerpc64-ps3-elf/7.2.0/../../../../powerpc64-ps3-elf/lib/libm.a(lib_a-sf_sin.o)
 .rodata.tanf.cst4
                0x0000000000000000        0x4 /usr/local/ps3dev/ppu/lib/gcc/powerpc64-ps3-elf/7.2.0/../../../../powerpc64-ps3-elf/lib/libm.a(lib_a-sf_tan.o)
 .rodata.sqrt.cst4
                0x0000000000000000        0x4 /usr/local/ps3dev/ppu/lib/gcc/powerpc64-ps3-elf/7.2.0/../../../../powerpc64-ps3-elf/lib/libm.a(lib_a-w_sqrt.o)
 *fill*         0x000000001000130c        0x4 00
 .rodata.sqrt.str1.8
                0x0000000010001310        0x5 /usr/local/ps3dev/ppu/lib/gcc/powerpc64-ps3-elf/7.2.0/../../../../powerpc64-ps3-elf/lib/libm.a(lib_a-w_sqrt.o)
 .rodata.sqrtf.cst4
                0x0000000000000000        0x4 /usr/local/ps3dev/ppu/lib/gcc/powerpc64-ps3-elf/7.2.0/../../../../powerpc64-ps3-elf/lib/libm.a(lib_a-wf_sqrt.o)
 *fill*         0x0000000010001315        0x3 00
 .rodata.sqrtf.str1.8
                0x0000000010001318        0x6 /usr/local/ps3dev/ppu/lib/gcc/powerpc64-ps3-elf/7.2.0/../../../../powerpc64-ps3-elf/lib/libm.a(lib_a-wf_sqrt.o)
 *fill*         0x000000001000131e        0x2 00
 .rodata.__ieee754_rem_pio2f.cst4
                0x0000000010001320       0x1c /usr/local/ps3dev/ppu/lib/gcc/powerpc64-ps3-elf/7.2.0/../../../../powerpc64-ps3-elf/lib/libm.a(lib_a-ef_rem_pio2.o)
                                         0x28 (size before relaxing)
 .rodata.npio2_hw
                0x000000001000133c       0x80 /usr/local/ps3dev/ppu/lib/gcc/powerpc64-ps3-elf/7.2.0/../../../../powerpc64-ps3-elf/lib/libm.a(lib_a-ef_rem_pio2.o)
 .rodata.two_over_pi
                0x00000000100013bc      0x318 /usr/local/ps3dev/ppu/lib/gcc/powerpc64-ps3-elf/7.2.0/../../../../powerpc64-ps3-elf/lib/libm.a(lib_a-ef_rem_pio2.o)
 .rodata.__kernel_cosf.cst4
                0x00000000100016d4       0x20 /usr/local/ps3dev/ppu/lib/gcc/powerpc64-ps3-elf/7.2.0/../../../../powerpc64-ps3-elf/lib/libm.a(lib_a-kf_cos.o)
                                         0x28 (size before relaxing)
 .rodata.PIo2   0x00000000100016f4       0x2c /usr/local/ps3dev/ppu/lib/gcc/powerpc64-ps3-elf/7.2.0/../../../../powerpc64-ps3-elf/lib/libm.a(lib_a-kf_rem_pio2.o)
 .rodata.__kernel_rem_pio2f.cst4
                0x0000000010001720       0x10 /usr/local/ps3dev/ppu/lib/gcc/powerpc64-ps3-elf/7.2.0/../../../../powerpc64-ps3-elf/lib/libm.a(lib_a-kf_rem_pio2.o)
                                         0x20 (size before relaxing)
 .rodata.init_jk
                0x0000000010001730        0xc /usr/local/ps3dev/ppu/lib/gcc/powerpc64-ps3-elf/7.2.0/../../../../powerpc64-ps3-elf/lib/libm.a(lib_a-kf_rem_pio2.o)
 .rodata.__kernel_sinf.cst4
                0x000000001000173c       0x1c /usr/local/ps3dev/ppu/lib/gcc/powerpc64-ps3-elf/7.2.0/../../../../powerpc64-ps3-elf/lib/libm.a(lib_a-kf_sin.o)
                                         0x20 (size before relaxing)
 .rodata.__kernel_tanf.cst4
                0x0000000010001758       0x40 /usr/local/ps3dev/ppu/lib/gcc/powerpc64-ps3-elf/7.2.0/../../../../powerpc64-ps3-elf/lib/libm.a(lib_a-kf_tan.o)
                                         0x4c (size before relaxing)
 .rodata.floorf.cst4
                0x0000000010001798        0x4 /usr/local/ps3dev/ppu/lib/gcc/powerpc64-ps3-elf/7.2.0/../../../../powerpc64-ps3-elf/lib/libm.a(lib_a-sf_floor.o)
                                          0xc (size before relaxing)
 .rodata.scalbnf.cst4
                0x000000001000179c        0xc /usr/local/ps3dev/ppu/lib/gcc/powerpc64-ps3-elf/7.2.0/../../../../powerpc64-ps3-elf/lib/libm.a(lib_a-sf_scalbn.o)
                                         0x10 (size before relaxing)
 .rodata.__getreent.str1.8
                0x00000000100017a8        0x2 /usr/local/ps3dev/ppu/lib/gcc/powerpc64-ps3-elf/7.2.0/../../../../powerpc64-ps3-elf/lib/libc.a(lib_a-getreent.o)
 *fill*         0x00000000100017aa        0x6 00
 .rodata._global_impure_ptr
                0x00000000100017b0        0x8 /usr/local/ps3dev/ppu/lib/gcc/powerpc64-ps3-elf/7.2.0/../../../../powerpc64-ps3-elf/lib/libc.a(lib_a-impure.o)
                0x00000000100017b0                _global_impure_ptr
 .rodata.str1.8
                0x0000000000000000        0x2 /usr/local/ps3dev/ppu/lib/gcc/powerpc64-ps3-elf/7.2.0/../../../../powerpc64-ps3-elf/lib/libc.a(lib_a-impure.o)
 .rodata._puts_r.str1.8
                0x0000000000000000        0x2 /usr/local/ps3dev/ppu/lib/gcc/powerpc64-ps3-elf/7.2.0/../../../../powerpc64-ps3-elf/lib/libc.a(lib_a-puts.o)
 .rodata.__ssvfscanf_r.str1.8
                0x00000000100017b8        0x5 /usr/local/ps3dev/ppu/lib/gcc/powerpc64-ps3-elf/7.2.0/../../../../powerpc64-ps3-elf/lib/libc.a(lib_a-svfscanf.o)
 *fill*         0x00000000100017bd        0x1 00
 .rodata.basefix.4912
                0x00000000100017be       0x22 /usr/local/ps3dev/ppu/lib/gcc/powerpc64-ps3-elf/7.2.0/../../../../powerpc64-ps3-elf/lib/libc.a(lib_a-svfscanf.o)
 .rodata._ctype_
                0x00000000100017e0      0x101 /usr/local/ps3dev/ppu/lib/gcc/powerpc64-ps3-elf/7.2.0/../../../../powerpc64-ps3-elf/lib/libc.a(lib_a-ctype_.o)
                0x00000000100017e0                _ctype_
 *fill*         0x00000000100018e1        0x7 00
 .rodata._setlocale_r.str1.8
                0x00000000100018e8        0x6 /usr/local/ps3dev/ppu/lib/gcc/powerpc64-ps3-elf/7.2.0/../../../../powerpc64-ps3-elf/lib/libc.a(lib_a-locale.o)
                                         0x11 (size before relaxing)
 *fill*         0x00000000100018ee        0x2 00
 .rodata.str1.8
                0x00000000100018f0        0x2 /usr/local/ps3dev/ppu/lib/gcc/powerpc64-ps3-elf/7.2.0/../../../../powerpc64-ps3-elf/lib/libc.a(lib_a-locale.o)
 *fill*         0x00000000100018f2        0x2 00
 .rodata.__libc_lock_attributes
                0x00000000100018f4       0x10 /usr/local/ps3dev/ppu/lib/gcc/powerpc64-ps3-elf/7.2.0/../../../../powerpc64-ps3-elf/lib/libc.a(lib_a-lock_recursive.o)
 .rodata._mbrtowc_r.str1.8
                0x0000000000000000        0x1 /usr/local/ps3dev/ppu/lib/gcc/powerpc64-ps3-elf/7.2.0/../../../../powerpc64-ps3-elf/lib/libc.a(lib_a-mbrtowc.o)
 .rodata.nanf.cst4
                0x0000000010001904        0x4 /usr/local/ps3dev/ppu/lib/gcc/powerpc64-ps3-elf/7.2.0/../../../../powerpc64-ps3-elf/lib/libc.a(lib_a-sf_nan.o)
 .rodata._strtod_r.cst4
                0x0000000010001908        0x4 /usr/local/ps3dev/ppu/lib/gcc/powerpc64-ps3-elf/7.2.0/../../../../powerpc64-ps3-elf/lib/libc.a(lib_a-strtod.o)
                                         0x14 (size before relaxing)
 *fill*         0x000000001000190c        0x4 00
 .rodata._strtod_r.cst8
                0x0000000010001910       0x20 /usr/local/ps3dev/ppu/lib/gcc/powerpc64-ps3-elf/7.2.0/../../../../powerpc64-ps3-elf/lib/libc.a(lib_a-strtod.o)
 .rodata._strtod_r.str1.8
                0x0000000010001930       0x13 /usr/local/ps3dev/ppu/lib/gcc/powerpc64-ps3-elf/7.2.0/../../../../powerpc64-ps3-elf/lib/libc.a(lib_a-strtod.o)
 *fill*         0x0000000010001943        0x5 00
 .rodata.tinytens
                0x0000000010001948       0x28 /usr/local/ps3dev/ppu/lib/gcc/powerpc64-ps3-elf/7.2.0/../../../../powerpc64-ps3-elf/lib/libc.a(lib_a-strtod.o)
 .rodata.basefix.4412
                0x0000000010001970       0x22 /usr/local/ps3dev/ppu/lib/gcc/powerpc64-ps3-elf/7.2.0/../../../../powerpc64-ps3-elf/lib/libc.a(lib_a-svfiscanf.o)
 .rodata._svfprintf_r.cst4
                0x0000000000000000        0x4 /usr/local/ps3dev/ppu/lib/gcc/powerpc64-ps3-elf/7.2.0/../../../../powerpc64-ps3-elf/lib/libc.a(lib_a-svfprintf.o)
 *fill*         0x0000000010001992        0x6 00
 .rodata._svfprintf_r.str1.8
                0x0000000010001998       0x5a /usr/local/ps3dev/ppu/lib/gcc/powerpc64-ps3-elf/7.2.0/../../../../powerpc64-ps3-elf/lib/libc.a(lib_a-svfprintf.o)
 *fill*         0x00000000100019f2        0x6 00
 .rodata.blanks.5000
                0x00000000100019f8       0x10 /usr/local/ps3dev/ppu/lib/gcc/powerpc64-ps3-elf/7.2.0/../../../../powerpc64-ps3-elf/lib/libc.a(lib_a-svfprintf.o)
 .rodata.zeroes.5001
                0x0000000010001a08       0x10 /usr/local/ps3dev/ppu/lib/gcc/powerpc64-ps3-elf/7.2.0/../../../../powerpc64-ps3-elf/lib/libc.a(lib_a-svfprintf.o)
 .rodata._dtoa_r.cst4
                0x0000000010001a18       0x10 /usr/local/ps3dev/ppu/lib/gcc/powerpc64-ps3-elf/7.2.0/../../../../powerpc64-ps3-elf/lib/libc.a(lib_a-dtoa.o)
                                         0x1c (size before relaxing)
 .rodata._dtoa_r.cst8
                0x0000000010001a28       0x18 /usr/local/ps3dev/ppu/lib/gcc/powerpc64-ps3-elf/7.2.0/../../../../powerpc64-ps3-elf/lib/libc.a(lib_a-dtoa.o)
 .rodata._dtoa_r.str1.8
                0x0000000010001a40       0x14 /usr/local/ps3dev/ppu/lib/gcc/powerpc64-ps3-elf/7.2.0/../../../../powerpc64-ps3-elf/lib/libc.a(lib_a-dtoa.o)
                                         0x1a (size before relaxing)
 *fill*         0x0000000010001a54        0x4 00
 .rodata.str1.8
                0x0000000010001a58       0x20 /usr/local/ps3dev/ppu/lib/gcc/powerpc64-ps3-elf/7.2.0/../../../../powerpc64-ps3-elf/lib/libc.a(lib_a-gdtoa-gethex.o)
                                         0x1b (size before relaxing)
 .rodata.__libc_lock_attributes
                0x0000000010001a78       0x10 /usr/local/ps3dev/ppu/lib/gcc/powerpc64-ps3-elf/7.2.0/../../../../powerpc64-ps3-elf/lib/libc.a(lib_a-lock_internal.o)
 .rodata.__mprec_bigtens
                0x0000000010001a88       0x28 /usr/local/ps3dev/ppu/lib/gcc/powerpc64-ps3-elf/7.2.0/../../../../powerpc64-ps3-elf/lib/libc.a(lib_a-mprec.o)
                0x0000000010001a88                __mprec_bigtens
 .rodata.__mprec_tens
                0x0000000010001ab0       0xc8 /usr/local/ps3dev/ppu/lib/gcc/powerpc64-ps3-elf/7.2.0/../../../../powerpc64-ps3-elf/lib/libc.a(lib_a-mprec.o)
                0x0000000010001ab0                __mprec_tens
 .rodata.__mprec_tinytens
                0x0000000010001b78       0x28 /usr/local/ps3dev/ppu/lib/gcc/powerpc64-ps3-elf/7.2.0/../../../../powerpc64-ps3-elf/lib/libc.a(lib_a-mprec.o)
                0x0000000010001b78                __mprec_tinytens
 .rodata._mprec_log10.cst4
                0x0000000000000000        0x8 /usr/local/ps3dev/ppu/lib/gcc/powerpc64-ps3-elf/7.2.0/../../../../powerpc64-ps3-elf/lib/libc.a(lib_a-mprec.o)
 .rodata.p05.3541
                0x0000000010001ba0        0xc /usr/local/ps3dev/ppu/lib/gcc/powerpc64-ps3-elf/7.2.0/../../../../powerpc64-ps3-elf/lib/libc.a(lib_a-mprec.o)
 .rodata._svfiprintf_r.str1.8
                0x0000000000000000       0x37 /usr/local/ps3dev/ppu/lib/gcc/powerpc64-ps3-elf/7.2.0/../../../../powerpc64-ps3-elf/lib/libc.a(lib_a-svfiprintf.o)
 *fill*         0x0000000010001bac        0x4 00
 .rodata.blanks.4944
                0x0000000010001bb0       0x10 /usr/local/ps3dev/ppu/lib/gcc/powerpc64-ps3-elf/7.2.0/../../../../powerpc64-ps3-elf/lib/libc.a(lib_a-svfiprintf.o)
 .rodata.zeroes.4945
                0x0000000010001bc0       0x10 /usr/local/ps3dev/ppu/lib/gcc/powerpc64-ps3-elf/7.2.0/../../../../powerpc64-ps3-elf/lib/libc.a(lib_a-svfiprintf.o)

.rodata1
 *(.rodata1)

.spu_image
 *(.spu_image .spu_image.*)
                0x0000000010010000                . = ALIGN (0x10000)

.data           0x0000000010010000    0x100d8
 *(.data .data.* .gnu.linkonce.d.*)
 .data          0x0000000010010000        0x0 /usr/local/ps3dev/ppu/lib/gcc/powerpc64-ps3-elf/7.2.0/../../../../powerpc64-ps3-elf/lib/lv2-crti.o
 .data          0x0000000010010000        0x0 /usr/local/ps3dev/ppu/lib/gcc/powerpc64-ps3-elf/7.2.0/crtbegin.o
 .data.__dso_handle
                0x0000000010010000        0x8 /usr/local/ps3dev/ppu/lib/gcc/powerpc64-ps3-elf/7.2.0/crtbegin.o
                0x0000000010010000                __dso_handle
 .data          0x0000000010010008        0x0 /usr/local/ps3dev/ppu/lib/gcc/powerpc64-ps3-elf/7.2.0/../../../../powerpc64-ps3-elf/lib/lv2-crt0.o
 .data          0x0000000010010008        0x0 /usr/local/ps3dev/ppu/lib/gcc/powerpc64-ps3-elf/7.2.0/../../../../powerpc64-ps3-elf/lib/lv2-sprx.o
 .data          0x0000000010010008        0x0 msxfont.o
 .data.msx      0x0000000010010008      0x800 msxfont.o
                0x0000000010010008                msx
 .data          0x0000000010010808        0x0 main.o
 .data          0x0000000010010808        0x0 font_b.o
 .data.font_b   0x0000000010010808     0x7000 font_b.o
                0x0000000010010808                font_b
 .data          0x0000000010017808        0x0 font.o
 .data.font     0x0000000010017808     0x7000 font.o
                0x0000000010017808                font
 .data          0x000000001001e808        0x0 /usr/local/ps3dev/portlibs/ppu/lib/libfont.a(libfont.o)
 .data          0x000000001001e808        0x0 /home/scristaldi/tiny3d_Estwald_work/fonts/libtiny3d_.a(tiny3d.o)
 .data.current_shader
                0x000000001001e808        0x4 /home/scristaldi/tiny3d_Estwald_work/fonts/libtiny3d_.a(tiny3d.o)
 .data.matrix_ident
                0x000000001001e80c       0x40 /home/scristaldi/tiny3d_Estwald_work/fonts/libtiny3d_.a(tiny3d.o)
 .data.min_vertex
                0x000000001001e84c        0x4 /home/scristaldi/tiny3d_Estwald_work/fonts/libtiny3d_.a(tiny3d.o)
 .data.mod_vertex
                0x000000001001e850        0x4 /home/scristaldi/tiny3d_Estwald_work/fonts/libtiny3d_.a(tiny3d.o)
 .data.nv30_fp_color
                0x000000001001e854       0x1c /home/scristaldi/tiny3d_Estwald_work/fonts/libtiny3d_.a(tiny3d.o)
 .data.nv30_fp_texture
                0x000000001001e870       0x1c /home/scristaldi/tiny3d_Estwald_work/fonts/libtiny3d_.a(tiny3d.o)
 .data.nv30_fp_texture2
                0x000000001001e88c       0x3c /home/scristaldi/tiny3d_Estwald_work/fonts/libtiny3d_.a(tiny3d.o)
 .data.nv30_fp_texture2_alt
                0x000000001001e8c8       0x6c /home/scristaldi/tiny3d_Estwald_work/fonts/libtiny3d_.a(tiny3d.o)
 .data.nv30_fp_texture2_alt2
                0x000000001001e934       0x5c /home/scristaldi/tiny3d_Estwald_work/fonts/libtiny3d_.a(tiny3d.o)
 .data.nv30_fp_texture_color
                0x000000001001e990       0x2c /home/scristaldi/tiny3d_Estwald_work/fonts/libtiny3d_.a(tiny3d.o)
 .data.nv30_fp_texture_color2
                0x000000001001e9bc       0x4c /home/scristaldi/tiny3d_Estwald_work/fonts/libtiny3d_.a(tiny3d.o)
 .data.nv30_fp_texture_color2_alt
                0x000000001001ea08       0x7c /home/scristaldi/tiny3d_Estwald_work/fonts/libtiny3d_.a(tiny3d.o)
 .data.nv30_fp_texture_color2_alt2
                0x000000001001ea84       0x6c /home/scristaldi/tiny3d_Estwald_work/fonts/libtiny3d_.a(tiny3d.o)
 .data.nv30_fp_yuv
                0x000000001001eaf0      0x11c /home/scristaldi/tiny3d_Estwald_work/fonts/libtiny3d_.a(tiny3d.o)
 .data.nv30_fp_yuv8
                0x000000001001ec0c      0x17c /home/scristaldi/tiny3d_Estwald_work/fonts/libtiny3d_.a(tiny3d.o)
 .data.nv30_fp_yuv_color
                0x000000001001ed88      0x12c /home/scristaldi/tiny3d_Estwald_work/fonts/libtiny3d_.a(tiny3d.o)
 .data.nv30_fp_yuv_color8
                0x000000001001eeb4      0x17c /home/scristaldi/tiny3d_Estwald_work/fonts/libtiny3d_.a(tiny3d.o)
 .data.polygon  0x000000001001f030        0x4 /home/scristaldi/tiny3d_Estwald_work/fonts/libtiny3d_.a(tiny3d.o)
 .data.scale2D_x_surface
                0x000000001001f034        0x4 /home/scristaldi/tiny3d_Estwald_work/fonts/libtiny3d_.a(tiny3d.o)
 .data.scale2D_x_viewport
                0x000000001001f038        0x4 /home/scristaldi/tiny3d_Estwald_work/fonts/libtiny3d_.a(tiny3d.o)
 .data.scale2D_y_surface
                0x000000001001f03c        0x4 /home/scristaldi/tiny3d_Estwald_work/fonts/libtiny3d_.a(tiny3d.o)
 .data.scale2D_y_viewport
                0x000000001001f040        0x4 /home/scristaldi/tiny3d_Estwald_work/fonts/libtiny3d_.a(tiny3d.o)
 .data.scale3D_x_viewport
                0x000000001001f044        0x4 /home/scristaldi/tiny3d_Estwald_work/fonts/libtiny3d_.a(tiny3d.o)
 .data.scale3D_y_viewport
                0x000000001001f048        0x4 /home/scristaldi/tiny3d_Estwald_work/fonts/libtiny3d_.a(tiny3d.o)
 .data.size_rsx_vertex
                0x000000001001f04c        0x4 /home/scristaldi/tiny3d_Estwald_work/fonts/libtiny3d_.a(tiny3d.o)
 .data          0x000000001001f050        0x0 /home/scristaldi/tiny3d_Estwald_work/fonts/libtiny3d_.a(mm.o)
 .data          0x000000001001f050        0x0 /home/scristaldi/tiny3d_Estwald_work/fonts/libtiny3d_.a(glue.o)
 .data          0x000000001001f050        0x0 /home/scristaldi/tiny3d_Estwald_work/fonts/libtiny3d_.a(vshader_text_normal.vcg.o)
 .data          0x000000001001f050        0x0 /home/scristaldi/tiny3d_Estwald_work/fonts/libtiny3d_.a(realityVP.o)
 .data          0x000000001001f050        0x0 /home/scristaldi/tiny3d_Estwald_work/fonts/libtiny3d_.a(matrix.o)
 .data          0x000000001001f050        0x0 /home/scristaldi/tiny3d_Estwald_work/fonts/libtiny3d_.a(commands.o)
 .data          0x000000001001f050        0x0 /home/scristaldi/tiny3d_Estwald_work/fonts/libtiny3d_.a(rsxutil.o)
 .data          0x000000001001f050        0x0 /home/scristaldi/tiny3d_Estwald_work/fonts/libtiny3d_.a(buffer.o)
 .data          0x000000001001f050        0x0 /usr/local/ps3dev/psl1ght/ppu/lib/libgcm_sys.a(sprx.o)
 .data          0x000000001001f050        0x0 /usr/local/ps3dev/psl1ght/ppu/lib/libio.a(sprx.o)
 .data          0x000000001001f050        0x0 /usr/local/ps3dev/psl1ght/ppu/lib/libsysutil.a(sprx.o)
 .data          0x000000001001f050        0x0 /usr/local/ps3dev/psl1ght/ppu/lib/libsysutil.a(sysutil_wrapper.o)
 .data          0x000000001001f050        0x0 /usr/local/ps3dev/psl1ght/ppu/lib/librt.a(sbrk.o)
 .data          0x000000001001f050        0x0 /usr/local/ps3dev/psl1ght/ppu/lib/librt.a(exit.o)
 .data          0x000000001001f050        0x0 /usr/local/ps3dev/psl1ght/ppu/lib/librt.a(close.o)
 .data          0x000000001001f050        0x0 /usr/local/ps3dev/psl1ght/ppu/lib/librt.a(lseek.o)
 .data          0x000000001001f050        0x0 /usr/local/ps3dev/psl1ght/ppu/lib/librt.a(read.o)
 .data          0x000000001001f050        0x0 /usr/local/ps3dev/psl1ght/ppu/lib/librt.a(open.o)
 .data          0x000000001001f050        0x0 /usr/local/ps3dev/psl1ght/ppu/lib/librt.a(sleep.o)
 .data          0x000000001001f050        0x0 /usr/local/ps3dev/psl1ght/ppu/lib/librt.a(write.o)
 .data          0x000000001001f050        0x0 /usr/local/ps3dev/psl1ght/ppu/lib/librt.a(fstat.o)
 .data          0x000000001001f050        0x0 /usr/local/ps3dev/psl1ght/ppu/lib/librt.a(socket.o)
 .data          0x000000001001f050        0x0 /usr/local/ps3dev/psl1ght/ppu/lib/librt.a(lock.o)
 .data          0x000000001001f050        0x0 /usr/local/ps3dev/psl1ght/ppu/lib/librt.a(dirent.o)
 .data          0x000000001001f050        0x0 /usr/local/ps3dev/psl1ght/ppu/lib/librt.a(mkdir.o)
 .data          0x000000001001f050        0x0 /usr/local/ps3dev/psl1ght/ppu/lib/librt.a(times.o)
 .data          0x000000001001f050        0x0 /usr/local/ps3dev/psl1ght/ppu/lib/librt.a(umask.o)
 .data.g_umask  0x000000001001f050        0x4 /usr/local/ps3dev/psl1ght/ppu/lib/librt.a(umask.o)
                0x000000001001f050                g_umask
 .data          0x000000001001f054        0x0 /usr/local/ps3dev/psl1ght/ppu/lib/librt.a(lv2errno.o)
 .data          0x000000001001f054        0x0 /usr/local/ps3dev/psl1ght/ppu/lib/librt.a(heap.o)
 .data          0x000000001001f054        0x0 /usr/local/ps3dev/psl1ght/ppu/lib/librt.a(chmod.o)
 .data          0x000000001001f054        0x0 /usr/local/ps3dev/psl1ght/ppu/lib/librt.a(rmdir.o)
 .data          0x000000001001f054        0x0 /usr/local/ps3dev/psl1ght/ppu/lib/librt.a(isatty.o)
 .data          0x000000001001f054        0x0 /usr/local/ps3dev/psl1ght/ppu/lib/librt.a(gettod.o)
 .data          0x000000001001f054        0x0 /usr/local/ps3dev/psl1ght/ppu/lib/librt.a(settod.o)
 .data          0x000000001001f054        0x0 /usr/local/ps3dev/psl1ght/ppu/lib/liblv2.a(sprx.o)
 .data          0x000000001001f054        0x0 /usr/local/ps3dev/psl1ght/ppu/lib/libnet.a(sprx.o)
 .data          0x000000001001f054        0x0 /usr/local/ps3dev/psl1ght/ppu/lib/libnet.a(init.o)
 .data          0x000000001001f054        0x0 /usr/local/ps3dev/psl1ght/ppu/lib/libsysmodule.a(sprx.o)
 .data          0x000000001001f054        0x0 /usr/local/ps3dev/ppu/lib/gcc/powerpc64-ps3-elf/7.2.0/../../../../powerpc64-ps3-elf/lib/libm.a(lib_a-sf_cos.o)
 .data          0x000000001001f054        0x0 /usr/local/ps3dev/ppu/lib/gcc/powerpc64-ps3-elf/7.2.0/../../../../powerpc64-ps3-elf/lib/libm.a(lib_a-sf_sin.o)
 .data          0x000000001001f054        0x0 /usr/local/ps3dev/ppu/lib/gcc/powerpc64-ps3-elf/7.2.0/../../../../powerpc64-ps3-elf/lib/libm.a(lib_a-sf_tan.o)
 .data          0x000000001001f054        0x0 /usr/local/ps3dev/ppu/lib/gcc/powerpc64-ps3-elf/7.2.0/../../../../powerpc64-ps3-elf/lib/libm.a(lib_a-w_sqrt.o)
 .data          0x000000001001f054        0x0 /usr/local/ps3dev/ppu/lib/gcc/powerpc64-ps3-elf/7.2.0/../../../../powerpc64-ps3-elf/lib/libm.a(lib_a-wf_sqrt.o)
 .data          0x000000001001f054        0x0 /usr/local/ps3dev/ppu/lib/gcc/powerpc64-ps3-elf/7.2.0/../../../../powerpc64-ps3-elf/lib/libm.a(lib_a-e_sqrt.o)
 .data          0x000000001001f054        0x0 /usr/local/ps3dev/ppu/lib/gcc/powerpc64-ps3-elf/7.2.0/../../../../powerpc64-ps3-elf/lib/libm.a(lib_a-ef_rem_pio2.o)
 .data          0x000000001001f054        0x0 /usr/local/ps3dev/ppu/lib/gcc/powerpc64-ps3-elf/7.2.0/../../../../powerpc64-ps3-elf/lib/libm.a(lib_a-ef_sqrt.o)
 .data          0x000000001001f054        0x0 /usr/local/ps3dev/ppu/lib/gcc/powerpc64-ps3-elf/7.2.0/../../../../powerpc64-ps3-elf/lib/libm.a(lib_a-kf_cos.o)
 .data          0x000000001001f054        0x0 /usr/local/ps3dev/ppu/lib/gcc/powerpc64-ps3-elf/7.2.0/../../../../powerpc64-ps3-elf/lib/libm.a(lib_a-kf_rem_pio2.o)
 .data          0x000000001001f054        0x0 /usr/local/ps3dev/ppu/lib/gcc/powerpc64-ps3-elf/7.2.0/../../../../powerpc64-ps3-elf/lib/libm.a(lib_a-kf_sin.o)
 .data          0x000000001001f054        0x0 /usr/local/ps3dev/ppu/lib/gcc/powerpc64-ps3-elf/7.2.0/../../../../powerpc64-ps3-elf/lib/libm.a(lib_a-kf_tan.o)
 .data          0x000000001001f054        0x0 /usr/local/ps3dev/ppu/lib/gcc/powerpc64-ps3-elf/7.2.0/../../../../powerpc64-ps3-elf/lib/libm.a(lib_a-s_fpclassify.o)
 .data          0x000000001001f054        0x0 /usr/local/ps3dev/ppu/lib/gcc/powerpc64-ps3-elf/7.2.0/../../../../powerpc64-ps3-elf/lib/libm.a(lib_a-s_lib_ver.o)
 .data.__fdlib_version
                0x000000001001f054        0x4 /usr/local/ps3dev/ppu/lib/gcc/powerpc64-ps3-elf/7.2.0/../../../../powerpc64-ps3-elf/lib/libm.a(lib_a-s_lib_ver.o)
                0x000000001001f054                __fdlib_version
 .data          0x000000001001f058        0x0 /usr/local/ps3dev/ppu/lib/gcc/powerpc64-ps3-elf/7.2.0/../../../../powerpc64-ps3-elf/lib/libm.a(lib_a-s_matherr.o)
 .data          0x000000001001f058        0x0 /usr/local/ps3dev/ppu/lib/gcc/powerpc64-ps3-elf/7.2.0/../../../../powerpc64-ps3-elf/lib/libm.a(lib_a-sf_fabs.o)
 .data          0x000000001001f058        0x0 /usr/local/ps3dev/ppu/lib/gcc/powerpc64-ps3-elf/7.2.0/../../../../powerpc64-ps3-elf/lib/libm.a(lib_a-sf_floor.o)
 .data          0x000000001001f058        0x0 /usr/local/ps3dev/ppu/lib/gcc/powerpc64-ps3-elf/7.2.0/../../../../powerpc64-ps3-elf/lib/libm.a(lib_a-sf_fpclassify.o)
 .data          0x000000001001f058        0x0 /usr/local/ps3dev/ppu/lib/gcc/powerpc64-ps3-elf/7.2.0/../../../../powerpc64-ps3-elf/lib/libm.a(lib_a-sf_scalbn.o)
 .data          0x000000001001f058        0x0 /usr/local/ps3dev/ppu/lib/gcc/powerpc64-ps3-elf/7.2.0/../../../../powerpc64-ps3-elf/lib/libm.a(lib_a-sf_copysign.o)
 .data          0x000000001001f058        0x0 /usr/local/ps3dev/ppu/lib/gcc/powerpc64-ps3-elf/7.2.0/../../../../powerpc64-ps3-elf/lib/libsysbase.a(syscalls.o)
 .data          0x000000001001f058        0x0 /usr/local/ps3dev/ppu/lib/gcc/powerpc64-ps3-elf/7.2.0/../../../../powerpc64-ps3-elf/lib/libsysbase.a(sleep.o)
 .data          0x000000001001f058        0x0 /usr/local/ps3dev/ppu/lib/gcc/powerpc64-ps3-elf/7.2.0/../../../../powerpc64-ps3-elf/lib/libc.a(lib_a-atexit.o)
 .data          0x000000001001f058        0x0 /usr/local/ps3dev/ppu/lib/gcc/powerpc64-ps3-elf/7.2.0/../../../../powerpc64-ps3-elf/lib/libc.a(lib_a-calloc.o)
 .data          0x000000001001f058        0x0 /usr/local/ps3dev/ppu/lib/gcc/powerpc64-ps3-elf/7.2.0/../../../../powerpc64-ps3-elf/lib/libc.a(lib_a-callocr.o)
 .data          0x000000001001f058        0x0 /usr/local/ps3dev/ppu/lib/gcc/powerpc64-ps3-elf/7.2.0/../../../../powerpc64-ps3-elf/lib/libc.a(lib_a-errno.o)
 .data          0x000000001001f058        0x0 /usr/local/ps3dev/ppu/lib/gcc/powerpc64-ps3-elf/7.2.0/../../../../powerpc64-ps3-elf/lib/libc.a(lib_a-exit.o)
 .data          0x000000001001f058        0x0 /usr/local/ps3dev/ppu/lib/gcc/powerpc64-ps3-elf/7.2.0/../../../../powerpc64-ps3-elf/lib/libc.a(lib_a-getreent.o)
 .data          0x000000001001f058        0x0 /usr/local/ps3dev/ppu/lib/gcc/powerpc64-ps3-elf/7.2.0/../../../../powerpc64-ps3-elf/lib/libc.a(lib_a-impure.o)
 .data._impure_ptr
                0x000000001001f058        0x8 /usr/local/ps3dev/ppu/lib/gcc/powerpc64-ps3-elf/7.2.0/../../../../powerpc64-ps3-elf/lib/libc.a(lib_a-impure.o)
                0x000000001001f058                _impure_ptr
 .data.impure_data
                0x000000001001f060      0x778 /usr/local/ps3dev/ppu/lib/gcc/powerpc64-ps3-elf/7.2.0/../../../../powerpc64-ps3-elf/lib/libc.a(lib_a-impure.o)
 .data          0x000000001001f7d8        0x0 /usr/local/ps3dev/ppu/lib/gcc/powerpc64-ps3-elf/7.2.0/../../../../powerpc64-ps3-elf/lib/libc.a(lib_a-malign.o)
 .data          0x000000001001f7d8        0x0 /usr/local/ps3dev/ppu/lib/gcc/powerpc64-ps3-elf/7.2.0/../../../../powerpc64-ps3-elf/lib/libc.a(lib_a-malignr.o)
 .data          0x000000001001f7d8        0x0 /usr/local/ps3dev/ppu/lib/gcc/powerpc64-ps3-elf/7.2.0/../../../../powerpc64-ps3-elf/lib/libc.a(lib_a-malloc.o)
 .data          0x000000001001f7d8        0x0 /usr/local/ps3dev/ppu/lib/gcc/powerpc64-ps3-elf/7.2.0/../../../../powerpc64-ps3-elf/lib/libc.a(lib_a-mallocr.o)
 .data.__malloc_av_
                0x000000001001f7d8      0x810 /usr/local/ps3dev/ppu/lib/gcc/powerpc64-ps3-elf/7.2.0/../../../../powerpc64-ps3-elf/lib/libc.a(lib_a-mallocr.o)
                0x000000001001f7d8                __malloc_av_
 .data.__malloc_sbrk_base
                0x000000001001ffe8        0x8 /usr/local/ps3dev/ppu/lib/gcc/powerpc64-ps3-elf/7.2.0/../../../../powerpc64-ps3-elf/lib/libc.a(lib_a-mallocr.o)
                0x000000001001ffe8                __malloc_sbrk_base
 .data.__malloc_trim_threshold
                0x000000001001fff0        0x8 /usr/local/ps3dev/ppu/lib/gcc/powerpc64-ps3-elf/7.2.0/../../../../powerpc64-ps3-elf/lib/libc.a(lib_a-mallocr.o)
                0x000000001001fff0                __malloc_trim_threshold
 .data          0x000000001001fff8        0x0 /usr/local/ps3dev/ppu/lib/gcc/powerpc64-ps3-elf/7.2.0/../../../../powerpc64-ps3-elf/lib/libc.a(lib_a-memcpy.o)
 .data          0x000000001001fff8        0x0 /usr/local/ps3dev/ppu/lib/gcc/powerpc64-ps3-elf/7.2.0/../../../../powerpc64-ps3-elf/lib/libc.a(lib_a-memset.o)
 .data          0x000000001001fff8        0x0 /usr/local/ps3dev/ppu/lib/gcc/powerpc64-ps3-elf/7.2.0/../../../../powerpc64-ps3-elf/lib/libc.a(lib_a-mlock.o)
 .data          0x000000001001fff8        0x0 /usr/local/ps3dev/ppu/lib/gcc/powerpc64-ps3-elf/7.2.0/../../../../powerpc64-ps3-elf/lib/libc.a(lib_a-puts.o)
 .data          0x000000001001fff8        0x0 /usr/local/ps3dev/ppu/lib/gcc/powerpc64-ps3-elf/7.2.0/../../../../powerpc64-ps3-elf/lib/libc.a(lib_a-sscanf.o)
 .data          0x000000001001fff8        0x0 /usr/local/ps3dev/ppu/lib/gcc/powerpc64-ps3-elf/7.2.0/../../../../powerpc64-ps3-elf/lib/libc.a(lib_a-stdio.o)
 .data          0x000000001001fff8        0x0 /usr/local/ps3dev/ppu/lib/gcc/powerpc64-ps3-elf/7.2.0/../../../../powerpc64-ps3-elf/lib/libc.a(lib_a-strcasecmp.o)
 .data          0x000000001001fff8        0x0 /usr/local/ps3dev/ppu/lib/gcc/powerpc64-ps3-elf/7.2.0/../../../../powerpc64-ps3-elf/lib/libc.a(lib_a-strlen.o)
 .data          0x000000001001fff8        0x0 /usr/local/ps3dev/ppu/lib/gcc/powerpc64-ps3-elf/7.2.0/../../../../powerpc64-ps3-elf/lib/libc.a(lib_a-strncpy.o)
 .data          0x000000001001fff8        0x0 /usr/local/ps3dev/ppu/lib/gcc/powerpc64-ps3-elf/7.2.0/../../../../powerpc64-ps3-elf/lib/libc.a(lib_a-svfscanf.o)
 .data          0x000000001001fff8        0x0 /usr/local/ps3dev/ppu/lib/gcc/powerpc64-ps3-elf/7.2.0/../../../../powerpc64-ps3-elf/lib/libc.a(lib_a-vsnprintf.o)
 .data          0x000000001001fff8        0x0 /usr/local/ps3dev/ppu/lib/gcc/powerpc64-ps3-elf/7.2.0/../../../../powerpc64-ps3-elf/lib/libc.a(lib_a-vsprintf.o)
 .data          0x000000001001fff8        0x0 /usr/local/ps3dev/ppu/lib/gcc/powerpc64-ps3-elf/7.2.0/../../../../powerpc64-ps3-elf/lib/libc.a(lib_a-__atexit.o)
 .data          0x000000001001fff8        0x0 /usr/local/ps3dev/ppu/lib/gcc/powerpc64-ps3-elf/7.2.0/../../../../powerpc64-ps3-elf/lib/libc.a(lib_a-__call_atexit.o)
 .data          0x000000001001fff8        0x0 /usr/local/ps3dev/ppu/lib/gcc/powerpc64-ps3-elf/7.2.0/../../../../powerpc64-ps3-elf/lib/libc.a(lib_a-ctype_.o)
 .data.__ctype_ptr__
                0x000000001001fff8        0x8 /usr/local/ps3dev/ppu/lib/gcc/powerpc64-ps3-elf/7.2.0/../../../../powerpc64-ps3-elf/lib/libc.a(lib_a-ctype_.o)
                0x000000001001fff8                __ctype_ptr__
 .data          0x0000000010020000        0x0 /usr/local/ps3dev/ppu/lib/gcc/powerpc64-ps3-elf/7.2.0/../../../../powerpc64-ps3-elf/lib/libc.a(lib_a-freer.o)
 .data          0x0000000010020000        0x0 /usr/local/ps3dev/ppu/lib/gcc/powerpc64-ps3-elf/7.2.0/../../../../powerpc64-ps3-elf/lib/libc.a(lib_a-fvwrite.o)
 .data          0x0000000010020000        0x0 /usr/local/ps3dev/ppu/lib/gcc/powerpc64-ps3-elf/7.2.0/../../../../powerpc64-ps3-elf/lib/libc.a(lib_a-iswspace.o)
 .data          0x0000000010020000        0x0 /usr/local/ps3dev/ppu/lib/gcc/powerpc64-ps3-elf/7.2.0/../../../../powerpc64-ps3-elf/lib/libc.a(lib_a-locale.o)
 .data.__mb_cur_max
                0x0000000010020000        0x4 /usr/local/ps3dev/ppu/lib/gcc/powerpc64-ps3-elf/7.2.0/../../../../powerpc64-ps3-elf/lib/libc.a(lib_a-locale.o)
                0x0000000010020000                __mb_cur_max
 *fill*         0x0000000010020004        0x4 00
 .data.lc_ctype_charset
                0x0000000010020008       0x20 /usr/local/ps3dev/ppu/lib/gcc/powerpc64-ps3-elf/7.2.0/../../../../powerpc64-ps3-elf/lib/libc.a(lib_a-locale.o)
 .data.lc_message_charset
                0x0000000010020028       0x20 /usr/local/ps3dev/ppu/lib/gcc/powerpc64-ps3-elf/7.2.0/../../../../powerpc64-ps3-elf/lib/libc.a(lib_a-locale.o)
 .data.lconv    0x0000000010020048       0x60 /usr/local/ps3dev/ppu/lib/gcc/powerpc64-ps3-elf/7.2.0/../../../../powerpc64-ps3-elf/lib/libc.a(lib_a-locale.o)
 .data          0x00000000100200a8        0x0 /usr/local/ps3dev/ppu/lib/gcc/powerpc64-ps3-elf/7.2.0/../../../../powerpc64-ps3-elf/lib/libc.a(lib_a-lock_recursive.o)
 .data          0x00000000100200a8        0x0 /usr/local/ps3dev/ppu/lib/gcc/powerpc64-ps3-elf/7.2.0/../../../../powerpc64-ps3-elf/lib/libc.a(lib_a-mbrtowc.o)
 .data          0x00000000100200a8        0x0 /usr/local/ps3dev/ppu/lib/gcc/powerpc64-ps3-elf/7.2.0/../../../../powerpc64-ps3-elf/lib/libc.a(lib_a-mbtowc_r.o)
 .data.__mbtowc
                0x00000000100200a8        0x8 /usr/local/ps3dev/ppu/lib/gcc/powerpc64-ps3-elf/7.2.0/../../../../powerpc64-ps3-elf/lib/libc.a(lib_a-mbtowc_r.o)
                0x00000000100200a8                __mbtowc
 .data          0x00000000100200b0        0x0 /usr/local/ps3dev/ppu/lib/gcc/powerpc64-ps3-elf/7.2.0/../../../../powerpc64-ps3-elf/lib/libc.a(lib_a-memchr.o)
 .data          0x00000000100200b0        0x0 /usr/local/ps3dev/ppu/lib/gcc/powerpc64-ps3-elf/7.2.0/../../../../powerpc64-ps3-elf/lib/libc.a(lib_a-memmove.o)
 .data          0x00000000100200b0        0x0 /usr/local/ps3dev/ppu/lib/gcc/powerpc64-ps3-elf/7.2.0/../../../../powerpc64-ps3-elf/lib/libc.a(lib_a-reallocr.o)
 .data          0x00000000100200b0        0x0 /usr/local/ps3dev/ppu/lib/gcc/powerpc64-ps3-elf/7.2.0/../../../../powerpc64-ps3-elf/lib/libc.a(lib_a-sccl.o)
 .data          0x00000000100200b0        0x0 /usr/local/ps3dev/ppu/lib/gcc/powerpc64-ps3-elf/7.2.0/../../../../powerpc64-ps3-elf/lib/libc.a(lib_a-sf_nan.o)
 .data          0x00000000100200b0        0x0 /usr/local/ps3dev/ppu/lib/gcc/powerpc64-ps3-elf/7.2.0/../../../../powerpc64-ps3-elf/lib/libc.a(lib_a-sprintf.o)
 .data          0x00000000100200b0        0x0 /usr/local/ps3dev/ppu/lib/gcc/powerpc64-ps3-elf/7.2.0/../../../../powerpc64-ps3-elf/lib/libc.a(lib_a-strcmp.o)
 .data          0x00000000100200b0        0x0 /usr/local/ps3dev/ppu/lib/gcc/powerpc64-ps3-elf/7.2.0/../../../../powerpc64-ps3-elf/lib/libc.a(lib_a-strtod.o)
 .data.fpi.3501
                0x00000000100200b0       0x14 /usr/local/ps3dev/ppu/lib/gcc/powerpc64-ps3-elf/7.2.0/../../../../powerpc64-ps3-elf/lib/libc.a(lib_a-strtod.o)
 .data.fpinan.3537
                0x00000000100200c4       0x14 /usr/local/ps3dev/ppu/lib/gcc/powerpc64-ps3-elf/7.2.0/../../../../powerpc64-ps3-elf/lib/libc.a(lib_a-strtod.o)
 .data          0x00000000100200d8        0x0 /usr/local/ps3dev/ppu/lib/gcc/powerpc64-ps3-elf/7.2.0/../../../../powerpc64-ps3-elf/lib/libc.a(lib_a-strtol.o)
 .data          0x00000000100200d8        0x0 /usr/local/ps3dev/ppu/lib/gcc/powerpc64-ps3-elf/7.2.0/../../../../powerpc64-ps3-elf/lib/libc.a(lib_a-strtoll_r.o)
 .data          0x00000000100200d8        0x0 /usr/local/ps3dev/ppu/lib/gcc/powerpc64-ps3-elf/7.2.0/../../../../powerpc64-ps3-elf/lib/libc.a(lib_a-strtoul.o)
 .data          0x00000000100200d8        0x0 /usr/local/ps3dev/ppu/lib/gcc/powerpc64-ps3-elf/7.2.0/../../../../powerpc64-ps3-elf/lib/libc.a(lib_a-strtoull_r.o)
 .data          0x00000000100200d8        0x0 /usr/local/ps3dev/ppu/lib/gcc/powerpc64-ps3-elf/7.2.0/../../../../powerpc64-ps3-elf/lib/libc.a(lib_a-svfiscanf.o)
 .data          0x00000000100200d8        0x0 /usr/local/ps3dev/ppu/lib/gcc/powerpc64-ps3-elf/7.2.0/../../../../powerpc64-ps3-elf/lib/libc.a(lib_a-svfprintf.o)
 .data          0x00000000100200d8        0x0 /usr/local/ps3dev/ppu/lib/gcc/powerpc64-ps3-elf/7.2.0/../../../../powerpc64-ps3-elf/lib/libc.a(lib_a-ungetc.o)
 .data          0x00000000100200d8        0x0 /usr/local/ps3dev/ppu/lib/gcc/powerpc64-ps3-elf/7.2.0/../../../../powerpc64-ps3-elf/lib/libc.a(lib_a-wsetup.o)
 .data          0x00000000100200d8        0x0 /usr/local/ps3dev/ppu/lib/gcc/powerpc64-ps3-elf/7.2.0/../../../../powerpc64-ps3-elf/lib/libc.a(lib_a-dtoa.o)
 .data          0x00000000100200d8        0x0 /usr/local/ps3dev/ppu/lib/gcc/powerpc64-ps3-elf/7.2.0/../../../../powerpc64-ps3-elf/lib/libc.a(lib_a-fflush.o)
 .data          0x00000000100200d8        0x0 /usr/local/ps3dev/ppu/lib/gcc/powerpc64-ps3-elf/7.2.0/../../../../powerpc64-ps3-elf/lib/libc.a(lib_a-findfp.o)
 .data          0x00000000100200d8        0x0 /usr/local/ps3dev/ppu/lib/gcc/powerpc64-ps3-elf/7.2.0/../../../../powerpc64-ps3-elf/lib/libc.a(lib_a-fwalk.o)
 .data          0x00000000100200d8        0x0 /usr/local/ps3dev/ppu/lib/gcc/powerpc64-ps3-elf/7.2.0/../../../../powerpc64-ps3-elf/lib/libc.a(lib_a-gdtoa-gethex.o)
 .data          0x00000000100200d8        0x0 /usr/local/ps3dev/ppu/lib/gcc/powerpc64-ps3-elf/7.2.0/../../../../powerpc64-ps3-elf/lib/libc.a(lib_a-gdtoa-hexnan.o)
 .data          0x00000000100200d8        0x0 /usr/local/ps3dev/ppu/lib/gcc/powerpc64-ps3-elf/7.2.0/../../../../powerpc64-ps3-elf/lib/libc.a(lib_a-lock_internal.o)
 .data          0x00000000100200d8        0x0 /usr/local/ps3dev/ppu/lib/gcc/powerpc64-ps3-elf/7.2.0/../../../../powerpc64-ps3-elf/lib/libc.a(lib_a-makebuf.o)
 .data          0x00000000100200d8        0x0 /usr/local/ps3dev/ppu/lib/gcc/powerpc64-ps3-elf/7.2.0/../../../../powerpc64-ps3-elf/lib/libc.a(lib_a-mprec.o)
 .data          0x00000000100200d8        0x0 /usr/local/ps3dev/ppu/lib/gcc/powerpc64-ps3-elf/7.2.0/../../../../powerpc64-ps3-elf/lib/libc.a(lib_a-strncmp.o)
 .data          0x00000000100200d8        0x0 /usr/local/ps3dev/ppu/lib/gcc/powerpc64-ps3-elf/7.2.0/../../../../powerpc64-ps3-elf/lib/libc.a(lib_a-svfiprintf.o)
 .data          0x00000000100200d8        0x0 /usr/local/ps3dev/ppu/lib/gcc/powerpc64-ps3-elf/7.2.0/../../../../powerpc64-ps3-elf/lib/libc.a(lib_a-abort.o)
 .data          0x00000000100200d8        0x0 /usr/local/ps3dev/ppu/lib/gcc/powerpc64-ps3-elf/7.2.0/../../../../powerpc64-ps3-elf/lib/libc.a(lib_a-fclose.o)
 .data          0x00000000100200d8        0x0 /usr/local/ps3dev/ppu/lib/gcc/powerpc64-ps3-elf/7.2.0/../../../../powerpc64-ps3-elf/lib/libc.a(lib_a-signal.o)
 .data          0x00000000100200d8        0x0 /usr/local/ps3dev/ppu/lib/gcc/powerpc64-ps3-elf/7.2.0/../../../../powerpc64-ps3-elf/lib/libsysbase.a(close.o)
 .data          0x00000000100200d8        0x0 /usr/local/ps3dev/ppu/lib/gcc/powerpc64-ps3-elf/7.2.0/../../../../powerpc64-ps3-elf/lib/libsysbase.a(sbrk.o)
 .data          0x00000000100200d8        0x0 /usr/local/ps3dev/ppu/lib/gcc/powerpc64-ps3-elf/7.2.0/../../../../powerpc64-ps3-elf/lib/libsysbase.a(_exit.o)
 .data          0x00000000100200d8        0x0 /usr/local/ps3dev/ppu/lib/gcc/powerpc64-ps3-elf/7.2.0/../../../../powerpc64-ps3-elf/lib/libsysbase.a(fstat.o)
 .data          0x00000000100200d8        0x0 /usr/local/ps3dev/ppu/lib/gcc/powerpc64-ps3-elf/7.2.0/../../../../powerpc64-ps3-elf/lib/libsysbase.a(isatty.o)
 .data          0x00000000100200d8        0x0 /usr/local/ps3dev/ppu/lib/gcc/powerpc64-ps3-elf/7.2.0/../../../../powerpc64-ps3-elf/lib/libsysbase.a(lseek.o)
 .data          0x00000000100200d8        0x0 /usr/local/ps3dev/ppu/lib/gcc/powerpc64-ps3-elf/7.2.0/../../../../powerpc64-ps3-elf/lib/libsysbase.a(read.o)
 .data          0x00000000100200d8        0x0 /usr/local/ps3dev/ppu/lib/gcc/powerpc64-ps3-elf/7.2.0/../../../../powerpc64-ps3-elf/lib/libsysbase.a(write.o)
 .data          0x00000000100200d8        0x0 /usr/local/ps3dev/ppu/lib/gcc/powerpc64-ps3-elf/7.2.0/../../../../powerpc64-ps3-elf/lib/libsysbase.a(lock.o)
 .data          0x00000000100200d8        0x0 /usr/local/ps3dev/ppu/lib/gcc/powerpc64-ps3-elf/7.2.0/../../../../powerpc64-ps3-elf/lib/libsysbase.a(getpid.o)
 .data          0x00000000100200d8        0x0 /usr/local/ps3dev/ppu/lib/gcc/powerpc64-ps3-elf/7.2.0/../../../../powerpc64-ps3-elf/lib/libsysbase.a(kill.o)
 .data          0x00000000100200d8        0x0 /usr/local/ps3dev/ppu/lib/gcc/powerpc64-ps3-elf/7.2.0/crtend.o
 .data          0x00000000100200d8        0x0 /usr/local/ps3dev/ppu/lib/gcc/powerpc64-ps3-elf/7.2.0/../../../../powerpc64-ps3-elf/lib/lv2-crtn.o
 *(.gnu.linkonce.d.*personality*)

.tm_clone_table
                0x00000000100200d8        0x0
 .tm_clone_table
                0x00000000100200d8        0x0 /usr/local/ps3dev/ppu/lib/gcc/powerpc64-ps3-elf/7.2.0/crtbegin.o
 .tm_clone_table
                0x00000000100200d8        0x0 /usr/local/ps3dev/ppu/lib/gcc/powerpc64-ps3-elf/7.2.0/crtend.o

.data1
 *(.data1)

.sdata
 *(.sdata .sdata.* .gnu.linkonce.s.*)
                0x00000000100200d8                _edata = .
                0x00000000100200d8                PROVIDE (edata, .)
                0x00000000100200d8                __bss_start = .

.tocbss
 *(.tocbss)

.sbss           0x00000000100200d8        0x0
                0x00000000100200d8                PROVIDE (__sbss_start, .)
                0x00000000100200d8                PROVIDE (___sbss_start, .)
 *(.dynsbss)
 *(.sbss .sbss.* .gnu.linkonce.sb.*)
 *(.scommon)
                0x00000000100200d8                PROVIDE (__sbss_end, .)
                0x00000000100200d8                PROVIDE (___sbss_end, .)

.plt
 *(.plt)

.bss            0x0000000010020100    0x16040
 *(.dynbss)
 *(.bss .bss.* .gnu.linkonce.b.*)
 .bss           0x0000000010020100        0x0 /usr/local/ps3dev/ppu/lib/gcc/powerpc64-ps3-elf/7.2.0/../../../../powerpc64-ps3-elf/lib/lv2-crti.o
 .bss           0x0000000010020100        0x0 /usr/local/ps3dev/ppu/lib/gcc/powerpc64-ps3-elf/7.2.0/crtbegin.o
 .bss.completed.6040
                0x0000000010020100        0x1 /usr/local/ps3dev/ppu/lib/gcc/powerpc64-ps3-elf/7.2.0/crtbegin.o
 *fill*         0x0000000010020101        0x7 00
 .bss.dtor_idx.6042
                0x0000000010020108        0x8 /usr/local/ps3dev/ppu/lib/gcc/powerpc64-ps3-elf/7.2.0/crtbegin.o
 .bss.object.6052
                0x0000000010020110       0x30 /usr/local/ps3dev/ppu/lib/gcc/powerpc64-ps3-elf/7.2.0/crtbegin.o
 .bss           0x0000000010020140        0x8 /usr/local/ps3dev/ppu/lib/gcc/powerpc64-ps3-elf/7.2.0/../../../../powerpc64-ps3-elf/lib/lv2-crt0.o
                0x0000000010020140                __libc_stack_end
 .bss           0x0000000010020148        0x0 /usr/local/ps3dev/ppu/lib/gcc/powerpc64-ps3-elf/7.2.0/../../../../powerpc64-ps3-elf/lib/lv2-sprx.o
 .bss           0x0000000010020148        0x0 msxfont.o
 .bss           0x0000000010020148        0x0 main.o
 .bss           0x0000000010020148        0x0 font_b.o
 .bss           0x0000000010020148        0x0 font.o
 .bss           0x0000000010020148        0x0 /usr/local/ps3dev/portlibs/ppu/lib/libfont.a(libfont.o)
 .bss.buff      0x0000000010020148     0x1000 /usr/local/ps3dev/portlibs/ppu/lib/libfont.a(libfont.o)
 .bss.font_datas
                0x0000000010021148     0x2124 /usr/local/ps3dev/portlibs/ppu/lib/libfont.a(libfont.o)
 *fill*         0x000000001002326c        0x4 00
 .bss.letter_bitmap.5173
                0x0000000010023270    0x10100 /usr/local/ps3dev/portlibs/ppu/lib/libfont.a(libfont.o)
 .bss           0x0000000010033370        0x0 /home/scristaldi/tiny3d_Estwald_work/fonts/libtiny3d_.a(tiny3d.o)
 .bss.SocketFD  0x0000000010033370        0x4 /home/scristaldi/tiny3d_Estwald_work/fonts/libtiny3d_.a(tiny3d.o)
 .bss.Video_currentBuffer
                0x0000000010033374        0x4 /home/scristaldi/tiny3d_Estwald_work/fonts/libtiny3d_.a(tiny3d.o)
                0x0000000010033374                Video_currentBuffer
 .bss.apply_matrix
                0x0000000010033378       0x40 /home/scristaldi/tiny3d_Estwald_work/fonts/libtiny3d_.a(tiny3d.o)
 .bss.curr_list
                0x00000000100333b8        0x8 /home/scristaldi/tiny3d_Estwald_work/fonts/libtiny3d_.a(tiny3d.o)
 .bss.curr_list_index
                0x00000000100333c0        0x4 /home/scristaldi/tiny3d_Estwald_work/fonts/libtiny3d_.a(tiny3d.o)
 *fill*         0x00000000100333c4        0x4 00
 .bss.data_shader
                0x00000000100333c8      0x708 /home/scristaldi/tiny3d_Estwald_work/fonts/libtiny3d_.a(tiny3d.o)
 .bss.enable_yuv
                0x0000000010033ad0        0x4 /home/scristaldi/tiny3d_Estwald_work/fonts/libtiny3d_.a(tiny3d.o)
 .bss.flag_vertex
                0x0000000010033ad4        0x4 /home/scristaldi/tiny3d_Estwald_work/fonts/libtiny3d_.a(tiny3d.o)
 .bss.grab_list
                0x0000000010033ad8        0x4 /home/scristaldi/tiny3d_Estwald_work/fonts/libtiny3d_.a(tiny3d.o)
 .bss.inited    0x0000000010033adc        0x4 /home/scristaldi/tiny3d_Estwald_work/fonts/libtiny3d_.a(tiny3d.o)
 .bss.last_list
                0x0000000010033ae0        0x8 /home/scristaldi/tiny3d_Estwald_work/fonts/libtiny3d_.a(tiny3d.o)
 .bss.light     0x0000000010033ae8       0xa0 /home/scristaldi/tiny3d_Estwald_work/fonts/libtiny3d_.a(tiny3d.o)
 .bss.list_base
                0x0000000010033b88        0x8 /home/scristaldi/tiny3d_Estwald_work/fonts/libtiny3d_.a(tiny3d.o)
 .bss.material  0x0000000010033b90       0x40 /home/scristaldi/tiny3d_Estwald_work/fonts/libtiny3d_.a(tiny3d.o)
 .bss.model_view
                0x0000000010033bd0       0x40 /home/scristaldi/tiny3d_Estwald_work/fonts/libtiny3d_.a(tiny3d.o)
 .bss.n_vertex  0x0000000010033c10        0x4 /home/scristaldi/tiny3d_Estwald_work/fonts/libtiny3d_.a(tiny3d.o)
 .bss.off_head_vertex
                0x0000000010033c14        0x4 /home/scristaldi/tiny3d_Estwald_work/fonts/libtiny3d_.a(tiny3d.o)
 .bss.off_start_vertex
                0x0000000010033c18        0x4 /home/scristaldi/tiny3d_Estwald_work/fonts/libtiny3d_.a(tiny3d.o)
 .bss.off_vtx.6799
                0x0000000010033c1c        0x4 /home/scristaldi/tiny3d_Estwald_work/fonts/libtiny3d_.a(tiny3d.o)
 .bss.pos_rsx_vertex
                0x0000000010033c20        0x4 /home/scristaldi/tiny3d_Estwald_work/fonts/libtiny3d_.a(tiny3d.o)
 .bss.project_mat
                0x0000000010033c24       0x40 /home/scristaldi/tiny3d_Estwald_work/fonts/libtiny3d_.a(tiny3d.o)
 .bss.render_target
                0x0000000010033c64       0x10 /home/scristaldi/tiny3d_Estwald_work/fonts/libtiny3d_.a(tiny3d.o)
 *fill*         0x0000000010033c74        0x4 00
 .bss.rsx_vertex
                0x0000000010033c78        0x8 /home/scristaldi/tiny3d_Estwald_work/fonts/libtiny3d_.a(tiny3d.o)
 .bss.select_fp
                0x0000000010033c80        0x4 /home/scristaldi/tiny3d_Estwald_work/fonts/libtiny3d_.a(tiny3d.o)
 .bss.set_apply_matrix
                0x0000000010033c84        0x4 /home/scristaldi/tiny3d_Estwald_work/fonts/libtiny3d_.a(tiny3d.o)
 .bss.tiny3d_drawing_status
                0x0000000010033c88        0x4 /home/scristaldi/tiny3d_Estwald_work/fonts/libtiny3d_.a(tiny3d.o)
 .bss.tiny3d_menu_open
                0x0000000010033c8c        0x4 /home/scristaldi/tiny3d_Estwald_work/fonts/libtiny3d_.a(tiny3d.o)
 .bss.tiny_3d_alarm
                0x0000000010033c90        0x4 /home/scristaldi/tiny3d_Estwald_work/fonts/libtiny3d_.a(tiny3d.o)
 .bss.tinycallback_flag
                0x0000000010033c94        0x4 /home/scristaldi/tiny3d_Estwald_work/fonts/libtiny3d_.a(tiny3d.o)
                0x0000000010033c94                tinycallback_flag
 .bss.tinyerror_incallback
                0x0000000010033c98        0x4 /home/scristaldi/tiny3d_Estwald_work/fonts/libtiny3d_.a(tiny3d.o)
                0x0000000010033c98                tinyerror_incallback
 .bss.use_2d    0x0000000010033c9c        0x4 /home/scristaldi/tiny3d_Estwald_work/fonts/libtiny3d_.a(tiny3d.o)
 .bss.user_viewport
                0x0000000010033ca0        0x4 /home/scristaldi/tiny3d_Estwald_work/fonts/libtiny3d_.a(tiny3d.o)
 .bss.vertex_data
                0x0000000010033ca4       0x40 /home/scristaldi/tiny3d_Estwald_work/fonts/libtiny3d_.a(tiny3d.o)
 .bss.x_viewport_2D
                0x0000000010033ce4        0x4 /home/scristaldi/tiny3d_Estwald_work/fonts/libtiny3d_.a(tiny3d.o)
 .bss.x_viewport_3D
                0x0000000010033ce8        0x4 /home/scristaldi/tiny3d_Estwald_work/fonts/libtiny3d_.a(tiny3d.o)
 .bss.y_viewport_2D
                0x0000000010033cec        0x4 /home/scristaldi/tiny3d_Estwald_work/fonts/libtiny3d_.a(tiny3d.o)
 .bss.y_viewport_3D
                0x0000000010033cf0        0x4 /home/scristaldi/tiny3d_Estwald_work/fonts/libtiny3d_.a(tiny3d.o)
 .bss           0x0000000010033cf4        0x0 /home/scristaldi/tiny3d_Estwald_work/fonts/libtiny3d_.a(mm.o)
 .bss.initialized
                0x0000000010033cf4        0x1 /home/scristaldi/tiny3d_Estwald_work/fonts/libtiny3d_.a(mm.o)
 .bss           0x0000000010033cf5        0x0 /home/scristaldi/tiny3d_Estwald_work/fonts/libtiny3d_.a(glue.o)
 .bss           0x0000000010033cf5        0x0 /home/scristaldi/tiny3d_Estwald_work/fonts/libtiny3d_.a(vshader_text_normal.vcg.o)
 .bss           0x0000000010033cf5        0x0 /home/scristaldi/tiny3d_Estwald_work/fonts/libtiny3d_.a(realityVP.o)
 .bss           0x0000000010033cf5        0x0 /home/scristaldi/tiny3d_Estwald_work/fonts/libtiny3d_.a(matrix.o)
 .bss           0x0000000010033cf5        0x0 /home/scristaldi/tiny3d_Estwald_work/fonts/libtiny3d_.a(commands.o)
 .bss           0x0000000010033cf5        0x0 /home/scristaldi/tiny3d_Estwald_work/fonts/libtiny3d_.a(rsxutil.o)
 *fill*         0x0000000010033cf5        0x3 00
 .bss.depth_buffer
                0x0000000010033cf8        0x8 /home/scristaldi/tiny3d_Estwald_work/fonts/libtiny3d_.a(rsxutil.o)
 .bss.depth_offset
                0x0000000010033d00        0x4 /home/scristaldi/tiny3d_Estwald_work/fonts/libtiny3d_.a(rsxutil.o)
 .bss.depth_pitch
                0x0000000010033d04        0x4 /home/scristaldi/tiny3d_Estwald_work/fonts/libtiny3d_.a(rsxutil.o)
 .bss.offset    0x0000000010033d08        0x8 /home/scristaldi/tiny3d_Estwald_work/fonts/libtiny3d_.a(rsxutil.o)
 .bss.tiny_host_addr
                0x0000000010033d10        0x8 /home/scristaldi/tiny3d_Estwald_work/fonts/libtiny3d_.a(rsxutil.o)
                0x0000000010033d10                tiny_host_addr
 .bss.zformat   0x0000000010033d18        0x4 /home/scristaldi/tiny3d_Estwald_work/fonts/libtiny3d_.a(rsxutil.o)
 .bss           0x0000000010033d1c        0x0 /home/scristaldi/tiny3d_Estwald_work/fonts/libtiny3d_.a(buffer.o)
 .bss           0x0000000010033d1c        0x0 /usr/local/ps3dev/psl1ght/ppu/lib/libgcm_sys.a(sprx.o)
 .bss           0x0000000010033d1c        0x0 /usr/local/ps3dev/psl1ght/ppu/lib/libio.a(sprx.o)
 .bss           0x0000000010033d1c        0x0 /usr/local/ps3dev/psl1ght/ppu/lib/libsysutil.a(sprx.o)
 .bss           0x0000000010033d1c        0x0 /usr/local/ps3dev/psl1ght/ppu/lib/libsysutil.a(sysutil_wrapper.o)
 .bss           0x0000000010033d1c        0x0 /usr/local/ps3dev/psl1ght/ppu/lib/librt.a(sbrk.o)
 *fill*         0x0000000010033d1c        0x4 00
 .bss.__region_heap
                0x0000000010033d20       0x48 /usr/local/ps3dev/psl1ght/ppu/lib/librt.a(sbrk.o)
 *fill*         0x0000000010033d68       0x18 00
 .bss.__region_list_entries
                0x0000000010033d80     0x2020 /usr/local/ps3dev/psl1ght/ppu/lib/librt.a(sbrk.o)
 .bss.__sbrk_baseaddr
                0x0000000010035da0        0x4 /usr/local/ps3dev/psl1ght/ppu/lib/librt.a(sbrk.o)
 *fill*         0x0000000010035da4        0x4 00
 .bss.__sbrk_curr_regionentry
                0x0000000010035da8        0x8 /usr/local/ps3dev/psl1ght/ppu/lib/librt.a(sbrk.o)
 .bss.__sbrk_spinlock
                0x0000000010035db0        0x4 /usr/local/ps3dev/psl1ght/ppu/lib/librt.a(sbrk.o)
 .bss           0x0000000010035db4        0x0 /usr/local/ps3dev/psl1ght/ppu/lib/librt.a(exit.o)
 .bss           0x0000000010035db4        0x0 /usr/local/ps3dev/psl1ght/ppu/lib/librt.a(close.o)
 .bss           0x0000000010035db4        0x0 /usr/local/ps3dev/psl1ght/ppu/lib/librt.a(lseek.o)
 .bss           0x0000000010035db4        0x0 /usr/local/ps3dev/psl1ght/ppu/lib/librt.a(read.o)
 .bss           0x0000000010035db4        0x0 /usr/local/ps3dev/psl1ght/ppu/lib/librt.a(open.o)
 .bss           0x0000000010035db4        0x0 /usr/local/ps3dev/psl1ght/ppu/lib/librt.a(sleep.o)
 .bss           0x0000000010035db4        0x0 /usr/local/ps3dev/psl1ght/ppu/lib/librt.a(write.o)
 .bss           0x0000000010035db4        0x0 /usr/local/ps3dev/psl1ght/ppu/lib/librt.a(fstat.o)
 .bss           0x0000000010035db4        0x0 /usr/local/ps3dev/psl1ght/ppu/lib/librt.a(socket.o)
 .bss           0x0000000010035db4        0x0 /usr/local/ps3dev/psl1ght/ppu/lib/librt.a(lock.o)
 .bss           0x0000000010035db4        0x0 /usr/local/ps3dev/psl1ght/ppu/lib/librt.a(dirent.o)
 .bss           0x0000000010035db4        0x0 /usr/local/ps3dev/psl1ght/ppu/lib/librt.a(mkdir.o)
 .bss           0x0000000010035db4        0x0 /usr/local/ps3dev/psl1ght/ppu/lib/librt.a(times.o)
 .bss           0x0000000010035db4        0x0 /usr/local/ps3dev/psl1ght/ppu/lib/librt.a(umask.o)
 .bss           0x0000000010035db4        0x0 /usr/local/ps3dev/psl1ght/ppu/lib/librt.a(lv2errno.o)
 .bss           0x0000000010035db4        0x0 /usr/local/ps3dev/psl1ght/ppu/lib/librt.a(heap.o)
 .bss           0x0000000010035db4        0x0 /usr/local/ps3dev/psl1ght/ppu/lib/librt.a(chmod.o)
 .bss           0x0000000010035db4        0x0 /usr/local/ps3dev/psl1ght/ppu/lib/librt.a(rmdir.o)
 .bss           0x0000000010035db4        0x0 /usr/local/ps3dev/psl1ght/ppu/lib/librt.a(isatty.o)
 .bss           0x0000000010035db4        0x0 /usr/local/ps3dev/psl1ght/ppu/lib/librt.a(gettod.o)
 .bss           0x0000000010035db4        0x0 /usr/local/ps3dev/psl1ght/ppu/lib/librt.a(settod.o)
 .bss           0x0000000010035db4        0x0 /usr/local/ps3dev/psl1ght/ppu/lib/liblv2.a(sprx.o)
 .bss           0x0000000010035db4        0x0 /usr/local/ps3dev/psl1ght/ppu/lib/libnet.a(sprx.o)
 .bss           0x0000000010035db4        0x0 /usr/local/ps3dev/psl1ght/ppu/lib/libnet.a(init.o)
 *fill*         0x0000000010035db4        0x4 00
 .bss.__netMemory
                0x0000000010035db8        0x8 /usr/local/ps3dev/psl1ght/ppu/lib/libnet.a(init.o)
                0x0000000010035db8                __netMemory
 .bss           0x0000000010035dc0        0x0 /usr/local/ps3dev/psl1ght/ppu/lib/libsysmodule.a(sprx.o)
 .bss           0x0000000010035dc0        0x0 /usr/local/ps3dev/ppu/lib/gcc/powerpc64-ps3-elf/7.2.0/../../../../powerpc64-ps3-elf/lib/libm.a(lib_a-sf_cos.o)
 .bss           0x0000000010035dc0        0x0 /usr/local/ps3dev/ppu/lib/gcc/powerpc64-ps3-elf/7.2.0/../../../../powerpc64-ps3-elf/lib/libm.a(lib_a-sf_sin.o)
 .bss           0x0000000010035dc0        0x0 /usr/local/ps3dev/ppu/lib/gcc/powerpc64-ps3-elf/7.2.0/../../../../powerpc64-ps3-elf/lib/libm.a(lib_a-sf_tan.o)
 .bss           0x0000000010035dc0        0x0 /usr/local/ps3dev/ppu/lib/gcc/powerpc64-ps3-elf/7.2.0/../../../../powerpc64-ps3-elf/lib/libm.a(lib_a-w_sqrt.o)
 .bss           0x0000000010035dc0        0x0 /usr/local/ps3dev/ppu/lib/gcc/powerpc64-ps3-elf/7.2.0/../../../../powerpc64-ps3-elf/lib/libm.a(lib_a-wf_sqrt.o)
 .bss           0x0000000010035dc0        0x0 /usr/local/ps3dev/ppu/lib/gcc/powerpc64-ps3-elf/7.2.0/../../../../powerpc64-ps3-elf/lib/libm.a(lib_a-e_sqrt.o)
 .bss           0x0000000010035dc0        0x0 /usr/local/ps3dev/ppu/lib/gcc/powerpc64-ps3-elf/7.2.0/../../../../powerpc64-ps3-elf/lib/libm.a(lib_a-ef_rem_pio2.o)
 .bss           0x0000000010035dc0        0x0 /usr/local/ps3dev/ppu/lib/gcc/powerpc64-ps3-elf/7.2.0/../../../../powerpc64-ps3-elf/lib/libm.a(lib_a-ef_sqrt.o)
 .bss           0x0000000010035dc0        0x0 /usr/local/ps3dev/ppu/lib/gcc/powerpc64-ps3-elf/7.2.0/../../../../powerpc64-ps3-elf/lib/libm.a(lib_a-kf_cos.o)
 .bss           0x0000000010035dc0        0x0 /usr/local/ps3dev/ppu/lib/gcc/powerpc64-ps3-elf/7.2.0/../../../../powerpc64-ps3-elf/lib/libm.a(lib_a-kf_rem_pio2.o)
 .bss           0x0000000010035dc0        0x0 /usr/local/ps3dev/ppu/lib/gcc/powerpc64-ps3-elf/7.2.0/../../../../powerpc64-ps3-elf/lib/libm.a(lib_a-kf_sin.o)
 .bss           0x0000000010035dc0        0x0 /usr/local/ps3dev/ppu/lib/gcc/powerpc64-ps3-elf/7.2.0/../../../../powerpc64-ps3-elf/lib/libm.a(lib_a-kf_tan.o)
 .bss           0x0000000010035dc0        0x0 /usr/local/ps3dev/ppu/lib/gcc/powerpc64-ps3-elf/7.2.0/../../../../powerpc64-ps3-elf/lib/libm.a(lib_a-s_fpclassify.o)
 .bss           0x0000000010035dc0        0x0 /usr/local/ps3dev/ppu/lib/gcc/powerpc64-ps3-elf/7.2.0/../../../../powerpc64-ps3-elf/lib/libm.a(lib_a-s_lib_ver.o)
 .bss           0x0000000010035dc0        0x0 /usr/local/ps3dev/ppu/lib/gcc/powerpc64-ps3-elf/7.2.0/../../../../powerpc64-ps3-elf/lib/libm.a(lib_a-s_matherr.o)
 .bss           0x0000000010035dc0        0x0 /usr/local/ps3dev/ppu/lib/gcc/powerpc64-ps3-elf/7.2.0/../../../../powerpc64-ps3-elf/lib/libm.a(lib_a-sf_fabs.o)
 .bss           0x0000000010035dc0        0x0 /usr/local/ps3dev/ppu/lib/gcc/powerpc64-ps3-elf/7.2.0/../../../../powerpc64-ps3-elf/lib/libm.a(lib_a-sf_floor.o)
 .bss           0x0000000010035dc0        0x0 /usr/local/ps3dev/ppu/lib/gcc/powerpc64-ps3-elf/7.2.0/../../../../powerpc64-ps3-elf/lib/libm.a(lib_a-sf_fpclassify.o)
 .bss           0x0000000010035dc0        0x0 /usr/local/ps3dev/ppu/lib/gcc/powerpc64-ps3-elf/7.2.0/../../../../powerpc64-ps3-elf/lib/libm.a(lib_a-sf_scalbn.o)
 .bss           0x0000000010035dc0        0x0 /usr/local/ps3dev/ppu/lib/gcc/powerpc64-ps3-elf/7.2.0/../../../../powerpc64-ps3-elf/lib/libm.a(lib_a-sf_copysign.o)
 .bss           0x0000000010035dc0        0x0 /usr/local/ps3dev/ppu/lib/gcc/powerpc64-ps3-elf/7.2.0/../../../../powerpc64-ps3-elf/lib/libsysbase.a(syscalls.o)
 .bss.__syscalls
                0x0000000010035dc0      0x170 /usr/local/ps3dev/ppu/lib/gcc/powerpc64-ps3-elf/7.2.0/../../../../powerpc64-ps3-elf/lib/libsysbase.a(syscalls.o)
                0x0000000010035dc0                __syscalls
 .bss           0x0000000010035f30        0x0 /usr/local/ps3dev/ppu/lib/gcc/powerpc64-ps3-elf/7.2.0/../../../../powerpc64-ps3-elf/lib/libsysbase.a(sleep.o)
 .bss           0x0000000010035f30        0x0 /usr/local/ps3dev/ppu/lib/gcc/powerpc64-ps3-elf/7.2.0/../../../../powerpc64-ps3-elf/lib/libc.a(lib_a-atexit.o)
 .bss           0x0000000010035f30        0x0 /usr/local/ps3dev/ppu/lib/gcc/powerpc64-ps3-elf/7.2.0/../../../../powerpc64-ps3-elf/lib/libc.a(lib_a-calloc.o)
 .bss           0x0000000010035f30        0x0 /usr/local/ps3dev/ppu/lib/gcc/powerpc64-ps3-elf/7.2.0/../../../../powerpc64-ps3-elf/lib/libc.a(lib_a-callocr.o)
 .bss           0x0000000010035f30        0x0 /usr/local/ps3dev/ppu/lib/gcc/powerpc64-ps3-elf/7.2.0/../../../../powerpc64-ps3-elf/lib/libc.a(lib_a-errno.o)
 .bss           0x0000000010035f30        0x0 /usr/local/ps3dev/ppu/lib/gcc/powerpc64-ps3-elf/7.2.0/../../../../powerpc64-ps3-elf/lib/libc.a(lib_a-exit.o)
 .bss           0x0000000010035f30        0x0 /usr/local/ps3dev/ppu/lib/gcc/powerpc64-ps3-elf/7.2.0/../../../../powerpc64-ps3-elf/lib/libc.a(lib_a-getreent.o)
 .bss           0x0000000010035f30        0x0 /usr/local/ps3dev/ppu/lib/gcc/powerpc64-ps3-elf/7.2.0/../../../../powerpc64-ps3-elf/lib/libc.a(lib_a-impure.o)
 .bss           0x0000000010035f30        0x0 /usr/local/ps3dev/ppu/lib/gcc/powerpc64-ps3-elf/7.2.0/../../../../powerpc64-ps3-elf/lib/libc.a(lib_a-malign.o)
 .bss           0x0000000010035f30        0x0 /usr/local/ps3dev/ppu/lib/gcc/powerpc64-ps3-elf/7.2.0/../../../../powerpc64-ps3-elf/lib/libc.a(lib_a-malignr.o)
 .bss           0x0000000010035f30        0x0 /usr/local/ps3dev/ppu/lib/gcc/powerpc64-ps3-elf/7.2.0/../../../../powerpc64-ps3-elf/lib/libc.a(lib_a-malloc.o)
 .bss           0x0000000010035f30        0x0 /usr/local/ps3dev/ppu/lib/gcc/powerpc64-ps3-elf/7.2.0/../../../../powerpc64-ps3-elf/lib/libc.a(lib_a-mallocr.o)
 .bss.__malloc_current_mallinfo
                0x0000000010035f30       0x28 /usr/local/ps3dev/ppu/lib/gcc/powerpc64-ps3-elf/7.2.0/../../../../powerpc64-ps3-elf/lib/libc.a(lib_a-mallocr.o)
                0x0000000010035f30                __malloc_current_mallinfo
 .bss.__malloc_max_sbrked_mem
                0x0000000010035f58        0x8 /usr/local/ps3dev/ppu/lib/gcc/powerpc64-ps3-elf/7.2.0/../../../../powerpc64-ps3-elf/lib/libc.a(lib_a-mallocr.o)
                0x0000000010035f58                __malloc_max_sbrked_mem
 .bss.__malloc_max_total_mem
                0x0000000010035f60        0x8 /usr/local/ps3dev/ppu/lib/gcc/powerpc64-ps3-elf/7.2.0/../../../../powerpc64-ps3-elf/lib/libc.a(lib_a-mallocr.o)
                0x0000000010035f60                __malloc_max_total_mem
 .bss.__malloc_top_pad
                0x0000000010035f68        0x8 /usr/local/ps3dev/ppu/lib/gcc/powerpc64-ps3-elf/7.2.0/../../../../powerpc64-ps3-elf/lib/libc.a(lib_a-mallocr.o)
                0x0000000010035f68                __malloc_top_pad
 .bss           0x0000000010035f70        0x0 /usr/local/ps3dev/ppu/lib/gcc/powerpc64-ps3-elf/7.2.0/../../../../powerpc64-ps3-elf/lib/libc.a(lib_a-memcpy.o)
 .bss           0x0000000010035f70        0x0 /usr/local/ps3dev/ppu/lib/gcc/powerpc64-ps3-elf/7.2.0/../../../../powerpc64-ps3-elf/lib/libc.a(lib_a-memset.o)
 .bss           0x0000000010035f70        0x0 /usr/local/ps3dev/ppu/lib/gcc/powerpc64-ps3-elf/7.2.0/../../../../powerpc64-ps3-elf/lib/libc.a(lib_a-mlock.o)
 .bss.__malloc_lock_object
                0x0000000010035f70       0x18 /usr/local/ps3dev/ppu/lib/gcc/powerpc64-ps3-elf/7.2.0/../../../../powerpc64-ps3-elf/lib/libc.a(lib_a-mlock.o)
 .bss           0x0000000010035f88        0x0 /usr/local/ps3dev/ppu/lib/gcc/powerpc64-ps3-elf/7.2.0/../../../../powerpc64-ps3-elf/lib/libc.a(lib_a-puts.o)
 .bss           0x0000000010035f88        0x0 /usr/local/ps3dev/ppu/lib/gcc/powerpc64-ps3-elf/7.2.0/../../../../powerpc64-ps3-elf/lib/libc.a(lib_a-sscanf.o)
 .bss           0x0000000010035f88        0x0 /usr/local/ps3dev/ppu/lib/gcc/powerpc64-ps3-elf/7.2.0/../../../../powerpc64-ps3-elf/lib/libc.a(lib_a-stdio.o)
 .bss           0x0000000010035f88        0x0 /usr/local/ps3dev/ppu/lib/gcc/powerpc64-ps3-elf/7.2.0/../../../../powerpc64-ps3-elf/lib/libc.a(lib_a-strcasecmp.o)
 .bss           0x0000000010035f88        0x0 /usr/local/ps3dev/ppu/lib/gcc/powerpc64-ps3-elf/7.2.0/../../../../powerpc64-ps3-elf/lib/libc.a(lib_a-strlen.o)
 .bss           0x0000000010035f88        0x0 /usr/local/ps3dev/ppu/lib/gcc/powerpc64-ps3-elf/7.2.0/../../../../powerpc64-ps3-elf/lib/libc.a(lib_a-strncpy.o)
 .bss           0x0000000010035f88        0x0 /usr/local/ps3dev/ppu/lib/gcc/powerpc64-ps3-elf/7.2.0/../../../../powerpc64-ps3-elf/lib/libc.a(lib_a-svfscanf.o)
 .bss           0x0000000010035f88        0x0 /usr/local/ps3dev/ppu/lib/gcc/powerpc64-ps3-elf/7.2.0/../../../../powerpc64-ps3-elf/lib/libc.a(lib_a-vsnprintf.o)
 .bss           0x0000000010035f88        0x0 /usr/local/ps3dev/ppu/lib/gcc/powerpc64-ps3-elf/7.2.0/../../../../powerpc64-ps3-elf/lib/libc.a(lib_a-vsprintf.o)
 .bss           0x0000000010035f88        0x0 /usr/local/ps3dev/ppu/lib/gcc/powerpc64-ps3-elf/7.2.0/../../../../powerpc64-ps3-elf/lib/libc.a(lib_a-__atexit.o)
 .bss.__atexit_lock
                0x0000000010035f88       0x18 /usr/local/ps3dev/ppu/lib/gcc/powerpc64-ps3-elf/7.2.0/../../../../powerpc64-ps3-elf/lib/libc.a(lib_a-__atexit.o)
                0x0000000010035f88                __atexit_lock
 .bss           0x0000000010035fa0        0x0 /usr/local/ps3dev/ppu/lib/gcc/powerpc64-ps3-elf/7.2.0/../../../../powerpc64-ps3-elf/lib/libc.a(lib_a-__call_atexit.o)
 .bss           0x0000000010035fa0        0x0 /usr/local/ps3dev/ppu/lib/gcc/powerpc64-ps3-elf/7.2.0/../../../../powerpc64-ps3-elf/lib/libc.a(lib_a-ctype_.o)
 .bss           0x0000000010035fa0        0x0 /usr/local/ps3dev/ppu/lib/gcc/powerpc64-ps3-elf/7.2.0/../../../../powerpc64-ps3-elf/lib/libc.a(lib_a-freer.o)
 .bss           0x0000000010035fa0        0x0 /usr/local/ps3dev/ppu/lib/gcc/powerpc64-ps3-elf/7.2.0/../../../../powerpc64-ps3-elf/lib/libc.a(lib_a-fvwrite.o)
 .bss           0x0000000010035fa0        0x0 /usr/local/ps3dev/ppu/lib/gcc/powerpc64-ps3-elf/7.2.0/../../../../powerpc64-ps3-elf/lib/libc.a(lib_a-iswspace.o)
 .bss           0x0000000010035fa0        0x0 /usr/local/ps3dev/ppu/lib/gcc/powerpc64-ps3-elf/7.2.0/../../../../powerpc64-ps3-elf/lib/libc.a(lib_a-locale.o)
 .bss._PathLocale
                0x0000000010035fa0        0x8 /usr/local/ps3dev/ppu/lib/gcc/powerpc64-ps3-elf/7.2.0/../../../../powerpc64-ps3-elf/lib/libc.a(lib_a-locale.o)
                0x0000000010035fa0                _PathLocale
 .bss.__mlocale_changed
                0x0000000010035fa8        0x4 /usr/local/ps3dev/ppu/lib/gcc/powerpc64-ps3-elf/7.2.0/../../../../powerpc64-ps3-elf/lib/libc.a(lib_a-locale.o)
                0x0000000010035fa8                __mlocale_changed
 .bss.__nlocale_changed
                0x0000000010035fac        0x4 /usr/local/ps3dev/ppu/lib/gcc/powerpc64-ps3-elf/7.2.0/../../../../powerpc64-ps3-elf/lib/libc.a(lib_a-locale.o)
                0x0000000010035fac                __nlocale_changed
 .bss           0x0000000010035fb0        0x0 /usr/local/ps3dev/ppu/lib/gcc/powerpc64-ps3-elf/7.2.0/../../../../powerpc64-ps3-elf/lib/libc.a(lib_a-lock_recursive.o)
 .bss           0x0000000010035fb0        0x0 /usr/local/ps3dev/ppu/lib/gcc/powerpc64-ps3-elf/7.2.0/../../../../powerpc64-ps3-elf/lib/libc.a(lib_a-mbrtowc.o)
 .bss           0x0000000010035fb0        0x0 /usr/local/ps3dev/ppu/lib/gcc/powerpc64-ps3-elf/7.2.0/../../../../powerpc64-ps3-elf/lib/libc.a(lib_a-mbtowc_r.o)
 .bss           0x0000000010035fb0        0x0 /usr/local/ps3dev/ppu/lib/gcc/powerpc64-ps3-elf/7.2.0/../../../../powerpc64-ps3-elf/lib/libc.a(lib_a-memchr.o)
 .bss           0x0000000010035fb0        0x0 /usr/local/ps3dev/ppu/lib/gcc/powerpc64-ps3-elf/7.2.0/../../../../powerpc64-ps3-elf/lib/libc.a(lib_a-memmove.o)
 .bss           0x0000000010035fb0        0x0 /usr/local/ps3dev/ppu/lib/gcc/powerpc64-ps3-elf/7.2.0/../../../../powerpc64-ps3-elf/lib/libc.a(lib_a-reallocr.o)
 .bss           0x0000000010035fb0        0x0 /usr/local/ps3dev/ppu/lib/gcc/powerpc64-ps3-elf/7.2.0/../../../../powerpc64-ps3-elf/lib/libc.a(lib_a-sccl.o)
 .bss           0x0000000010035fb0        0x0 /usr/local/ps3dev/ppu/lib/gcc/powerpc64-ps3-elf/7.2.0/../../../../powerpc64-ps3-elf/lib/libc.a(lib_a-sf_nan.o)
 .bss           0x0000000010035fb0        0x0 /usr/local/ps3dev/ppu/lib/gcc/powerpc64-ps3-elf/7.2.0/../../../../powerpc64-ps3-elf/lib/libc.a(lib_a-sprintf.o)
 .bss           0x0000000010035fb0        0x0 /usr/local/ps3dev/ppu/lib/gcc/powerpc64-ps3-elf/7.2.0/../../../../powerpc64-ps3-elf/lib/libc.a(lib_a-strcmp.o)
 .bss           0x0000000010035fb0        0x0 /usr/local/ps3dev/ppu/lib/gcc/powerpc64-ps3-elf/7.2.0/../../../../powerpc64-ps3-elf/lib/libc.a(lib_a-strtod.o)
 .bss           0x0000000010035fb0        0x0 /usr/local/ps3dev/ppu/lib/gcc/powerpc64-ps3-elf/7.2.0/../../../../powerpc64-ps3-elf/lib/libc.a(lib_a-strtol.o)
 .bss           0x0000000010035fb0        0x0 /usr/local/ps3dev/ppu/lib/gcc/powerpc64-ps3-elf/7.2.0/../../../../powerpc64-ps3-elf/lib/libc.a(lib_a-strtoll_r.o)
 .bss           0x0000000010035fb0        0x0 /usr/local/ps3dev/ppu/lib/gcc/powerpc64-ps3-elf/7.2.0/../../../../powerpc64-ps3-elf/lib/libc.a(lib_a-strtoul.o)
 .bss           0x0000000010035fb0        0x0 /usr/local/ps3dev/ppu/lib/gcc/powerpc64-ps3-elf/7.2.0/../../../../powerpc64-ps3-elf/lib/libc.a(lib_a-strtoull_r.o)
 .bss           0x0000000010035fb0        0x0 /usr/local/ps3dev/ppu/lib/gcc/powerpc64-ps3-elf/7.2.0/../../../../powerpc64-ps3-elf/lib/libc.a(lib_a-svfiscanf.o)
 .bss           0x0000000010035fb0        0x0 /usr/local/ps3dev/ppu/lib/gcc/powerpc64-ps3-elf/7.2.0/../../../../powerpc64-ps3-elf/lib/libc.a(lib_a-svfprintf.o)
 .bss           0x0000000010035fb0        0x0 /usr/local/ps3dev/ppu/lib/gcc/powerpc64-ps3-elf/7.2.0/../../../../powerpc64-ps3-elf/lib/libc.a(lib_a-ungetc.o)
 .bss           0x0000000010035fb0        0x0 /usr/local/ps3dev/ppu/lib/gcc/powerpc64-ps3-elf/7.2.0/../../../../powerpc64-ps3-elf/lib/libc.a(lib_a-wsetup.o)
 .bss           0x0000000010035fb0        0x0 /usr/local/ps3dev/ppu/lib/gcc/powerpc64-ps3-elf/7.2.0/../../../../powerpc64-ps3-elf/lib/libc.a(lib_a-dtoa.o)
 .bss           0x0000000010035fb0        0x0 /usr/local/ps3dev/ppu/lib/gcc/powerpc64-ps3-elf/7.2.0/../../../../powerpc64-ps3-elf/lib/libc.a(lib_a-fflush.o)
 .bss           0x0000000010035fb0        0x0 /usr/local/ps3dev/ppu/lib/gcc/powerpc64-ps3-elf/7.2.0/../../../../powerpc64-ps3-elf/lib/libc.a(lib_a-findfp.o)
 .bss.__sfp_lock
                0x0000000010035fb0       0x18 /usr/local/ps3dev/ppu/lib/gcc/powerpc64-ps3-elf/7.2.0/../../../../powerpc64-ps3-elf/lib/libc.a(lib_a-findfp.o)
 .bss.__sinit_lock
                0x0000000010035fc8       0x18 /usr/local/ps3dev/ppu/lib/gcc/powerpc64-ps3-elf/7.2.0/../../../../powerpc64-ps3-elf/lib/libc.a(lib_a-findfp.o)
 .bss           0x0000000010035fe0        0x0 /usr/local/ps3dev/ppu/lib/gcc/powerpc64-ps3-elf/7.2.0/../../../../powerpc64-ps3-elf/lib/libc.a(lib_a-fwalk.o)
 .bss           0x0000000010035fe0        0x0 /usr/local/ps3dev/ppu/lib/gcc/powerpc64-ps3-elf/7.2.0/../../../../powerpc64-ps3-elf/lib/libc.a(lib_a-gdtoa-gethex.o)
 .bss           0x0000000010035fe0        0x0 /usr/local/ps3dev/ppu/lib/gcc/powerpc64-ps3-elf/7.2.0/../../../../powerpc64-ps3-elf/lib/libc.a(lib_a-gdtoa-hexnan.o)
 .bss           0x0000000010035fe0        0x0 /usr/local/ps3dev/ppu/lib/gcc/powerpc64-ps3-elf/7.2.0/../../../../powerpc64-ps3-elf/lib/libc.a(lib_a-lock_internal.o)
 .bss.metaLock  0x0000000010035fe0       0x18 /usr/local/ps3dev/ppu/lib/gcc/powerpc64-ps3-elf/7.2.0/../../../../powerpc64-ps3-elf/lib/libc.a(lib_a-lock_internal.o)
 .bss           0x0000000010035ff8        0x0 /usr/local/ps3dev/ppu/lib/gcc/powerpc64-ps3-elf/7.2.0/../../../../powerpc64-ps3-elf/lib/libc.a(lib_a-makebuf.o)
 .bss           0x0000000010035ff8        0x0 /usr/local/ps3dev/ppu/lib/gcc/powerpc64-ps3-elf/7.2.0/../../../../powerpc64-ps3-elf/lib/libc.a(lib_a-mprec.o)
 .bss           0x0000000010035ff8        0x0 /usr/local/ps3dev/ppu/lib/gcc/powerpc64-ps3-elf/7.2.0/../../../../powerpc64-ps3-elf/lib/libc.a(lib_a-strncmp.o)
 .bss           0x0000000010035ff8        0x0 /usr/local/ps3dev/ppu/lib/gcc/powerpc64-ps3-elf/7.2.0/../../../../powerpc64-ps3-elf/lib/libc.a(lib_a-svfiprintf.o)
 .bss           0x0000000010035ff8        0x0 /usr/local/ps3dev/ppu/lib/gcc/powerpc64-ps3-elf/7.2.0/../../../../powerpc64-ps3-elf/lib/libc.a(lib_a-abort.o)
 .bss           0x0000000010035ff8        0x0 /usr/local/ps3dev/ppu/lib/gcc/powerpc64-ps3-elf/7.2.0/../../../../powerpc64-ps3-elf/lib/libc.a(lib_a-fclose.o)
 .bss           0x0000000010035ff8        0x0 /usr/local/ps3dev/ppu/lib/gcc/powerpc64-ps3-elf/7.2.0/../../../../powerpc64-ps3-elf/lib/libc.a(lib_a-signal.o)
 .bss           0x0000000010035ff8        0x0 /usr/local/ps3dev/ppu/lib/gcc/powerpc64-ps3-elf/7.2.0/../../../../powerpc64-ps3-elf/lib/libsysbase.a(close.o)
 .bss           0x0000000010035ff8        0x0 /usr/local/ps3dev/ppu/lib/gcc/powerpc64-ps3-elf/7.2.0/../../../../powerpc64-ps3-elf/lib/libsysbase.a(sbrk.o)
 .bss           0x0000000010035ff8        0x0 /usr/local/ps3dev/ppu/lib/gcc/powerpc64-ps3-elf/7.2.0/../../../../powerpc64-ps3-elf/lib/libsysbase.a(_exit.o)
 .bss           0x0000000010035ff8        0x0 /usr/local/ps3dev/ppu/lib/gcc/powerpc64-ps3-elf/7.2.0/../../../../powerpc64-ps3-elf/lib/libsysbase.a(fstat.o)
 .bss           0x0000000010035ff8        0x0 /usr/local/ps3dev/ppu/lib/gcc/powerpc64-ps3-elf/7.2.0/../../../../powerpc64-ps3-elf/lib/libsysbase.a(isatty.o)
 .bss           0x0000000010035ff8        0x0 /usr/local/ps3dev/ppu/lib/gcc/powerpc64-ps3-elf/7.2.0/../../../../powerpc64-ps3-elf/lib/libsysbase.a(lseek.o)
 .bss           0x0000000010035ff8        0x0 /usr/local/ps3dev/ppu/lib/gcc/powerpc64-ps3-elf/7.2.0/../../../../powerpc64-ps3-elf/lib/libsysbase.a(read.o)
 .bss           0x0000000010035ff8        0x0 /usr/local/ps3dev/ppu/lib/gcc/powerpc64-ps3-elf/7.2.0/../../../../powerpc64-ps3-elf/lib/libsysbase.a(write.o)
 .bss           0x0000000010035ff8        0x0 /usr/local/ps3dev/ppu/lib/gcc/powerpc64-ps3-elf/7.2.0/../../../../powerpc64-ps3-elf/lib/libsysbase.a(lock.o)
 .bss           0x0000000010035ff8        0x0 /usr/local/ps3dev/ppu/lib/gcc/powerpc64-ps3-elf/7.2.0/../../../../powerpc64-ps3-elf/lib/libsysbase.a(getpid.o)
 .bss           0x0000000010035ff8        0x0 /usr/local/ps3dev/ppu/lib/gcc/powerpc64-ps3-elf/7.2.0/../../../../powerpc64-ps3-elf/lib/libsysbase.a(kill.o)
 .bss           0x0000000010035ff8        0x0 /usr/local/ps3dev/ppu/lib/gcc/powerpc64-ps3-elf/7.2.0/crtend.o
 .bss           0x0000000010035ff8        0x0 /usr/local/ps3dev/ppu/lib/gcc/powerpc64-ps3-elf/7.2.0/../../../../powerpc64-ps3-elf/lib/lv2-crtn.o
 *(COMMON)
 COMMON         0x0000000010035ff8       0x20 /home/scristaldi/tiny3d_Estwald_work/fonts/libtiny3d_.a(mm.o)
                0x0000000010035ff8                heap_pointer
                0x0000000010036000                config
 COMMON         0x0000000010036018       0x24 /home/scristaldi/tiny3d_Estwald_work/fonts/libtiny3d_.a(rsxutil.o)
                0x0000000010036018                Video_buffer
                0x0000000010036028                Video_aspect
                0x000000001003602c                Video_pitch
                0x0000000010036030                context
                0x0000000010036038                Video_Resolution
 *fill*         0x000000001003603c        0x4 00
 COMMON         0x0000000010036040      0x100 /usr/local/ps3dev/ppu/lib/gcc/powerpc64-ps3-elf/7.2.0/../../../../powerpc64-ps3-elf/lib/libc.a(lib_a-gdtoa-gethex.o)
                0x0000000010036040                __hexdig
                0x0000000010036140                . = ALIGN (0x8)

.iplt           0x0000000010036140        0x0
 .iplt          0x0000000000000000        0x0 linker stubs
                0x0000000020000000                . = ALIGN (0x10000000)

.rsx_image
 *(.rsx_*)
                0x0000000020000000                _end = .
                0x0000000020000000                __end = .
                0x0000000020000000                PROVIDE (end, .)
                0x0000000020000000                . = ALIGN (0x8)

.stab
 *(.stab)

.stabstr
 *(.stabstr)

.stab.excl
 *(.stab.excl)

.stab.exclstr
 *(.stab.exclstr)

.stab.index
 *(.stab.index)

.stab.indexstr
 *(.stab.indexstr)

.comment        0x0000000000000000       0x11
 *(.comment)
 .comment       0x0000000000000000       0x11 /usr/local/ps3dev/ppu/lib/gcc/powerpc64-ps3-elf/7.2.0/crtbegin.o
                                         0x12 (size before relaxing)
 .comment       0x0000000000000000       0x12 /usr/local/ps3dev/ppu/lib/gcc/powerpc64-ps3-elf/7.2.0/../../../../powerpc64-ps3-elf/lib/lv2-crt0.o
 .comment       0x0000000000000000       0x12 msxfont.o
 .comment       0x0000000000000000       0x12 main.o
 .comment       0x0000000000000000       0x12 font_b.o
 .comment       0x0000000000000000       0x12 font.o
 .comment       0x0000000000000000       0x12 /usr/local/ps3dev/portlibs/ppu/lib/libfont.a(libfont.o)
 .comment       0x0000000000000000       0x12 /home/scristaldi/tiny3d_Estwald_work/fonts/libtiny3d_.a(tiny3d.o)
 .comment       0x0000000000000000       0x12 /home/scristaldi/tiny3d_Estwald_work/fonts/libtiny3d_.a(mm.o)
 .comment       0x0000000000000000       0x12 /home/scristaldi/tiny3d_Estwald_work/fonts/libtiny3d_.a(glue.o)
 .comment       0x0000000000000000       0x12 /home/scristaldi/tiny3d_Estwald_work/fonts/libtiny3d_.a(realityVP.o)
 .comment       0x0000000000000000       0x12 /home/scristaldi/tiny3d_Estwald_work/fonts/libtiny3d_.a(matrix.o)
 .comment       0x0000000000000000       0x12 /home/scristaldi/tiny3d_Estwald_work/fonts/libtiny3d_.a(commands.o)
 .comment       0x0000000000000000       0x12 /home/scristaldi/tiny3d_Estwald_work/fonts/libtiny3d_.a(rsxutil.o)
 .comment       0x0000000000000000       0x12 /home/scristaldi/tiny3d_Estwald_work/fonts/libtiny3d_.a(buffer.o)
 .comment       0x0000000000000000       0x12 /usr/local/ps3dev/psl1ght/ppu/lib/libgcm_sys.a(sprx.o)
 .comment       0x0000000000000000       0x12 /usr/local/ps3dev/psl1ght/ppu/lib/libio.a(sprx.o)
 .comment       0x0000000000000000       0x12 /usr/local/ps3dev/psl1ght/ppu/lib/libsysutil.a(sprx.o)
 .comment       0x0000000000000000       0x12 /usr/local/ps3dev/psl1ght/ppu/lib/libsysutil.a(sysutil_wrapper.o)
 .comment       0x0000000000000000       0x12 /usr/local/ps3dev/psl1ght/ppu/lib/librt.a(sbrk.o)
 .comment       0x0000000000000000       0x12 /usr/local/ps3dev/psl1ght/ppu/lib/librt.a(exit.o)
 .comment       0x0000000000000000       0x12 /usr/local/ps3dev/psl1ght/ppu/lib/librt.a(close.o)
 .comment       0x0000000000000000       0x12 /usr/local/ps3dev/psl1ght/ppu/lib/librt.a(lseek.o)
 .comment       0x0000000000000000       0x12 /usr/local/ps3dev/psl1ght/ppu/lib/librt.a(read.o)
 .comment       0x0000000000000000       0x12 /usr/local/ps3dev/psl1ght/ppu/lib/librt.a(open.o)
 .comment       0x0000000000000000       0x12 /usr/local/ps3dev/psl1ght/ppu/lib/librt.a(sleep.o)
 .comment       0x0000000000000000       0x12 /usr/local/ps3dev/psl1ght/ppu/lib/librt.a(write.o)
 .comment       0x0000000000000000       0x12 /usr/local/ps3dev/psl1ght/ppu/lib/librt.a(fstat.o)
 .comment       0x0000000000000000       0x12 /usr/local/ps3dev/psl1ght/ppu/lib/librt.a(socket.o)
 .comment       0x0000000000000000       0x12 /usr/local/ps3dev/psl1ght/ppu/lib/librt.a(lock.o)
 .comment       0x0000000000000000       0x12 /usr/local/ps3dev/psl1ght/ppu/lib/librt.a(dirent.o)
 .comment       0x0000000000000000       0x12 /usr/local/ps3dev/psl1ght/ppu/lib/librt.a(mkdir.o)
 .comment       0x0000000000000000       0x12 /usr/local/ps3dev/psl1ght/ppu/lib/librt.a(times.o)
 .comment       0x0000000000000000       0x12 /usr/local/ps3dev/psl1ght/ppu/lib/librt.a(umask.o)
 .comment       0x0000000000000000       0x12 /usr/local/ps3dev/psl1ght/ppu/lib/librt.a(lv2errno.o)
 .comment       0x0000000000000000       0x12 /usr/local/ps3dev/psl1ght/ppu/lib/librt.a(heap.o)
 .comment       0x0000000000000000       0x12 /usr/local/ps3dev/psl1ght/ppu/lib/librt.a(chmod.o)
 .comment       0x0000000000000000       0x12 /usr/local/ps3dev/psl1ght/ppu/lib/librt.a(rmdir.o)
 .comment       0x0000000000000000       0x12 /usr/local/ps3dev/psl1ght/ppu/lib/librt.a(isatty.o)
 .comment       0x0000000000000000       0x12 /usr/local/ps3dev/psl1ght/ppu/lib/librt.a(gettod.o)
 .comment       0x0000000000000000       0x12 /usr/local/ps3dev/psl1ght/ppu/lib/librt.a(settod.o)
 .comment       0x0000000000000000       0x12 /usr/local/ps3dev/psl1ght/ppu/lib/liblv2.a(sprx.o)
 .comment       0x0000000000000000       0x12 /usr/local/ps3dev/psl1ght/ppu/lib/libnet.a(sprx.o)
 .comment       0x0000000000000000       0x12 /usr/local/ps3dev/psl1ght/ppu/lib/libnet.a(init.o)
 .comment       0x0000000000000000       0x12 /usr/local/ps3dev/psl1ght/ppu/lib/libsysmodule.a(sprx.o)
 .comment       0x0000000000000000       0x12 /usr/local/ps3dev/ppu/lib/gcc/powerpc64-ps3-elf/7.2.0/../../../../powerpc64-ps3-elf/lib/libm.a(lib_a-sf_cos.o)
 .comment       0x0000000000000000       0x12 /usr/local/ps3dev/ppu/lib/gcc/powerpc64-ps3-elf/7.2.0/../../../../powerpc64-ps3-elf/lib/libm.a(lib_a-sf_sin.o)
 .comment       0x0000000000000000       0x12 /usr/local/ps3dev/ppu/lib/gcc/powerpc64-ps3-elf/7.2.0/../../../../powerpc64-ps3-elf/lib/libm.a(lib_a-sf_tan.o)
 .comment       0x0000000000000000       0x12 /usr/local/ps3dev/ppu/lib/gcc/powerpc64-ps3-elf/7.2.0/../../../../powerpc64-ps3-elf/lib/libm.a(lib_a-w_sqrt.o)
 .comment       0x0000000000000000       0x12 /usr/local/ps3dev/ppu/lib/gcc/powerpc64-ps3-elf/7.2.0/../../../../powerpc64-ps3-elf/lib/libm.a(lib_a-wf_sqrt.o)
 .comment       0x0000000000000000       0x12 /usr/local/ps3dev/ppu/lib/gcc/powerpc64-ps3-elf/7.2.0/../../../../powerpc64-ps3-elf/lib/libm.a(lib_a-e_sqrt.o)
 .comment       0x0000000000000000       0x12 /usr/local/ps3dev/ppu/lib/gcc/powerpc64-ps3-elf/7.2.0/../../../../powerpc64-ps3-elf/lib/libm.a(lib_a-ef_rem_pio2.o)
 .comment       0x0000000000000000       0x12 /usr/local/ps3dev/ppu/lib/gcc/powerpc64-ps3-elf/7.2.0/../../../../powerpc64-ps3-elf/lib/libm.a(lib_a-ef_sqrt.o)
 .comment       0x0000000000000000       0x12 /usr/local/ps3dev/ppu/lib/gcc/powerpc64-ps3-elf/7.2.0/../../../../powerpc64-ps3-elf/lib/libm.a(lib_a-kf_cos.o)
 .comment       0x0000000000000000       0x12 /usr/local/ps3dev/ppu/lib/gcc/powerpc64-ps3-elf/7.2.0/../../../../powerpc64-ps3-elf/lib/libm.a(lib_a-kf_rem_pio2.o)
 .comment       0x0000000000000000       0x12 /usr/local/ps3dev/ppu/lib/gcc/powerpc64-ps3-elf/7.2.0/../../../../powerpc64-ps3-elf/lib/libm.a(lib_a-kf_sin.o)
 .comment       0x0000000000000000       0x12 /usr/local/ps3dev/ppu/lib/gcc/powerpc64-ps3-elf/7.2.0/../../../../powerpc64-ps3-elf/lib/libm.a(lib_a-kf_tan.o)
 .comment       0x0000000000000000       0x12 /usr/local/ps3dev/ppu/lib/gcc/powerpc64-ps3-elf/7.2.0/../../../../powerpc64-ps3-elf/lib/libm.a(lib_a-s_fpclassify.o)
 .comment       0x0000000000000000       0x12 /usr/local/ps3dev/ppu/lib/gcc/powerpc64-ps3-elf/7.2.0/../../../../powerpc64-ps3-elf/lib/libm.a(lib_a-s_lib_ver.o)
 .comment       0x0000000000000000       0x12 /usr/local/ps3dev/ppu/lib/gcc/powerpc64-ps3-elf/7.2.0/../../../../powerpc64-ps3-elf/lib/libm.a(lib_a-s_matherr.o)
 .comment       0x0000000000000000       0x12 /usr/local/ps3dev/ppu/lib/gcc/powerpc64-ps3-elf/7.2.0/../../../../powerpc64-ps3-elf/lib/libm.a(lib_a-sf_fabs.o)
 .comment       0x0000000000000000       0x12 /usr/local/ps3dev/ppu/lib/gcc/powerpc64-ps3-elf/7.2.0/../../../../powerpc64-ps3-elf/lib/libm.a(lib_a-sf_floor.o)
 .comment       0x0000000000000000       0x12 /usr/local/ps3dev/ppu/lib/gcc/powerpc64-ps3-elf/7.2.0/../../../../powerpc64-ps3-elf/lib/libm.a(lib_a-sf_fpclassify.o)
 .comment       0x0000000000000000       0x12 /usr/local/ps3dev/ppu/lib/gcc/powerpc64-ps3-elf/7.2.0/../../../../powerpc64-ps3-elf/lib/libm.a(lib_a-sf_scalbn.o)
 .comment       0x0000000000000000       0x12 /usr/local/ps3dev/ppu/lib/gcc/powerpc64-ps3-elf/7.2.0/../../../../powerpc64-ps3-elf/lib/libm.a(lib_a-sf_copysign.o)
 .comment       0x0000000000000000       0x12 /usr/local/ps3dev/ppu/lib/gcc/powerpc64-ps3-elf/7.2.0/../../../../powerpc64-ps3-elf/lib/libsysbase.a(syscalls.o)
 .comment       0x0000000000000000       0x12 /usr/local/ps3dev/ppu/lib/gcc/powerpc64-ps3-elf/7.2.0/../../../../powerpc64-ps3-elf/lib/libsysbase.a(sleep.o)
 .comment       0x0000000000000000       0x12 /usr/local/ps3dev/ppu/lib/gcc/powerpc64-ps3-elf/7.2.0/../../../../powerpc64-ps3-elf/lib/libc.a(lib_a-atexit.o)
 .comment       0x0000000000000000       0x12 /usr/local/ps3dev/ppu/lib/gcc/powerpc64-ps3-elf/7.2.0/../../../../powerpc64-ps3-elf/lib/libc.a(lib_a-calloc.o)
 .comment       0x0000000000000000       0x12 /usr/local/ps3dev/ppu/lib/gcc/powerpc64-ps3-elf/7.2.0/../../../../powerpc64-ps3-elf/lib/libc.a(lib_a-callocr.o)
 .comment       0x0000000000000000       0x12 /usr/local/ps3dev/ppu/lib/gcc/powerpc64-ps3-elf/7.2.0/../../../../powerpc64-ps3-elf/lib/libc.a(lib_a-errno.o)
 .comment       0x0000000000000000       0x12 /usr/local/ps3dev/ppu/lib/gcc/powerpc64-ps3-elf/7.2.0/../../../../powerpc64-ps3-elf/lib/libc.a(lib_a-exit.o)
 .comment       0x0000000000000000       0x12 /usr/local/ps3dev/ppu/lib/gcc/powerpc64-ps3-elf/7.2.0/../../../../powerpc64-ps3-elf/lib/libc.a(lib_a-getreent.o)
 .comment       0x0000000000000000       0x12 /usr/local/ps3dev/ppu/lib/gcc/powerpc64-ps3-elf/7.2.0/../../../../powerpc64-ps3-elf/lib/libc.a(lib_a-impure.o)
 .comment       0x0000000000000000       0x12 /usr/local/ps3dev/ppu/lib/gcc/powerpc64-ps3-elf/7.2.0/../../../../powerpc64-ps3-elf/lib/libc.a(lib_a-malign.o)
 .comment       0x0000000000000000       0x12 /usr/local/ps3dev/ppu/lib/gcc/powerpc64-ps3-elf/7.2.0/../../../../powerpc64-ps3-elf/lib/libc.a(lib_a-malignr.o)
 .comment       0x0000000000000000       0x12 /usr/local/ps3dev/ppu/lib/gcc/powerpc64-ps3-elf/7.2.0/../../../../powerpc64-ps3-elf/lib/libc.a(lib_a-malloc.o)
 .comment       0x0000000000000000       0x12 /usr/local/ps3dev/ppu/lib/gcc/powerpc64-ps3-elf/7.2.0/../../../../powerpc64-ps3-elf/lib/libc.a(lib_a-mallocr.o)
 .comment       0x0000000000000000       0x12 /usr/local/ps3dev/ppu/lib/gcc/powerpc64-ps3-elf/7.2.0/../../../../powerpc64-ps3-elf/lib/libc.a(lib_a-memcpy.o)
 .comment       0x0000000000000000       0x12 /usr/local/ps3dev/ppu/lib/gcc/powerpc64-ps3-elf/7.2.0/../../../../powerpc64-ps3-elf/lib/libc.a(lib_a-memset.o)
 .comment       0x0000000000000000       0x12 /usr/local/ps3dev/ppu/lib/gcc/powerpc64-ps3-elf/7.2.0/../../../../powerpc64-ps3-elf/lib/libc.a(lib_a-mlock.o)
 .comment       0x0000000000000000       0x12 /usr/local/ps3dev/ppu/lib/gcc/powerpc64-ps3-elf/7.2.0/../../../../powerpc64-ps3-elf/lib/libc.a(lib_a-puts.o)
 .comment       0x0000000000000000       0x12 /usr/local/ps3dev/ppu/lib/gcc/powerpc64-ps3-elf/7.2.0/../../../../powerpc64-ps3-elf/lib/libc.a(lib_a-sscanf.o)
 .comment       0x0000000000000000       0x12 /usr/local/ps3dev/ppu/lib/gcc/powerpc64-ps3-elf/7.2.0/../../../../powerpc64-ps3-elf/lib/libc.a(lib_a-stdio.o)
 .comment       0x0000000000000000       0x12 /usr/local/ps3dev/ppu/lib/gcc/powerpc64-ps3-elf/7.2.0/../../../../powerpc64-ps3-elf/lib/libc.a(lib_a-strcasecmp.o)
 .comment       0x0000000000000000       0x12 /usr/local/ps3dev/ppu/lib/gcc/powerpc64-ps3-elf/7.2.0/../../../../powerpc64-ps3-elf/lib/libc.a(lib_a-strlen.o)
 .comment       0x0000000000000000       0x12 /usr/local/ps3dev/ppu/lib/gcc/powerpc64-ps3-elf/7.2.0/../../../../powerpc64-ps3-elf/lib/libc.a(lib_a-strncpy.o)
 .comment       0x0000000000000000       0x12 /usr/local/ps3dev/ppu/lib/gcc/powerpc64-ps3-elf/7.2.0/../../../../powerpc64-ps3-elf/lib/libc.a(lib_a-svfscanf.o)
 .comment       0x0000000000000000       0x12 /usr/local/ps3dev/ppu/lib/gcc/powerpc64-ps3-elf/7.2.0/../../../../powerpc64-ps3-elf/lib/libc.a(lib_a-vsnprintf.o)
 .comment       0x0000000000000000       0x12 /usr/local/ps3dev/ppu/lib/gcc/powerpc64-ps3-elf/7.2.0/../../../../powerpc64-ps3-elf/lib/libc.a(lib_a-vsprintf.o)
 .comment       0x0000000000000000       0x12 /usr/local/ps3dev/ppu/lib/gcc/powerpc64-ps3-elf/7.2.0/../../../../powerpc64-ps3-elf/lib/libc.a(lib_a-__atexit.o)
 .comment       0x0000000000000000       0x12 /usr/local/ps3dev/ppu/lib/gcc/powerpc64-ps3-elf/7.2.0/../../../../powerpc64-ps3-elf/lib/libc.a(lib_a-__call_atexit.o)
 .comment       0x0000000000000000       0x12 /usr/local/ps3dev/ppu/lib/gcc/powerpc64-ps3-elf/7.2.0/../../../../powerpc64-ps3-elf/lib/libc.a(lib_a-ctype_.o)
 .comment       0x0000000000000000       0x12 /usr/local/ps3dev/ppu/lib/gcc/powerpc64-ps3-elf/7.2.0/../../../../powerpc64-ps3-elf/lib/libc.a(lib_a-freer.o)
 .comment       0x0000000000000000       0x12 /usr/local/ps3dev/ppu/lib/gcc/powerpc64-ps3-elf/7.2.0/../../../../powerpc64-ps3-elf/lib/libc.a(lib_a-fvwrite.o)
 .comment       0x0000000000000000       0x12 /usr/local/ps3dev/ppu/lib/gcc/powerpc64-ps3-elf/7.2.0/../../../../powerpc64-ps3-elf/lib/libc.a(lib_a-iswspace.o)
 .comment       0x0000000000000000       0x12 /usr/local/ps3dev/ppu/lib/gcc/powerpc64-ps3-elf/7.2.0/../../../../powerpc64-ps3-elf/lib/libc.a(lib_a-locale.o)
 .comment       0x0000000000000000       0x12 /usr/local/ps3dev/ppu/lib/gcc/powerpc64-ps3-elf/7.2.0/../../../../powerpc64-ps3-elf/lib/libc.a(lib_a-lock_recursive.o)
 .comment       0x0000000000000000       0x12 /usr/local/ps3dev/ppu/lib/gcc/powerpc64-ps3-elf/7.2.0/../../../../powerpc64-ps3-elf/lib/libc.a(lib_a-mbrtowc.o)
 .comment       0x0000000000000000       0x12 /usr/local/ps3dev/ppu/lib/gcc/powerpc64-ps3-elf/7.2.0/../../../../powerpc64-ps3-elf/lib/libc.a(lib_a-mbtowc_r.o)
 .comment       0x0000000000000000       0x12 /usr/local/ps3dev/ppu/lib/gcc/powerpc64-ps3-elf/7.2.0/../../../../powerpc64-ps3-elf/lib/libc.a(lib_a-memchr.o)
 .comment       0x0000000000000000       0x12 /usr/local/ps3dev/ppu/lib/gcc/powerpc64-ps3-elf/7.2.0/../../../../powerpc64-ps3-elf/lib/libc.a(lib_a-memmove.o)
 .comment       0x0000000000000000       0x12 /usr/local/ps3dev/ppu/lib/gcc/powerpc64-ps3-elf/7.2.0/../../../../powerpc64-ps3-elf/lib/libc.a(lib_a-reallocr.o)
 .comment       0x0000000000000000       0x12 /usr/local/ps3dev/ppu/lib/gcc/powerpc64-ps3-elf/7.2.0/../../../../powerpc64-ps3-elf/lib/libc.a(lib_a-sccl.o)
 .comment       0x0000000000000000       0x12 /usr/local/ps3dev/ppu/lib/gcc/powerpc64-ps3-elf/7.2.0/../../../../powerpc64-ps3-elf/lib/libc.a(lib_a-sf_nan.o)
 .comment       0x0000000000000000       0x12 /usr/local/ps3dev/ppu/lib/gcc/powerpc64-ps3-elf/7.2.0/../../../../powerpc64-ps3-elf/lib/libc.a(lib_a-sprintf.o)
 .comment       0x0000000000000000       0x12 /usr/local/ps3dev/ppu/lib/gcc/powerpc64-ps3-elf/7.2.0/../../../../powerpc64-ps3-elf/lib/libc.a(lib_a-strcmp.o)
 .comment       0x0000000000000000       0x12 /usr/local/ps3dev/ppu/lib/gcc/powerpc64-ps3-elf/7.2.0/../../../../powerpc64-ps3-elf/lib/libc.a(lib_a-strtod.o)
 .comment       0x0000000000000000       0x12 /usr/local/ps3dev/ppu/lib/gcc/powerpc64-ps3-elf/7.2.0/../../../../powerpc64-ps3-elf/lib/libc.a(lib_a-strtol.o)
 .comment       0x0000000000000000       0x12 /usr/local/ps3dev/ppu/lib/gcc/powerpc64-ps3-elf/7.2.0/../../../../powerpc64-ps3-elf/lib/libc.a(lib_a-strtoll_r.o)
 .comment       0x0000000000000000       0x12 /usr/local/ps3dev/ppu/lib/gcc/powerpc64-ps3-elf/7.2.0/../../../../powerpc64-ps3-elf/lib/libc.a(lib_a-strtoul.o)
 .comment       0x0000000000000000       0x12 /usr/local/ps3dev/ppu/lib/gcc/powerpc64-ps3-elf/7.2.0/../../../../powerpc64-ps3-elf/lib/libc.a(lib_a-strtoull_r.o)
 .comment       0x0000000000000000       0x12 /usr/local/ps3dev/ppu/lib/gcc/powerpc64-ps3-elf/7.2.0/../../../../powerpc64-ps3-elf/lib/libc.a(lib_a-svfiscanf.o)
 .comment       0x0000000000000000       0x12 /usr/local/ps3dev/ppu/lib/gcc/powerpc64-ps3-elf/7.2.0/../../../../powerpc64-ps3-elf/lib/libc.a(lib_a-svfprintf.o)
 .comment       0x0000000000000000       0x12 /usr/local/ps3dev/ppu/lib/gcc/powerpc64-ps3-elf/7.2.0/../../../../powerpc64-ps3-elf/lib/libc.a(lib_a-ungetc.o)
 .comment       0x0000000000000000       0x12 /usr/local/ps3dev/ppu/lib/gcc/powerpc64-ps3-elf/7.2.0/../../../../powerpc64-ps3-elf/lib/libc.a(lib_a-wsetup.o)
 .comment       0x0000000000000000       0x12 /usr/local/ps3dev/ppu/lib/gcc/powerpc64-ps3-elf/7.2.0/../../../../powerpc64-ps3-elf/lib/libc.a(lib_a-dtoa.o)
 .comment       0x0000000000000000       0x12 /usr/local/ps3dev/ppu/lib/gcc/powerpc64-ps3-elf/7.2.0/../../../../powerpc64-ps3-elf/lib/libc.a(lib_a-fflush.o)
 .comment       0x0000000000000000       0x12 /usr/local/ps3dev/ppu/lib/gcc/powerpc64-ps3-elf/7.2.0/../../../../powerpc64-ps3-elf/lib/libc.a(lib_a-findfp.o)
 .comment       0x0000000000000000       0x12 /usr/local/ps3dev/ppu/lib/gcc/powerpc64-ps3-elf/7.2.0/../../../../powerpc64-ps3-elf/lib/libc.a(lib_a-fwalk.o)
 .comment       0x0000000000000000       0x12 /usr/local/ps3dev/ppu/lib/gcc/powerpc64-ps3-elf/7.2.0/../../../../powerpc64-ps3-elf/lib/libc.a(lib_a-gdtoa-gethex.o)
 .comment       0x0000000000000000       0x12 /usr/local/ps3dev/ppu/lib/gcc/powerpc64-ps3-elf/7.2.0/../../../../powerpc64-ps3-elf/lib/libc.a(lib_a-gdtoa-hexnan.o)
 .comment       0x0000000000000000       0x12 /usr/local/ps3dev/ppu/lib/gcc/powerpc64-ps3-elf/7.2.0/../../../../powerpc64-ps3-elf/lib/libc.a(lib_a-lock_internal.o)
 .comment       0x0000000000000000       0x12 /usr/local/ps3dev/ppu/lib/gcc/powerpc64-ps3-elf/7.2.0/../../../../powerpc64-ps3-elf/lib/libc.a(lib_a-makebuf.o)
 .comment       0x0000000000000000       0x12 /usr/local/ps3dev/ppu/lib/gcc/powerpc64-ps3-elf/7.2.0/../../../../powerpc64-ps3-elf/lib/libc.a(lib_a-mprec.o)
 .comment       0x0000000000000000       0x12 /usr/local/ps3dev/ppu/lib/gcc/powerpc64-ps3-elf/7.2.0/../../../../powerpc64-ps3-elf/lib/libc.a(lib_a-strncmp.o)
 .comment       0x0000000000000000       0x12 /usr/local/ps3dev/ppu/lib/gcc/powerpc64-ps3-elf/7.2.0/../../../../powerpc64-ps3-elf/lib/libc.a(lib_a-svfiprintf.o)
 .comment       0x0000000000000000       0x12 /usr/local/ps3dev/ppu/lib/gcc/powerpc64-ps3-elf/7.2.0/../../../../powerpc64-ps3-elf/lib/libc.a(lib_a-abort.o)
 .comment       0x0000000000000000       0x12 /usr/local/ps3dev/ppu/lib/gcc/powerpc64-ps3-elf/7.2.0/../../../../powerpc64-ps3-elf/lib/libc.a(lib_a-fclose.o)
 .comment       0x0000000000000000       0x12 /usr/local/ps3dev/ppu/lib/gcc/powerpc64-ps3-elf/7.2.0/../../../../powerpc64-ps3-elf/lib/libc.a(lib_a-signal.o)
 .comment       0x0000000000000000       0x12 /usr/local/ps3dev/ppu/lib/gcc/powerpc64-ps3-elf/7.2.0/../../../../powerpc64-ps3-elf/lib/libsysbase.a(close.o)
 .comment       0x0000000000000000       0x12 /usr/local/ps3dev/ppu/lib/gcc/powerpc64-ps3-elf/7.2.0/../../../../powerpc64-ps3-elf/lib/libsysbase.a(sbrk.o)
 .comment       0x0000000000000000       0x12 /usr/local/ps3dev/ppu/lib/gcc/powerpc64-ps3-elf/7.2.0/../../../../powerpc64-ps3-elf/lib/libsysbase.a(_exit.o)
 .comment       0x0000000000000000       0x12 /usr/local/ps3dev/ppu/lib/gcc/powerpc64-ps3-elf/7.2.0/../../../../powerpc64-ps3-elf/lib/libsysbase.a(fstat.o)
 .comment       0x0000000000000000       0x12 /usr/local/ps3dev/ppu/lib/gcc/powerpc64-ps3-elf/7.2.0/../../../../powerpc64-ps3-elf/lib/libsysbase.a(isatty.o)
 .comment       0x0000000000000000       0x12 /usr/local/ps3dev/ppu/lib/gcc/powerpc64-ps3-elf/7.2.0/../../../../powerpc64-ps3-elf/lib/libsysbase.a(lseek.o)
 .comment       0x0000000000000000       0x12 /usr/local/ps3dev/ppu/lib/gcc/powerpc64-ps3-elf/7.2.0/../../../../powerpc64-ps3-elf/lib/libsysbase.a(read.o)
 .comment       0x0000000000000000       0x12 /usr/local/ps3dev/ppu/lib/gcc/powerpc64-ps3-elf/7.2.0/../../../../powerpc64-ps3-elf/lib/libsysbase.a(write.o)
 .comment       0x0000000000000000       0x12 /usr/local/ps3dev/ppu/lib/gcc/powerpc64-ps3-elf/7.2.0/../../../../powerpc64-ps3-elf/lib/libsysbase.a(lock.o)
 .comment       0x0000000000000000       0x12 /usr/local/ps3dev/ppu/lib/gcc/powerpc64-ps3-elf/7.2.0/../../../../powerpc64-ps3-elf/lib/libsysbase.a(getpid.o)
 .comment       0x0000000000000000       0x12 /usr/local/ps3dev/ppu/lib/gcc/powerpc64-ps3-elf/7.2.0/../../../../powerpc64-ps3-elf/lib/libsysbase.a(kill.o)
 .comment       0x0000000000000000       0x12 /usr/local/ps3dev/ppu/lib/gcc/powerpc64-ps3-elf/7.2.0/crtend.o

.debug
 *(.debug)

.line
 *(.line)

.debug_srcinfo
 *(.debug_srcinfo)

.debug_sfnames
 *(.debug_sfnames)

.debug_aranges  0x0000000000000000     0x1730
 *(.debug_aranges)
 .debug_aranges
                0x0000000000000000       0x30 /usr/local/ps3dev/ppu/lib/gcc/powerpc64-ps3-elf/7.2.0/../../../../powerpc64-ps3-elf/lib/libm.a(lib_a-sf_cos.o)
 .debug_aranges
                0x0000000000000030       0x30 /usr/local/ps3dev/ppu/lib/gcc/powerpc64-ps3-elf/7.2.0/../../../../powerpc64-ps3-elf/lib/libm.a(lib_a-sf_sin.o)
 .debug_aranges
                0x0000000000000060       0x30 /usr/local/ps3dev/ppu/lib/gcc/powerpc64-ps3-elf/7.2.0/../../../../powerpc64-ps3-elf/lib/libm.a(lib_a-sf_tan.o)
 .debug_aranges
                0x0000000000000090       0x30 /usr/local/ps3dev/ppu/lib/gcc/powerpc64-ps3-elf/7.2.0/../../../../powerpc64-ps3-elf/lib/libm.a(lib_a-w_sqrt.o)
 .debug_aranges
                0x00000000000000c0       0x30 /usr/local/ps3dev/ppu/lib/gcc/powerpc64-ps3-elf/7.2.0/../../../../powerpc64-ps3-elf/lib/libm.a(lib_a-wf_sqrt.o)
 .debug_aranges
                0x00000000000000f0       0x30 /usr/local/ps3dev/ppu/lib/gcc/powerpc64-ps3-elf/7.2.0/../../../../powerpc64-ps3-elf/lib/libm.a(lib_a-e_sqrt.o)
 .debug_aranges
                0x0000000000000120       0x30 /usr/local/ps3dev/ppu/lib/gcc/powerpc64-ps3-elf/7.2.0/../../../../powerpc64-ps3-elf/lib/libm.a(lib_a-ef_rem_pio2.o)
 .debug_aranges
                0x0000000000000150       0x30 /usr/local/ps3dev/ppu/lib/gcc/powerpc64-ps3-elf/7.2.0/../../../../powerpc64-ps3-elf/lib/libm.a(lib_a-ef_sqrt.o)
 .debug_aranges
                0x0000000000000180       0x30 /usr/local/ps3dev/ppu/lib/gcc/powerpc64-ps3-elf/7.2.0/../../../../powerpc64-ps3-elf/lib/libm.a(lib_a-kf_cos.o)
 .debug_aranges
                0x00000000000001b0       0x30 /usr/local/ps3dev/ppu/lib/gcc/powerpc64-ps3-elf/7.2.0/../../../../powerpc64-ps3-elf/lib/libm.a(lib_a-kf_rem_pio2.o)
 .debug_aranges
                0x00000000000001e0       0x30 /usr/local/ps3dev/ppu/lib/gcc/powerpc64-ps3-elf/7.2.0/../../../../powerpc64-ps3-elf/lib/libm.a(lib_a-kf_sin.o)
 .debug_aranges
                0x0000000000000210       0x30 /usr/local/ps3dev/ppu/lib/gcc/powerpc64-ps3-elf/7.2.0/../../../../powerpc64-ps3-elf/lib/libm.a(lib_a-kf_tan.o)
 .debug_aranges
                0x0000000000000240       0x30 /usr/local/ps3dev/ppu/lib/gcc/powerpc64-ps3-elf/7.2.0/../../../../powerpc64-ps3-elf/lib/libm.a(lib_a-s_fpclassify.o)
 .debug_aranges
                0x0000000000000270       0x20 /usr/local/ps3dev/ppu/lib/gcc/powerpc64-ps3-elf/7.2.0/../../../../powerpc64-ps3-elf/lib/libm.a(lib_a-s_lib_ver.o)
 .debug_aranges
                0x0000000000000290       0x30 /usr/local/ps3dev/ppu/lib/gcc/powerpc64-ps3-elf/7.2.0/../../../../powerpc64-ps3-elf/lib/libm.a(lib_a-s_matherr.o)
 .debug_aranges
                0x00000000000002c0       0x30 /usr/local/ps3dev/ppu/lib/gcc/powerpc64-ps3-elf/7.2.0/../../../../powerpc64-ps3-elf/lib/libm.a(lib_a-sf_fabs.o)
 .debug_aranges
                0x00000000000002f0       0x30 /usr/local/ps3dev/ppu/lib/gcc/powerpc64-ps3-elf/7.2.0/../../../../powerpc64-ps3-elf/lib/libm.a(lib_a-sf_floor.o)
 .debug_aranges
                0x0000000000000320       0x30 /usr/local/ps3dev/ppu/lib/gcc/powerpc64-ps3-elf/7.2.0/../../../../powerpc64-ps3-elf/lib/libm.a(lib_a-sf_fpclassify.o)
 .debug_aranges
                0x0000000000000350       0x30 /usr/local/ps3dev/ppu/lib/gcc/powerpc64-ps3-elf/7.2.0/../../../../powerpc64-ps3-elf/lib/libm.a(lib_a-sf_scalbn.o)
 .debug_aranges
                0x0000000000000380       0x30 /usr/local/ps3dev/ppu/lib/gcc/powerpc64-ps3-elf/7.2.0/../../../../powerpc64-ps3-elf/lib/libm.a(lib_a-sf_copysign.o)
 .debug_aranges
                0x00000000000003b0       0x20 /usr/local/ps3dev/ppu/lib/gcc/powerpc64-ps3-elf/7.2.0/../../../../powerpc64-ps3-elf/lib/libsysbase.a(syscalls.o)
 .debug_aranges
                0x00000000000003d0       0x40 /usr/local/ps3dev/ppu/lib/gcc/powerpc64-ps3-elf/7.2.0/../../../../powerpc64-ps3-elf/lib/libsysbase.a(sleep.o)
 .debug_aranges
                0x0000000000000410       0x30 /usr/local/ps3dev/ppu/lib/gcc/powerpc64-ps3-elf/7.2.0/../../../../powerpc64-ps3-elf/lib/libc.a(lib_a-atexit.o)
 .debug_aranges
                0x0000000000000440       0x30 /usr/local/ps3dev/ppu/lib/gcc/powerpc64-ps3-elf/7.2.0/../../../../powerpc64-ps3-elf/lib/libc.a(lib_a-calloc.o)
 .debug_aranges
                0x0000000000000470       0x30 /usr/local/ps3dev/ppu/lib/gcc/powerpc64-ps3-elf/7.2.0/../../../../powerpc64-ps3-elf/lib/libc.a(lib_a-callocr.o)
 .debug_aranges
                0x00000000000004a0       0x30 /usr/local/ps3dev/ppu/lib/gcc/powerpc64-ps3-elf/7.2.0/../../../../powerpc64-ps3-elf/lib/libc.a(lib_a-errno.o)
 .debug_aranges
                0x00000000000004d0       0x30 /usr/local/ps3dev/ppu/lib/gcc/powerpc64-ps3-elf/7.2.0/../../../../powerpc64-ps3-elf/lib/libc.a(lib_a-exit.o)
 .debug_aranges
                0x0000000000000500       0x30 /usr/local/ps3dev/ppu/lib/gcc/powerpc64-ps3-elf/7.2.0/../../../../powerpc64-ps3-elf/lib/libc.a(lib_a-getreent.o)
 .debug_aranges
                0x0000000000000530       0x20 /usr/local/ps3dev/ppu/lib/gcc/powerpc64-ps3-elf/7.2.0/../../../../powerpc64-ps3-elf/lib/libc.a(lib_a-impure.o)
 .debug_aranges
                0x0000000000000550       0x30 /usr/local/ps3dev/ppu/lib/gcc/powerpc64-ps3-elf/7.2.0/../../../../powerpc64-ps3-elf/lib/libc.a(lib_a-malign.o)
 .debug_aranges
                0x0000000000000580       0x30 /usr/local/ps3dev/ppu/lib/gcc/powerpc64-ps3-elf/7.2.0/../../../../powerpc64-ps3-elf/lib/libc.a(lib_a-malignr.o)
 .debug_aranges
                0x00000000000005b0       0x40 /usr/local/ps3dev/ppu/lib/gcc/powerpc64-ps3-elf/7.2.0/../../../../powerpc64-ps3-elf/lib/libc.a(lib_a-malloc.o)
 .debug_aranges
                0x00000000000005f0       0x30 /usr/local/ps3dev/ppu/lib/gcc/powerpc64-ps3-elf/7.2.0/../../../../powerpc64-ps3-elf/lib/libc.a(lib_a-mallocr.o)
 .debug_aranges
                0x0000000000000620       0x30 /usr/local/ps3dev/ppu/lib/gcc/powerpc64-ps3-elf/7.2.0/../../../../powerpc64-ps3-elf/lib/libc.a(lib_a-memcpy.o)
 .debug_aranges
                0x0000000000000650       0x30 /usr/local/ps3dev/ppu/lib/gcc/powerpc64-ps3-elf/7.2.0/../../../../powerpc64-ps3-elf/lib/libc.a(lib_a-memset.o)
 .debug_aranges
                0x0000000000000680       0x40 /usr/local/ps3dev/ppu/lib/gcc/powerpc64-ps3-elf/7.2.0/../../../../powerpc64-ps3-elf/lib/libc.a(lib_a-mlock.o)
 .debug_aranges
                0x00000000000006c0       0x40 /usr/local/ps3dev/ppu/lib/gcc/powerpc64-ps3-elf/7.2.0/../../../../powerpc64-ps3-elf/lib/libc.a(lib_a-puts.o)
 .debug_aranges
                0x0000000000000700       0x40 /usr/local/ps3dev/ppu/lib/gcc/powerpc64-ps3-elf/7.2.0/../../../../powerpc64-ps3-elf/lib/libc.a(lib_a-sscanf.o)
 .debug_aranges
                0x0000000000000740       0x70 /usr/local/ps3dev/ppu/lib/gcc/powerpc64-ps3-elf/7.2.0/../../../../powerpc64-ps3-elf/lib/libc.a(lib_a-stdio.o)
 .debug_aranges
                0x00000000000007b0       0x30 /usr/local/ps3dev/ppu/lib/gcc/powerpc64-ps3-elf/7.2.0/../../../../powerpc64-ps3-elf/lib/libc.a(lib_a-strcasecmp.o)
 .debug_aranges
                0x00000000000007e0       0x30 /usr/local/ps3dev/ppu/lib/gcc/powerpc64-ps3-elf/7.2.0/../../../../powerpc64-ps3-elf/lib/libc.a(lib_a-strlen.o)
 .debug_aranges
                0x0000000000000810       0x30 /usr/local/ps3dev/ppu/lib/gcc/powerpc64-ps3-elf/7.2.0/../../../../powerpc64-ps3-elf/lib/libc.a(lib_a-strncpy.o)
 .debug_aranges
                0x0000000000000840       0x30 /usr/local/ps3dev/ppu/lib/gcc/powerpc64-ps3-elf/7.2.0/../../../../powerpc64-ps3-elf/lib/libc.a(lib_a-svfscanf.o)
 .debug_aranges
                0x0000000000000870       0x40 /usr/local/ps3dev/ppu/lib/gcc/powerpc64-ps3-elf/7.2.0/../../../../powerpc64-ps3-elf/lib/libc.a(lib_a-vsnprintf.o)
 .debug_aranges
                0x00000000000008b0       0x40 /usr/local/ps3dev/ppu/lib/gcc/powerpc64-ps3-elf/7.2.0/../../../../powerpc64-ps3-elf/lib/libc.a(lib_a-vsprintf.o)
 .debug_aranges
                0x00000000000008f0       0x30 /usr/local/ps3dev/ppu/lib/gcc/powerpc64-ps3-elf/7.2.0/../../../../powerpc64-ps3-elf/lib/libc.a(lib_a-__atexit.o)
 .debug_aranges
                0x0000000000000920       0x30 /usr/local/ps3dev/ppu/lib/gcc/powerpc64-ps3-elf/7.2.0/../../../../powerpc64-ps3-elf/lib/libc.a(lib_a-__call_atexit.o)
 .debug_aranges
                0x0000000000000950       0x20 /usr/local/ps3dev/ppu/lib/gcc/powerpc64-ps3-elf/7.2.0/../../../../powerpc64-ps3-elf/lib/libc.a(lib_a-ctype_.o)
 .debug_aranges
                0x0000000000000970       0x40 /usr/local/ps3dev/ppu/lib/gcc/powerpc64-ps3-elf/7.2.0/../../../../powerpc64-ps3-elf/lib/libc.a(lib_a-freer.o)
 .debug_aranges
                0x00000000000009b0       0x30 /usr/local/ps3dev/ppu/lib/gcc/powerpc64-ps3-elf/7.2.0/../../../../powerpc64-ps3-elf/lib/libc.a(lib_a-fvwrite.o)
 .debug_aranges
                0x00000000000009e0       0x30 /usr/local/ps3dev/ppu/lib/gcc/powerpc64-ps3-elf/7.2.0/../../../../powerpc64-ps3-elf/lib/libc.a(lib_a-iswspace.o)
 .debug_aranges
                0x0000000000000a10       0xa0 /usr/local/ps3dev/ppu/lib/gcc/powerpc64-ps3-elf/7.2.0/../../../../powerpc64-ps3-elf/lib/libc.a(lib_a-locale.o)
 .debug_aranges
                0x0000000000000ab0       0x70 /usr/local/ps3dev/ppu/lib/gcc/powerpc64-ps3-elf/7.2.0/../../../../powerpc64-ps3-elf/lib/libc.a(lib_a-lock_recursive.o)
 .debug_aranges
                0x0000000000000b20       0x40 /usr/local/ps3dev/ppu/lib/gcc/powerpc64-ps3-elf/7.2.0/../../../../powerpc64-ps3-elf/lib/libc.a(lib_a-mbrtowc.o)
 .debug_aranges
                0x0000000000000b60       0x40 /usr/local/ps3dev/ppu/lib/gcc/powerpc64-ps3-elf/7.2.0/../../../../powerpc64-ps3-elf/lib/libc.a(lib_a-mbtowc_r.o)
 .debug_aranges
                0x0000000000000ba0       0x30 /usr/local/ps3dev/ppu/lib/gcc/powerpc64-ps3-elf/7.2.0/../../../../powerpc64-ps3-elf/lib/libc.a(lib_a-memchr.o)
 .debug_aranges
                0x0000000000000bd0       0x30 /usr/local/ps3dev/ppu/lib/gcc/powerpc64-ps3-elf/7.2.0/../../../../powerpc64-ps3-elf/lib/libc.a(lib_a-memmove.o)
 .debug_aranges
                0x0000000000000c00       0x30 /usr/local/ps3dev/ppu/lib/gcc/powerpc64-ps3-elf/7.2.0/../../../../powerpc64-ps3-elf/lib/libc.a(lib_a-reallocr.o)
 .debug_aranges
                0x0000000000000c30       0x30 /usr/local/ps3dev/ppu/lib/gcc/powerpc64-ps3-elf/7.2.0/../../../../powerpc64-ps3-elf/lib/libc.a(lib_a-sccl.o)
 .debug_aranges
                0x0000000000000c60       0x30 /usr/local/ps3dev/ppu/lib/gcc/powerpc64-ps3-elf/7.2.0/../../../../powerpc64-ps3-elf/lib/libc.a(lib_a-sf_nan.o)
 .debug_aranges
                0x0000000000000c90       0x40 /usr/local/ps3dev/ppu/lib/gcc/powerpc64-ps3-elf/7.2.0/../../../../powerpc64-ps3-elf/lib/libc.a(lib_a-sprintf.o)
 .debug_aranges
                0x0000000000000cd0       0x30 /usr/local/ps3dev/ppu/lib/gcc/powerpc64-ps3-elf/7.2.0/../../../../powerpc64-ps3-elf/lib/libc.a(lib_a-strcmp.o)
 .debug_aranges
                0x0000000000000d00       0x50 /usr/local/ps3dev/ppu/lib/gcc/powerpc64-ps3-elf/7.2.0/../../../../powerpc64-ps3-elf/lib/libc.a(lib_a-strtod.o)
 .debug_aranges
                0x0000000000000d50       0x40 /usr/local/ps3dev/ppu/lib/gcc/powerpc64-ps3-elf/7.2.0/../../../../powerpc64-ps3-elf/lib/libc.a(lib_a-strtol.o)
 .debug_aranges
                0x0000000000000d90       0x30 /usr/local/ps3dev/ppu/lib/gcc/powerpc64-ps3-elf/7.2.0/../../../../powerpc64-ps3-elf/lib/libc.a(lib_a-strtoll_r.o)
 .debug_aranges
                0x0000000000000dc0       0x40 /usr/local/ps3dev/ppu/lib/gcc/powerpc64-ps3-elf/7.2.0/../../../../powerpc64-ps3-elf/lib/libc.a(lib_a-strtoul.o)
 .debug_aranges
                0x0000000000000e00       0x30 /usr/local/ps3dev/ppu/lib/gcc/powerpc64-ps3-elf/7.2.0/../../../../powerpc64-ps3-elf/lib/libc.a(lib_a-strtoull_r.o)
 .debug_aranges
                0x0000000000000e30       0x60 /usr/local/ps3dev/ppu/lib/gcc/powerpc64-ps3-elf/7.2.0/../../../../powerpc64-ps3-elf/lib/libc.a(lib_a-svfiscanf.o)
 .debug_aranges
                0x0000000000000e90       0x30 /usr/local/ps3dev/ppu/lib/gcc/powerpc64-ps3-elf/7.2.0/../../../../powerpc64-ps3-elf/lib/libc.a(lib_a-svfprintf.o)
 .debug_aranges
                0x0000000000000ec0       0x50 /usr/local/ps3dev/ppu/lib/gcc/powerpc64-ps3-elf/7.2.0/../../../../powerpc64-ps3-elf/lib/libc.a(lib_a-ungetc.o)
 .debug_aranges
                0x0000000000000f10       0x30 /usr/local/ps3dev/ppu/lib/gcc/powerpc64-ps3-elf/7.2.0/../../../../powerpc64-ps3-elf/lib/libc.a(lib_a-wsetup.o)
 .debug_aranges
                0x0000000000000f40       0x40 /usr/local/ps3dev/ppu/lib/gcc/powerpc64-ps3-elf/7.2.0/../../../../powerpc64-ps3-elf/lib/libc.a(lib_a-dtoa.o)
 .debug_aranges
                0x0000000000000f80       0x50 /usr/local/ps3dev/ppu/lib/gcc/powerpc64-ps3-elf/7.2.0/../../../../powerpc64-ps3-elf/lib/libc.a(lib_a-fflush.o)
 .debug_aranges
                0x0000000000000fd0      0x100 /usr/local/ps3dev/ppu/lib/gcc/powerpc64-ps3-elf/7.2.0/../../../../powerpc64-ps3-elf/lib/libc.a(lib_a-findfp.o)
 .debug_aranges
                0x00000000000010d0       0x40 /usr/local/ps3dev/ppu/lib/gcc/powerpc64-ps3-elf/7.2.0/../../../../powerpc64-ps3-elf/lib/libc.a(lib_a-fwalk.o)
 .debug_aranges
                0x0000000000001110       0x50 /usr/local/ps3dev/ppu/lib/gcc/powerpc64-ps3-elf/7.2.0/../../../../powerpc64-ps3-elf/lib/libc.a(lib_a-gdtoa-gethex.o)
 .debug_aranges
                0x0000000000001160       0x30 /usr/local/ps3dev/ppu/lib/gcc/powerpc64-ps3-elf/7.2.0/../../../../powerpc64-ps3-elf/lib/libc.a(lib_a-gdtoa-hexnan.o)
 .debug_aranges
                0x0000000000001190       0x40 /usr/local/ps3dev/ppu/lib/gcc/powerpc64-ps3-elf/7.2.0/../../../../powerpc64-ps3-elf/lib/libc.a(lib_a-lock_internal.o)
 .debug_aranges
                0x00000000000011d0       0x30 /usr/local/ps3dev/ppu/lib/gcc/powerpc64-ps3-elf/7.2.0/../../../../powerpc64-ps3-elf/lib/libc.a(lib_a-makebuf.o)
 .debug_aranges
                0x0000000000001200      0x150 /usr/local/ps3dev/ppu/lib/gcc/powerpc64-ps3-elf/7.2.0/../../../../powerpc64-ps3-elf/lib/libc.a(lib_a-mprec.o)
 .debug_aranges
                0x0000000000001350       0x30 /usr/local/ps3dev/ppu/lib/gcc/powerpc64-ps3-elf/7.2.0/../../../../powerpc64-ps3-elf/lib/libc.a(lib_a-strncmp.o)
 .debug_aranges
                0x0000000000001380       0x40 /usr/local/ps3dev/ppu/lib/gcc/powerpc64-ps3-elf/7.2.0/../../../../powerpc64-ps3-elf/lib/libc.a(lib_a-svfiprintf.o)
 .debug_aranges
                0x00000000000013c0       0x30 /usr/local/ps3dev/ppu/lib/gcc/powerpc64-ps3-elf/7.2.0/../../../../powerpc64-ps3-elf/lib/libc.a(lib_a-abort.o)
 .debug_aranges
                0x00000000000013f0       0x40 /usr/local/ps3dev/ppu/lib/gcc/powerpc64-ps3-elf/7.2.0/../../../../powerpc64-ps3-elf/lib/libc.a(lib_a-fclose.o)
 .debug_aranges
                0x0000000000001430       0xb0 /usr/local/ps3dev/ppu/lib/gcc/powerpc64-ps3-elf/7.2.0/../../../../powerpc64-ps3-elf/lib/libc.a(lib_a-signal.o)
 .debug_aranges
                0x00000000000014e0       0x30 /usr/local/ps3dev/ppu/lib/gcc/powerpc64-ps3-elf/7.2.0/../../../../powerpc64-ps3-elf/lib/libsysbase.a(close.o)
 .debug_aranges
                0x0000000000001510       0x30 /usr/local/ps3dev/ppu/lib/gcc/powerpc64-ps3-elf/7.2.0/../../../../powerpc64-ps3-elf/lib/libsysbase.a(sbrk.o)
 .debug_aranges
                0x0000000000001540       0x30 /usr/local/ps3dev/ppu/lib/gcc/powerpc64-ps3-elf/7.2.0/../../../../powerpc64-ps3-elf/lib/libsysbase.a(_exit.o)
 .debug_aranges
                0x0000000000001570       0x30 /usr/local/ps3dev/ppu/lib/gcc/powerpc64-ps3-elf/7.2.0/../../../../powerpc64-ps3-elf/lib/libsysbase.a(fstat.o)
 .debug_aranges
                0x00000000000015a0       0x30 /usr/local/ps3dev/ppu/lib/gcc/powerpc64-ps3-elf/7.2.0/../../../../powerpc64-ps3-elf/lib/libsysbase.a(isatty.o)
 .debug_aranges
                0x00000000000015d0       0x30 /usr/local/ps3dev/ppu/lib/gcc/powerpc64-ps3-elf/7.2.0/../../../../powerpc64-ps3-elf/lib/libsysbase.a(lseek.o)
 .debug_aranges
                0x0000000000001600       0x30 /usr/local/ps3dev/ppu/lib/gcc/powerpc64-ps3-elf/7.2.0/../../../../powerpc64-ps3-elf/lib/libsysbase.a(read.o)
 .debug_aranges
                0x0000000000001630       0x30 /usr/local/ps3dev/ppu/lib/gcc/powerpc64-ps3-elf/7.2.0/../../../../powerpc64-ps3-elf/lib/libsysbase.a(write.o)
 .debug_aranges
                0x0000000000001660       0x70 /usr/local/ps3dev/ppu/lib/gcc/powerpc64-ps3-elf/7.2.0/../../../../powerpc64-ps3-elf/lib/libsysbase.a(lock.o)
 .debug_aranges
                0x00000000000016d0       0x30 /usr/local/ps3dev/ppu/lib/gcc/powerpc64-ps3-elf/7.2.0/../../../../powerpc64-ps3-elf/lib/libsysbase.a(getpid.o)
 .debug_aranges
                0x0000000000001700       0x30 /usr/local/ps3dev/ppu/lib/gcc/powerpc64-ps3-elf/7.2.0/../../../../powerpc64-ps3-elf/lib/libsysbase.a(kill.o)

.debug_pubnames
 *(.debug_pubnames)

.debug_info     0x0000000000000000    0x4e29b
 *(.debug_info .gnu.linkonce.wi.*)
 .debug_info    0x0000000000000000      0xaa9 /usr/local/ps3dev/ppu/lib/gcc/powerpc64-ps3-elf/7.2.0/../../../../powerpc64-ps3-elf/lib/libm.a(lib_a-sf_cos.o)
 .debug_info    0x0000000000000aa9      0xa95 /usr/local/ps3dev/ppu/lib/gcc/powerpc64-ps3-elf/7.2.0/../../../../powerpc64-ps3-elf/lib/libm.a(lib_a-sf_sin.o)
 .debug_info    0x000000000000153e      0xa4f /usr/local/ps3dev/ppu/lib/gcc/powerpc64-ps3-elf/7.2.0/../../../../powerpc64-ps3-elf/lib/libm.a(lib_a-sf_tan.o)
 .debug_info    0x0000000000001f8d      0xa91 /usr/local/ps3dev/ppu/lib/gcc/powerpc64-ps3-elf/7.2.0/../../../../powerpc64-ps3-elf/lib/libm.a(lib_a-w_sqrt.o)
 .debug_info    0x0000000000002a1e      0xa92 /usr/local/ps3dev/ppu/lib/gcc/powerpc64-ps3-elf/7.2.0/../../../../powerpc64-ps3-elf/lib/libm.a(lib_a-wf_sqrt.o)
 .debug_info    0x00000000000034b0      0xad0 /usr/local/ps3dev/ppu/lib/gcc/powerpc64-ps3-elf/7.2.0/../../../../powerpc64-ps3-elf/lib/libm.a(lib_a-e_sqrt.o)
 .debug_info    0x0000000000003f80      0xc34 /usr/local/ps3dev/ppu/lib/gcc/powerpc64-ps3-elf/7.2.0/../../../../powerpc64-ps3-elf/lib/libm.a(lib_a-ef_rem_pio2.o)
 .debug_info    0x0000000000004bb4      0xa6c /usr/local/ps3dev/ppu/lib/gcc/powerpc64-ps3-elf/7.2.0/../../../../powerpc64-ps3-elf/lib/libm.a(lib_a-ef_sqrt.o)
 .debug_info    0x0000000000005620      0xa95 /usr/local/ps3dev/ppu/lib/gcc/powerpc64-ps3-elf/7.2.0/../../../../powerpc64-ps3-elf/lib/libm.a(lib_a-kf_cos.o)
 .debug_info    0x00000000000060b5      0xc67 /usr/local/ps3dev/ppu/lib/gcc/powerpc64-ps3-elf/7.2.0/../../../../powerpc64-ps3-elf/lib/libm.a(lib_a-kf_rem_pio2.o)
 .debug_info    0x0000000000006d1c      0xa6b /usr/local/ps3dev/ppu/lib/gcc/powerpc64-ps3-elf/7.2.0/../../../../powerpc64-ps3-elf/lib/libm.a(lib_a-kf_sin.o)
 .debug_info    0x0000000000007787      0xb61 /usr/local/ps3dev/ppu/lib/gcc/powerpc64-ps3-elf/7.2.0/../../../../powerpc64-ps3-elf/lib/libm.a(lib_a-kf_tan.o)
 .debug_info    0x00000000000082e8      0x9dc /usr/local/ps3dev/ppu/lib/gcc/powerpc64-ps3-elf/7.2.0/../../../../powerpc64-ps3-elf/lib/libm.a(lib_a-s_fpclassify.o)
 .debug_info    0x0000000000008cc4      0x930 /usr/local/ps3dev/ppu/lib/gcc/powerpc64-ps3-elf/7.2.0/../../../../powerpc64-ps3-elf/lib/libm.a(lib_a-s_lib_ver.o)
 .debug_info    0x00000000000095f4      0x9c7 /usr/local/ps3dev/ppu/lib/gcc/powerpc64-ps3-elf/7.2.0/../../../../powerpc64-ps3-elf/lib/libm.a(lib_a-s_matherr.o)
 .debug_info    0x0000000000009fbb      0x9bc /usr/local/ps3dev/ppu/lib/gcc/powerpc64-ps3-elf/7.2.0/../../../../powerpc64-ps3-elf/lib/libm.a(lib_a-sf_fabs.o)
 .debug_info    0x000000000000a977      0xa0d /usr/local/ps3dev/ppu/lib/gcc/powerpc64-ps3-elf/7.2.0/../../../../powerpc64-ps3-elf/lib/libm.a(lib_a-sf_floor.o)
 .debug_info    0x000000000000b384      0x9a8 /usr/local/ps3dev/ppu/lib/gcc/powerpc64-ps3-elf/7.2.0/../../../../powerpc64-ps3-elf/lib/libm.a(lib_a-sf_fpclassify.o)
 .debug_info    0x000000000000bd2c      0xab6 /usr/local/ps3dev/ppu/lib/gcc/powerpc64-ps3-elf/7.2.0/../../../../powerpc64-ps3-elf/lib/libm.a(lib_a-sf_scalbn.o)
 .debug_info    0x000000000000c7e2      0x9e5 /usr/local/ps3dev/ppu/lib/gcc/powerpc64-ps3-elf/7.2.0/../../../../powerpc64-ps3-elf/lib/libm.a(lib_a-sf_copysign.o)
 .debug_info    0x000000000000d1c7     0x13ed /usr/local/ps3dev/ppu/lib/gcc/powerpc64-ps3-elf/7.2.0/../../../../powerpc64-ps3-elf/lib/libsysbase.a(syscalls.o)
 .debug_info    0x000000000000e5b4     0x14d7 /usr/local/ps3dev/ppu/lib/gcc/powerpc64-ps3-elf/7.2.0/../../../../powerpc64-ps3-elf/lib/libsysbase.a(sleep.o)
 .debug_info    0x000000000000fa8b      0x96d /usr/local/ps3dev/ppu/lib/gcc/powerpc64-ps3-elf/7.2.0/../../../../powerpc64-ps3-elf/lib/libc.a(lib_a-atexit.o)
 .debug_info    0x00000000000103f8      0x971 /usr/local/ps3dev/ppu/lib/gcc/powerpc64-ps3-elf/7.2.0/../../../../powerpc64-ps3-elf/lib/libc.a(lib_a-calloc.o)
 .debug_info    0x0000000000010d69      0xbc9 /usr/local/ps3dev/ppu/lib/gcc/powerpc64-ps3-elf/7.2.0/../../../../powerpc64-ps3-elf/lib/libc.a(lib_a-callocr.o)
 .debug_info    0x0000000000011932      0x94b /usr/local/ps3dev/ppu/lib/gcc/powerpc64-ps3-elf/7.2.0/../../../../powerpc64-ps3-elf/lib/libc.a(lib_a-errno.o)
 .debug_info    0x000000000001227d      0x9ad /usr/local/ps3dev/ppu/lib/gcc/powerpc64-ps3-elf/7.2.0/../../../../powerpc64-ps3-elf/lib/libc.a(lib_a-exit.o)
 .debug_info    0x0000000000012c2a      0x9bd /usr/local/ps3dev/ppu/lib/gcc/powerpc64-ps3-elf/7.2.0/../../../../powerpc64-ps3-elf/lib/libc.a(lib_a-getreent.o)
 .debug_info    0x00000000000135e7      0x906 /usr/local/ps3dev/ppu/lib/gcc/powerpc64-ps3-elf/7.2.0/../../../../powerpc64-ps3-elf/lib/libc.a(lib_a-impure.o)
 .debug_info    0x0000000000013eed      0x973 /usr/local/ps3dev/ppu/lib/gcc/powerpc64-ps3-elf/7.2.0/../../../../powerpc64-ps3-elf/lib/libc.a(lib_a-malign.o)
 .debug_info    0x0000000000014860      0xc63 /usr/local/ps3dev/ppu/lib/gcc/powerpc64-ps3-elf/7.2.0/../../../../powerpc64-ps3-elf/lib/libc.a(lib_a-malignr.o)
 .debug_info    0x00000000000154c3      0x9b7 /usr/local/ps3dev/ppu/lib/gcc/powerpc64-ps3-elf/7.2.0/../../../../powerpc64-ps3-elf/lib/libc.a(lib_a-malloc.o)
 .debug_info    0x0000000000015e7a      0xeac /usr/local/ps3dev/ppu/lib/gcc/powerpc64-ps3-elf/7.2.0/../../../../powerpc64-ps3-elf/lib/libc.a(lib_a-mallocr.o)
 .debug_info    0x0000000000016d26      0x98b /usr/local/ps3dev/ppu/lib/gcc/powerpc64-ps3-elf/7.2.0/../../../../powerpc64-ps3-elf/lib/libc.a(lib_a-memcpy.o)
 .debug_info    0x00000000000176b1      0x97c /usr/local/ps3dev/ppu/lib/gcc/powerpc64-ps3-elf/7.2.0/../../../../powerpc64-ps3-elf/lib/libc.a(lib_a-memset.o)
 .debug_info    0x000000000001802d      0x99a /usr/local/ps3dev/ppu/lib/gcc/powerpc64-ps3-elf/7.2.0/../../../../powerpc64-ps3-elf/lib/libc.a(lib_a-mlock.o)
 .debug_info    0x00000000000189c7      0xc75 /usr/local/ps3dev/ppu/lib/gcc/powerpc64-ps3-elf/7.2.0/../../../../powerpc64-ps3-elf/lib/libc.a(lib_a-puts.o)
 .debug_info    0x000000000001963c      0xc83 /usr/local/ps3dev/ppu/lib/gcc/powerpc64-ps3-elf/7.2.0/../../../../powerpc64-ps3-elf/lib/libc.a(lib_a-sscanf.o)
 .debug_info    0x000000000001a2bf      0xdd2 /usr/local/ps3dev/ppu/lib/gcc/powerpc64-ps3-elf/7.2.0/../../../../powerpc64-ps3-elf/lib/libc.a(lib_a-stdio.o)
 .debug_info    0x000000000001b091      0x9ea /usr/local/ps3dev/ppu/lib/gcc/powerpc64-ps3-elf/7.2.0/../../../../powerpc64-ps3-elf/lib/libc.a(lib_a-strcasecmp.o)
 .debug_info    0x000000000001ba7b      0x93f /usr/local/ps3dev/ppu/lib/gcc/powerpc64-ps3-elf/7.2.0/../../../../powerpc64-ps3-elf/lib/libc.a(lib_a-strlen.o)
 .debug_info    0x000000000001c3ba      0x980 /usr/local/ps3dev/ppu/lib/gcc/powerpc64-ps3-elf/7.2.0/../../../../powerpc64-ps3-elf/lib/libc.a(lib_a-strncpy.o)
 .debug_info    0x000000000001cd3a     0x161b /usr/local/ps3dev/ppu/lib/gcc/powerpc64-ps3-elf/7.2.0/../../../../powerpc64-ps3-elf/lib/libc.a(lib_a-svfscanf.o)
 .debug_info    0x000000000001e355      0xc97 /usr/local/ps3dev/ppu/lib/gcc/powerpc64-ps3-elf/7.2.0/../../../../powerpc64-ps3-elf/lib/libc.a(lib_a-vsnprintf.o)
 .debug_info    0x000000000001efec      0xc21 /usr/local/ps3dev/ppu/lib/gcc/powerpc64-ps3-elf/7.2.0/../../../../powerpc64-ps3-elf/lib/libc.a(lib_a-vsprintf.o)
 .debug_info    0x000000000001fc0d      0xa25 /usr/local/ps3dev/ppu/lib/gcc/powerpc64-ps3-elf/7.2.0/../../../../powerpc64-ps3-elf/lib/libc.a(lib_a-__atexit.o)
 .debug_info    0x0000000000020632      0xa23 /usr/local/ps3dev/ppu/lib/gcc/powerpc64-ps3-elf/7.2.0/../../../../powerpc64-ps3-elf/lib/libc.a(lib_a-__call_atexit.o)
 .debug_info    0x0000000000021055       0x7b /usr/local/ps3dev/ppu/lib/gcc/powerpc64-ps3-elf/7.2.0/../../../../powerpc64-ps3-elf/lib/libc.a(lib_a-ctype_.o)
 .debug_info    0x00000000000210d0      0xd57 /usr/local/ps3dev/ppu/lib/gcc/powerpc64-ps3-elf/7.2.0/../../../../powerpc64-ps3-elf/lib/libc.a(lib_a-freer.o)
 .debug_info    0x0000000000021e27      0xe9d /usr/local/ps3dev/ppu/lib/gcc/powerpc64-ps3-elf/7.2.0/../../../../powerpc64-ps3-elf/lib/libc.a(lib_a-fvwrite.o)
 .debug_info    0x0000000000022cc4      0x930 /usr/local/ps3dev/ppu/lib/gcc/powerpc64-ps3-elf/7.2.0/../../../../powerpc64-ps3-elf/lib/libc.a(lib_a-iswspace.o)
 .debug_info    0x00000000000235f4      0xe27 /usr/local/ps3dev/ppu/lib/gcc/powerpc64-ps3-elf/7.2.0/../../../../powerpc64-ps3-elf/lib/libc.a(lib_a-locale.o)
 .debug_info    0x000000000002441b      0xb4f /usr/local/ps3dev/ppu/lib/gcc/powerpc64-ps3-elf/7.2.0/../../../../powerpc64-ps3-elf/lib/libc.a(lib_a-lock_recursive.o)
 .debug_info    0x0000000000024f6a      0xbfd /usr/local/ps3dev/ppu/lib/gcc/powerpc64-ps3-elf/7.2.0/../../../../powerpc64-ps3-elf/lib/libc.a(lib_a-mbrtowc.o)
 .debug_info    0x0000000000025b67      0xb2f /usr/local/ps3dev/ppu/lib/gcc/powerpc64-ps3-elf/7.2.0/../../../../powerpc64-ps3-elf/lib/libc.a(lib_a-mbtowc_r.o)
 .debug_info    0x0000000000026696      0x994 /usr/local/ps3dev/ppu/lib/gcc/powerpc64-ps3-elf/7.2.0/../../../../powerpc64-ps3-elf/lib/libc.a(lib_a-memchr.o)
 .debug_info    0x000000000002702a      0x992 /usr/local/ps3dev/ppu/lib/gcc/powerpc64-ps3-elf/7.2.0/../../../../powerpc64-ps3-elf/lib/libc.a(lib_a-memmove.o)
 .debug_info    0x00000000000279bc      0xe68 /usr/local/ps3dev/ppu/lib/gcc/powerpc64-ps3-elf/7.2.0/../../../../powerpc64-ps3-elf/lib/libc.a(lib_a-reallocr.o)
 .debug_info    0x0000000000028824      0xb46 /usr/local/ps3dev/ppu/lib/gcc/powerpc64-ps3-elf/7.2.0/../../../../powerpc64-ps3-elf/lib/libc.a(lib_a-sccl.o)
 .debug_info    0x000000000002936a      0x9ab /usr/local/ps3dev/ppu/lib/gcc/powerpc64-ps3-elf/7.2.0/../../../../powerpc64-ps3-elf/lib/libc.a(lib_a-sf_nan.o)
 .debug_info    0x0000000000029d15      0xc47 /usr/local/ps3dev/ppu/lib/gcc/powerpc64-ps3-elf/7.2.0/../../../../powerpc64-ps3-elf/lib/libc.a(lib_a-sprintf.o)
 .debug_info    0x000000000002a95c      0x93f /usr/local/ps3dev/ppu/lib/gcc/powerpc64-ps3-elf/7.2.0/../../../../powerpc64-ps3-elf/lib/libc.a(lib_a-strcmp.o)
 .debug_info    0x000000000002b29b     0x16ed /usr/local/ps3dev/ppu/lib/gcc/powerpc64-ps3-elf/7.2.0/../../../../powerpc64-ps3-elf/lib/libc.a(lib_a-strtod.o)
 .debug_info    0x000000000002c988      0xa8f /usr/local/ps3dev/ppu/lib/gcc/powerpc64-ps3-elf/7.2.0/../../../../powerpc64-ps3-elf/lib/libc.a(lib_a-strtol.o)
 .debug_info    0x000000000002d417      0xa0d /usr/local/ps3dev/ppu/lib/gcc/powerpc64-ps3-elf/7.2.0/../../../../powerpc64-ps3-elf/lib/libc.a(lib_a-strtoll_r.o)
 .debug_info    0x000000000002de24      0xa8f /usr/local/ps3dev/ppu/lib/gcc/powerpc64-ps3-elf/7.2.0/../../../../powerpc64-ps3-elf/lib/libc.a(lib_a-strtoul.o)
 .debug_info    0x000000000002e8b3      0xa0d /usr/local/ps3dev/ppu/lib/gcc/powerpc64-ps3-elf/7.2.0/../../../../powerpc64-ps3-elf/lib/libc.a(lib_a-strtoull_r.o)
 .debug_info    0x000000000002f2c0     0x1511 /usr/local/ps3dev/ppu/lib/gcc/powerpc64-ps3-elf/7.2.0/../../../../powerpc64-ps3-elf/lib/libc.a(lib_a-svfiscanf.o)
 .debug_info    0x00000000000307d1     0x191f /usr/local/ps3dev/ppu/lib/gcc/powerpc64-ps3-elf/7.2.0/../../../../powerpc64-ps3-elf/lib/libc.a(lib_a-svfprintf.o)
 .debug_info    0x00000000000320f0      0xd6f /usr/local/ps3dev/ppu/lib/gcc/powerpc64-ps3-elf/7.2.0/../../../../powerpc64-ps3-elf/lib/libc.a(lib_a-ungetc.o)
 .debug_info    0x0000000000032e5f      0xbd1 /usr/local/ps3dev/ppu/lib/gcc/powerpc64-ps3-elf/7.2.0/../../../../powerpc64-ps3-elf/lib/libc.a(lib_a-wsetup.o)
 .debug_info    0x0000000000033a30     0x143a /usr/local/ps3dev/ppu/lib/gcc/powerpc64-ps3-elf/7.2.0/../../../../powerpc64-ps3-elf/lib/libc.a(lib_a-dtoa.o)
 .debug_info    0x0000000000034e6a      0xdc4 /usr/local/ps3dev/ppu/lib/gcc/powerpc64-ps3-elf/7.2.0/../../../../powerpc64-ps3-elf/lib/libc.a(lib_a-fflush.o)
 .debug_info    0x0000000000035c2e     0x128a /usr/local/ps3dev/ppu/lib/gcc/powerpc64-ps3-elf/7.2.0/../../../../powerpc64-ps3-elf/lib/libc.a(lib_a-findfp.o)
 .debug_info    0x0000000000036eb8      0xc3e /usr/local/ps3dev/ppu/lib/gcc/powerpc64-ps3-elf/7.2.0/../../../../powerpc64-ps3-elf/lib/libc.a(lib_a-fwalk.o)
 .debug_info    0x0000000000037af6     0x11a9 /usr/local/ps3dev/ppu/lib/gcc/powerpc64-ps3-elf/7.2.0/../../../../powerpc64-ps3-elf/lib/libc.a(lib_a-gdtoa-gethex.o)
 .debug_info    0x0000000000038c9f      0xc30 /usr/local/ps3dev/ppu/lib/gcc/powerpc64-ps3-elf/7.2.0/../../../../powerpc64-ps3-elf/lib/libc.a(lib_a-gdtoa-hexnan.o)
 .debug_info    0x00000000000398cf      0xa84 /usr/local/ps3dev/ppu/lib/gcc/powerpc64-ps3-elf/7.2.0/../../../../powerpc64-ps3-elf/lib/libc.a(lib_a-lock_internal.o)
 .debug_info    0x000000000003a353      0xd77 /usr/local/ps3dev/ppu/lib/gcc/powerpc64-ps3-elf/7.2.0/../../../../powerpc64-ps3-elf/lib/libc.a(lib_a-makebuf.o)
 .debug_info    0x000000000003b0ca     0x18d9 /usr/local/ps3dev/ppu/lib/gcc/powerpc64-ps3-elf/7.2.0/../../../../powerpc64-ps3-elf/lib/libc.a(lib_a-mprec.o)
 .debug_info    0x000000000003c9a3      0x957 /usr/local/ps3dev/ppu/lib/gcc/powerpc64-ps3-elf/7.2.0/../../../../powerpc64-ps3-elf/lib/libc.a(lib_a-strncmp.o)
 .debug_info    0x000000000003d2fa     0x1382 /usr/local/ps3dev/ppu/lib/gcc/powerpc64-ps3-elf/7.2.0/../../../../powerpc64-ps3-elf/lib/libc.a(lib_a-svfiprintf.o)
 .debug_info    0x000000000003e67c      0x997 /usr/local/ps3dev/ppu/lib/gcc/powerpc64-ps3-elf/7.2.0/../../../../powerpc64-ps3-elf/lib/libc.a(lib_a-abort.o)
 .debug_info    0x000000000003f013      0xd16 /usr/local/ps3dev/ppu/lib/gcc/powerpc64-ps3-elf/7.2.0/../../../../powerpc64-ps3-elf/lib/libc.a(lib_a-fclose.o)
 .debug_info    0x000000000003fd29      0xe73 /usr/local/ps3dev/ppu/lib/gcc/powerpc64-ps3-elf/7.2.0/../../../../powerpc64-ps3-elf/lib/libc.a(lib_a-signal.o)
 .debug_info    0x0000000000040b9c     0x1461 /usr/local/ps3dev/ppu/lib/gcc/powerpc64-ps3-elf/7.2.0/../../../../powerpc64-ps3-elf/lib/libsysbase.a(close.o)
 .debug_info    0x0000000000041ffd     0x1469 /usr/local/ps3dev/ppu/lib/gcc/powerpc64-ps3-elf/7.2.0/../../../../powerpc64-ps3-elf/lib/libsysbase.a(sbrk.o)
 .debug_info    0x0000000000043466     0x1412 /usr/local/ps3dev/ppu/lib/gcc/powerpc64-ps3-elf/7.2.0/../../../../powerpc64-ps3-elf/lib/libsysbase.a(_exit.o)
 .debug_info    0x0000000000044878     0x1474 /usr/local/ps3dev/ppu/lib/gcc/powerpc64-ps3-elf/7.2.0/../../../../powerpc64-ps3-elf/lib/libsysbase.a(fstat.o)
 .debug_info    0x0000000000045cec     0x1461 /usr/local/ps3dev/ppu/lib/gcc/powerpc64-ps3-elf/7.2.0/../../../../powerpc64-ps3-elf/lib/libsysbase.a(isatty.o)
 .debug_info    0x000000000004714d     0x1484 /usr/local/ps3dev/ppu/lib/gcc/powerpc64-ps3-elf/7.2.0/../../../../powerpc64-ps3-elf/lib/libsysbase.a(lseek.o)
 .debug_info    0x00000000000485d1     0x148b /usr/local/ps3dev/ppu/lib/gcc/powerpc64-ps3-elf/7.2.0/../../../../powerpc64-ps3-elf/lib/libsysbase.a(read.o)
 .debug_info    0x0000000000049a5c     0x148b /usr/local/ps3dev/ppu/lib/gcc/powerpc64-ps3-elf/7.2.0/../../../../powerpc64-ps3-elf/lib/libsysbase.a(write.o)
 .debug_info    0x000000000004aee7     0x1612 /usr/local/ps3dev/ppu/lib/gcc/powerpc64-ps3-elf/7.2.0/../../../../powerpc64-ps3-elf/lib/libsysbase.a(lock.o)
 .debug_info    0x000000000004c4f9     0x1453 /usr/local/ps3dev/ppu/lib/gcc/powerpc64-ps3-elf/7.2.0/../../../../powerpc64-ps3-elf/lib/libsysbase.a(getpid.o)
 .debug_info    0x000000000004d94c      0x94f /usr/local/ps3dev/ppu/lib/gcc/powerpc64-ps3-elf/7.2.0/../../../../powerpc64-ps3-elf/lib/libsysbase.a(kill.o)

.debug_abbrev   0x0000000000000000     0xda7e
 *(.debug_abbrev)
 .debug_abbrev  0x0000000000000000      0x255 /usr/local/ps3dev/ppu/lib/gcc/powerpc64-ps3-elf/7.2.0/../../../../powerpc64-ps3-elf/lib/libm.a(lib_a-sf_cos.o)
 .debug_abbrev  0x0000000000000255      0x260 /usr/local/ps3dev/ppu/lib/gcc/powerpc64-ps3-elf/7.2.0/../../../../powerpc64-ps3-elf/lib/libm.a(lib_a-sf_sin.o)
 .debug_abbrev  0x00000000000004b5      0x260 /usr/local/ps3dev/ppu/lib/gcc/powerpc64-ps3-elf/7.2.0/../../../../powerpc64-ps3-elf/lib/libm.a(lib_a-sf_tan.o)
 .debug_abbrev  0x0000000000000715      0x25b /usr/local/ps3dev/ppu/lib/gcc/powerpc64-ps3-elf/7.2.0/../../../../powerpc64-ps3-elf/lib/libm.a(lib_a-w_sqrt.o)
 .debug_abbrev  0x0000000000000970      0x25b /usr/local/ps3dev/ppu/lib/gcc/powerpc64-ps3-elf/7.2.0/../../../../powerpc64-ps3-elf/lib/libm.a(lib_a-wf_sqrt.o)
 .debug_abbrev  0x0000000000000bcb      0x23a /usr/local/ps3dev/ppu/lib/gcc/powerpc64-ps3-elf/7.2.0/../../../../powerpc64-ps3-elf/lib/libm.a(lib_a-e_sqrt.o)
 .debug_abbrev  0x0000000000000e05      0x29d /usr/local/ps3dev/ppu/lib/gcc/powerpc64-ps3-elf/7.2.0/../../../../powerpc64-ps3-elf/lib/libm.a(lib_a-ef_rem_pio2.o)
 .debug_abbrev  0x00000000000010a2      0x238 /usr/local/ps3dev/ppu/lib/gcc/powerpc64-ps3-elf/7.2.0/../../../../powerpc64-ps3-elf/lib/libm.a(lib_a-ef_sqrt.o)
 .debug_abbrev  0x00000000000012da      0x218 /usr/local/ps3dev/ppu/lib/gcc/powerpc64-ps3-elf/7.2.0/../../../../powerpc64-ps3-elf/lib/libm.a(lib_a-kf_cos.o)
 .debug_abbrev  0x00000000000014f2      0x28a /usr/local/ps3dev/ppu/lib/gcc/powerpc64-ps3-elf/7.2.0/../../../../powerpc64-ps3-elf/lib/libm.a(lib_a-kf_rem_pio2.o)
 .debug_abbrev  0x000000000000177c      0x23a /usr/local/ps3dev/ppu/lib/gcc/powerpc64-ps3-elf/7.2.0/../../../../powerpc64-ps3-elf/lib/libm.a(lib_a-kf_sin.o)
 .debug_abbrev  0x00000000000019b6      0x266 /usr/local/ps3dev/ppu/lib/gcc/powerpc64-ps3-elf/7.2.0/../../../../powerpc64-ps3-elf/lib/libm.a(lib_a-kf_tan.o)
 .debug_abbrev  0x0000000000001c1c      0x200 /usr/local/ps3dev/ppu/lib/gcc/powerpc64-ps3-elf/7.2.0/../../../../powerpc64-ps3-elf/lib/libm.a(lib_a-s_fpclassify.o)
 .debug_abbrev  0x0000000000001e1c      0x1b0 /usr/local/ps3dev/ppu/lib/gcc/powerpc64-ps3-elf/7.2.0/../../../../powerpc64-ps3-elf/lib/libm.a(lib_a-s_lib_ver.o)
 .debug_abbrev  0x0000000000001fcc      0x1f0 /usr/local/ps3dev/ppu/lib/gcc/powerpc64-ps3-elf/7.2.0/../../../../powerpc64-ps3-elf/lib/libm.a(lib_a-s_matherr.o)
 .debug_abbrev  0x00000000000021bc      0x205 /usr/local/ps3dev/ppu/lib/gcc/powerpc64-ps3-elf/7.2.0/../../../../powerpc64-ps3-elf/lib/libm.a(lib_a-sf_fabs.o)
 .debug_abbrev  0x00000000000023c1      0x225 /usr/local/ps3dev/ppu/lib/gcc/powerpc64-ps3-elf/7.2.0/../../../../powerpc64-ps3-elf/lib/libm.a(lib_a-sf_floor.o)
 .debug_abbrev  0x00000000000025e6      0x1fe /usr/local/ps3dev/ppu/lib/gcc/powerpc64-ps3-elf/7.2.0/../../../../powerpc64-ps3-elf/lib/libm.a(lib_a-sf_fpclassify.o)
 .debug_abbrev  0x00000000000027e4      0x255 /usr/local/ps3dev/ppu/lib/gcc/powerpc64-ps3-elf/7.2.0/../../../../powerpc64-ps3-elf/lib/libm.a(lib_a-sf_scalbn.o)
 .debug_abbrev  0x0000000000002a39      0x223 /usr/local/ps3dev/ppu/lib/gcc/powerpc64-ps3-elf/7.2.0/../../../../powerpc64-ps3-elf/lib/libm.a(lib_a-sf_copysign.o)
 .debug_abbrev  0x0000000000002c5c      0x1d4 /usr/local/ps3dev/ppu/lib/gcc/powerpc64-ps3-elf/7.2.0/../../../../powerpc64-ps3-elf/lib/libsysbase.a(syscalls.o)
 .debug_abbrev  0x0000000000002e30      0x24e /usr/local/ps3dev/ppu/lib/gcc/powerpc64-ps3-elf/7.2.0/../../../../powerpc64-ps3-elf/lib/libsysbase.a(sleep.o)
 .debug_abbrev  0x000000000000307e      0x202 /usr/local/ps3dev/ppu/lib/gcc/powerpc64-ps3-elf/7.2.0/../../../../powerpc64-ps3-elf/lib/libc.a(lib_a-atexit.o)
 .debug_abbrev  0x0000000000003280      0x211 /usr/local/ps3dev/ppu/lib/gcc/powerpc64-ps3-elf/7.2.0/../../../../powerpc64-ps3-elf/lib/libc.a(lib_a-calloc.o)
 .debug_abbrev  0x0000000000003491      0x239 /usr/local/ps3dev/ppu/lib/gcc/powerpc64-ps3-elf/7.2.0/../../../../powerpc64-ps3-elf/lib/libc.a(lib_a-callocr.o)
 .debug_abbrev  0x00000000000036ca      0x1d0 /usr/local/ps3dev/ppu/lib/gcc/powerpc64-ps3-elf/7.2.0/../../../../powerpc64-ps3-elf/lib/libc.a(lib_a-errno.o)
 .debug_abbrev  0x000000000000389a      0x1f4 /usr/local/ps3dev/ppu/lib/gcc/powerpc64-ps3-elf/7.2.0/../../../../powerpc64-ps3-elf/lib/libc.a(lib_a-exit.o)
 .debug_abbrev  0x0000000000003a8e      0x210 /usr/local/ps3dev/ppu/lib/gcc/powerpc64-ps3-elf/7.2.0/../../../../powerpc64-ps3-elf/lib/libc.a(lib_a-getreent.o)
 .debug_abbrev  0x0000000000003c9e      0x196 /usr/local/ps3dev/ppu/lib/gcc/powerpc64-ps3-elf/7.2.0/../../../../powerpc64-ps3-elf/lib/libc.a(lib_a-impure.o)
 .debug_abbrev  0x0000000000003e34      0x202 /usr/local/ps3dev/ppu/lib/gcc/powerpc64-ps3-elf/7.2.0/../../../../powerpc64-ps3-elf/lib/libc.a(lib_a-malign.o)
 .debug_abbrev  0x0000000000004036      0x22e /usr/local/ps3dev/ppu/lib/gcc/powerpc64-ps3-elf/7.2.0/../../../../powerpc64-ps3-elf/lib/libc.a(lib_a-malignr.o)
 .debug_abbrev  0x0000000000004264      0x21c /usr/local/ps3dev/ppu/lib/gcc/powerpc64-ps3-elf/7.2.0/../../../../powerpc64-ps3-elf/lib/libc.a(lib_a-malloc.o)
 .debug_abbrev  0x0000000000004480      0x2d1 /usr/local/ps3dev/ppu/lib/gcc/powerpc64-ps3-elf/7.2.0/../../../../powerpc64-ps3-elf/lib/libc.a(lib_a-mallocr.o)
 .debug_abbrev  0x0000000000004751      0x1df /usr/local/ps3dev/ppu/lib/gcc/powerpc64-ps3-elf/7.2.0/../../../../powerpc64-ps3-elf/lib/libc.a(lib_a-memcpy.o)
 .debug_abbrev  0x0000000000004930      0x1da /usr/local/ps3dev/ppu/lib/gcc/powerpc64-ps3-elf/7.2.0/../../../../powerpc64-ps3-elf/lib/libc.a(lib_a-memset.o)
 .debug_abbrev  0x0000000000004b0a      0x1e0 /usr/local/ps3dev/ppu/lib/gcc/powerpc64-ps3-elf/7.2.0/../../../../powerpc64-ps3-elf/lib/libc.a(lib_a-mlock.o)
 .debug_abbrev  0x0000000000004cea      0x274 /usr/local/ps3dev/ppu/lib/gcc/powerpc64-ps3-elf/7.2.0/../../../../powerpc64-ps3-elf/lib/libc.a(lib_a-puts.o)
 .debug_abbrev  0x0000000000004f5e      0x27c /usr/local/ps3dev/ppu/lib/gcc/powerpc64-ps3-elf/7.2.0/../../../../powerpc64-ps3-elf/lib/libc.a(lib_a-sscanf.o)
 .debug_abbrev  0x00000000000051da      0x261 /usr/local/ps3dev/ppu/lib/gcc/powerpc64-ps3-elf/7.2.0/../../../../powerpc64-ps3-elf/lib/libc.a(lib_a-stdio.o)
 .debug_abbrev  0x000000000000543b      0x20b /usr/local/ps3dev/ppu/lib/gcc/powerpc64-ps3-elf/7.2.0/../../../../powerpc64-ps3-elf/lib/libc.a(lib_a-strcasecmp.o)
 .debug_abbrev  0x0000000000005646      0x1bc /usr/local/ps3dev/ppu/lib/gcc/powerpc64-ps3-elf/7.2.0/../../../../powerpc64-ps3-elf/lib/libc.a(lib_a-strlen.o)
 .debug_abbrev  0x0000000000005802      0x1e7 /usr/local/ps3dev/ppu/lib/gcc/powerpc64-ps3-elf/7.2.0/../../../../powerpc64-ps3-elf/lib/libc.a(lib_a-strncpy.o)
 .debug_abbrev  0x00000000000059e9      0x329 /usr/local/ps3dev/ppu/lib/gcc/powerpc64-ps3-elf/7.2.0/../../../../powerpc64-ps3-elf/lib/libc.a(lib_a-svfscanf.o)
 .debug_abbrev  0x0000000000005d12      0x27d /usr/local/ps3dev/ppu/lib/gcc/powerpc64-ps3-elf/7.2.0/../../../../powerpc64-ps3-elf/lib/libc.a(lib_a-vsnprintf.o)
 .debug_abbrev  0x0000000000005f8f      0x269 /usr/local/ps3dev/ppu/lib/gcc/powerpc64-ps3-elf/7.2.0/../../../../powerpc64-ps3-elf/lib/libc.a(lib_a-vsprintf.o)
 .debug_abbrev  0x00000000000061f8      0x24d /usr/local/ps3dev/ppu/lib/gcc/powerpc64-ps3-elf/7.2.0/../../../../powerpc64-ps3-elf/lib/libc.a(lib_a-__atexit.o)
 .debug_abbrev  0x0000000000006445      0x23b /usr/local/ps3dev/ppu/lib/gcc/powerpc64-ps3-elf/7.2.0/../../../../powerpc64-ps3-elf/lib/libc.a(lib_a-__call_atexit.o)
 .debug_abbrev  0x0000000000006680       0x53 /usr/local/ps3dev/ppu/lib/gcc/powerpc64-ps3-elf/7.2.0/../../../../powerpc64-ps3-elf/lib/libc.a(lib_a-ctype_.o)
 .debug_abbrev  0x00000000000066d3      0x277 /usr/local/ps3dev/ppu/lib/gcc/powerpc64-ps3-elf/7.2.0/../../../../powerpc64-ps3-elf/lib/libc.a(lib_a-freer.o)
 .debug_abbrev  0x000000000000694a      0x270 /usr/local/ps3dev/ppu/lib/gcc/powerpc64-ps3-elf/7.2.0/../../../../powerpc64-ps3-elf/lib/libc.a(lib_a-fvwrite.o)
 .debug_abbrev  0x0000000000006bba      0x1c1 /usr/local/ps3dev/ppu/lib/gcc/powerpc64-ps3-elf/7.2.0/../../../../powerpc64-ps3-elf/lib/libc.a(lib_a-iswspace.o)
 .debug_abbrev  0x0000000000006d7b      0x2e7 /usr/local/ps3dev/ppu/lib/gcc/powerpc64-ps3-elf/7.2.0/../../../../powerpc64-ps3-elf/lib/libc.a(lib_a-locale.o)
 .debug_abbrev  0x0000000000007062      0x202 /usr/local/ps3dev/ppu/lib/gcc/powerpc64-ps3-elf/7.2.0/../../../../powerpc64-ps3-elf/lib/libc.a(lib_a-lock_recursive.o)
 .debug_abbrev  0x0000000000007264      0x21f /usr/local/ps3dev/ppu/lib/gcc/powerpc64-ps3-elf/7.2.0/../../../../powerpc64-ps3-elf/lib/libc.a(lib_a-mbrtowc.o)
 .debug_abbrev  0x0000000000007483      0x24c /usr/local/ps3dev/ppu/lib/gcc/powerpc64-ps3-elf/7.2.0/../../../../powerpc64-ps3-elf/lib/libc.a(lib_a-mbtowc_r.o)
 .debug_abbrev  0x00000000000076cf      0x1ee /usr/local/ps3dev/ppu/lib/gcc/powerpc64-ps3-elf/7.2.0/../../../../powerpc64-ps3-elf/lib/libc.a(lib_a-memchr.o)
 .debug_abbrev  0x00000000000078bd      0x1df /usr/local/ps3dev/ppu/lib/gcc/powerpc64-ps3-elf/7.2.0/../../../../powerpc64-ps3-elf/lib/libc.a(lib_a-memmove.o)
 .debug_abbrev  0x0000000000007a9c      0x256 /usr/local/ps3dev/ppu/lib/gcc/powerpc64-ps3-elf/7.2.0/../../../../powerpc64-ps3-elf/lib/libc.a(lib_a-reallocr.o)
 .debug_abbrev  0x0000000000007cf2      0x1fd /usr/local/ps3dev/ppu/lib/gcc/powerpc64-ps3-elf/7.2.0/../../../../powerpc64-ps3-elf/lib/libc.a(lib_a-sccl.o)
 .debug_abbrev  0x0000000000007eef      0x1fe /usr/local/ps3dev/ppu/lib/gcc/powerpc64-ps3-elf/7.2.0/../../../../powerpc64-ps3-elf/lib/libc.a(lib_a-sf_nan.o)
 .debug_abbrev  0x00000000000080ed      0x26f /usr/local/ps3dev/ppu/lib/gcc/powerpc64-ps3-elf/7.2.0/../../../../powerpc64-ps3-elf/lib/libc.a(lib_a-sprintf.o)
 .debug_abbrev  0x000000000000835c      0x1bc /usr/local/ps3dev/ppu/lib/gcc/powerpc64-ps3-elf/7.2.0/../../../../powerpc64-ps3-elf/lib/libc.a(lib_a-strcmp.o)
 .debug_abbrev  0x0000000000008518      0x3c3 /usr/local/ps3dev/ppu/lib/gcc/powerpc64-ps3-elf/7.2.0/../../../../powerpc64-ps3-elf/lib/libc.a(lib_a-strtod.o)
 .debug_abbrev  0x00000000000088db      0x235 /usr/local/ps3dev/ppu/lib/gcc/powerpc64-ps3-elf/7.2.0/../../../../powerpc64-ps3-elf/lib/libc.a(lib_a-strtol.o)
 .debug_abbrev  0x0000000000008b10      0x1f0 /usr/local/ps3dev/ppu/lib/gcc/powerpc64-ps3-elf/7.2.0/../../../../powerpc64-ps3-elf/lib/libc.a(lib_a-strtoll_r.o)
 .debug_abbrev  0x0000000000008d00      0x235 /usr/local/ps3dev/ppu/lib/gcc/powerpc64-ps3-elf/7.2.0/../../../../powerpc64-ps3-elf/lib/libc.a(lib_a-strtoul.o)
 .debug_abbrev  0x0000000000008f35      0x1f0 /usr/local/ps3dev/ppu/lib/gcc/powerpc64-ps3-elf/7.2.0/../../../../powerpc64-ps3-elf/lib/libc.a(lib_a-strtoull_r.o)
 .debug_abbrev  0x0000000000009125      0x33d /usr/local/ps3dev/ppu/lib/gcc/powerpc64-ps3-elf/7.2.0/../../../../powerpc64-ps3-elf/lib/libc.a(lib_a-svfiscanf.o)
 .debug_abbrev  0x0000000000009462      0x3c2 /usr/local/ps3dev/ppu/lib/gcc/powerpc64-ps3-elf/7.2.0/../../../../powerpc64-ps3-elf/lib/libc.a(lib_a-svfprintf.o)
 .debug_abbrev  0x0000000000009824      0x2eb /usr/local/ps3dev/ppu/lib/gcc/powerpc64-ps3-elf/7.2.0/../../../../powerpc64-ps3-elf/lib/libc.a(lib_a-ungetc.o)
 .debug_abbrev  0x0000000000009b0f      0x22c /usr/local/ps3dev/ppu/lib/gcc/powerpc64-ps3-elf/7.2.0/../../../../powerpc64-ps3-elf/lib/libc.a(lib_a-wsetup.o)
 .debug_abbrev  0x0000000000009d3b      0x2d4 /usr/local/ps3dev/ppu/lib/gcc/powerpc64-ps3-elf/7.2.0/../../../../powerpc64-ps3-elf/lib/libc.a(lib_a-dtoa.o)
 .debug_abbrev  0x000000000000a00f      0x2ee /usr/local/ps3dev/ppu/lib/gcc/powerpc64-ps3-elf/7.2.0/../../../../powerpc64-ps3-elf/lib/libc.a(lib_a-fflush.o)
 .debug_abbrev  0x000000000000a2fd      0x3ab /usr/local/ps3dev/ppu/lib/gcc/powerpc64-ps3-elf/7.2.0/../../../../powerpc64-ps3-elf/lib/libc.a(lib_a-findfp.o)
 .debug_abbrev  0x000000000000a6a8      0x219 /usr/local/ps3dev/ppu/lib/gcc/powerpc64-ps3-elf/7.2.0/../../../../powerpc64-ps3-elf/lib/libc.a(lib_a-fwalk.o)
 .debug_abbrev  0x000000000000a8c1      0x3b5 /usr/local/ps3dev/ppu/lib/gcc/powerpc64-ps3-elf/7.2.0/../../../../powerpc64-ps3-elf/lib/libc.a(lib_a-gdtoa-gethex.o)
 .debug_abbrev  0x000000000000ac76      0x2b8 /usr/local/ps3dev/ppu/lib/gcc/powerpc64-ps3-elf/7.2.0/../../../../powerpc64-ps3-elf/lib/libc.a(lib_a-gdtoa-hexnan.o)
 .debug_abbrev  0x000000000000af2e      0x218 /usr/local/ps3dev/ppu/lib/gcc/powerpc64-ps3-elf/7.2.0/../../../../powerpc64-ps3-elf/lib/libc.a(lib_a-lock_internal.o)
 .debug_abbrev  0x000000000000b146      0x241 /usr/local/ps3dev/ppu/lib/gcc/powerpc64-ps3-elf/7.2.0/../../../../powerpc64-ps3-elf/lib/libc.a(lib_a-makebuf.o)
 .debug_abbrev  0x000000000000b387      0x3a3 /usr/local/ps3dev/ppu/lib/gcc/powerpc64-ps3-elf/7.2.0/../../../../powerpc64-ps3-elf/lib/libc.a(lib_a-mprec.o)
 .debug_abbrev  0x000000000000b72a      0x1bc /usr/local/ps3dev/ppu/lib/gcc/powerpc64-ps3-elf/7.2.0/../../../../powerpc64-ps3-elf/lib/libc.a(lib_a-strncmp.o)
 .debug_abbrev  0x000000000000b8e6      0x329 /usr/local/ps3dev/ppu/lib/gcc/powerpc64-ps3-elf/7.2.0/../../../../powerpc64-ps3-elf/lib/libc.a(lib_a-svfiprintf.o)
 .debug_abbrev  0x000000000000bc0f      0x1e5 /usr/local/ps3dev/ppu/lib/gcc/powerpc64-ps3-elf/7.2.0/../../../../powerpc64-ps3-elf/lib/libc.a(lib_a-abort.o)
 .debug_abbrev  0x000000000000bdf4      0x2c4 /usr/local/ps3dev/ppu/lib/gcc/powerpc64-ps3-elf/7.2.0/../../../../powerpc64-ps3-elf/lib/libc.a(lib_a-fclose.o)
 .debug_abbrev  0x000000000000c0b8      0x31f /usr/local/ps3dev/ppu/lib/gcc/powerpc64-ps3-elf/7.2.0/../../../../powerpc64-ps3-elf/lib/libc.a(lib_a-signal.o)
 .debug_abbrev  0x000000000000c3d7      0x212 /usr/local/ps3dev/ppu/lib/gcc/powerpc64-ps3-elf/7.2.0/../../../../powerpc64-ps3-elf/lib/libsysbase.a(close.o)
 .debug_abbrev  0x000000000000c5e9      0x221 /usr/local/ps3dev/ppu/lib/gcc/powerpc64-ps3-elf/7.2.0/../../../../powerpc64-ps3-elf/lib/libsysbase.a(sbrk.o)
 .debug_abbrev  0x000000000000c80a      0x1f9 /usr/local/ps3dev/ppu/lib/gcc/powerpc64-ps3-elf/7.2.0/../../../../powerpc64-ps3-elf/lib/libsysbase.a(_exit.o)
 .debug_abbrev  0x000000000000ca03      0x212 /usr/local/ps3dev/ppu/lib/gcc/powerpc64-ps3-elf/7.2.0/../../../../powerpc64-ps3-elf/lib/libsysbase.a(fstat.o)
 .debug_abbrev  0x000000000000cc15      0x212 /usr/local/ps3dev/ppu/lib/gcc/powerpc64-ps3-elf/7.2.0/../../../../powerpc64-ps3-elf/lib/libsysbase.a(isatty.o)
 .debug_abbrev  0x000000000000ce27      0x212 /usr/local/ps3dev/ppu/lib/gcc/powerpc64-ps3-elf/7.2.0/../../../../powerpc64-ps3-elf/lib/libsysbase.a(lseek.o)
 .debug_abbrev  0x000000000000d039      0x212 /usr/local/ps3dev/ppu/lib/gcc/powerpc64-ps3-elf/7.2.0/../../../../powerpc64-ps3-elf/lib/libsysbase.a(read.o)
 .debug_abbrev  0x000000000000d24b      0x212 /usr/local/ps3dev/ppu/lib/gcc/powerpc64-ps3-elf/7.2.0/../../../../powerpc64-ps3-elf/lib/libsysbase.a(write.o)
 .debug_abbrev  0x000000000000d45d      0x23f /usr/local/ps3dev/ppu/lib/gcc/powerpc64-ps3-elf/7.2.0/../../../../powerpc64-ps3-elf/lib/libsysbase.a(lock.o)
 .debug_abbrev  0x000000000000d69c      0x212 /usr/local/ps3dev/ppu/lib/gcc/powerpc64-ps3-elf/7.2.0/../../../../powerpc64-ps3-elf/lib/libsysbase.a(getpid.o)
 .debug_abbrev  0x000000000000d8ae      0x1d0 /usr/local/ps3dev/ppu/lib/gcc/powerpc64-ps3-elf/7.2.0/../../../../powerpc64-ps3-elf/lib/libsysbase.a(kill.o)

.debug_line     0x0000000000000000    0x13585
 *(.debug_line)
 .debug_line    0x0000000000000000      0x311 /usr/local/ps3dev/ppu/lib/gcc/powerpc64-ps3-elf/7.2.0/../../../../powerpc64-ps3-elf/lib/libm.a(lib_a-sf_cos.o)
 .debug_line    0x0000000000000311      0x311 /usr/local/ps3dev/ppu/lib/gcc/powerpc64-ps3-elf/7.2.0/../../../../powerpc64-ps3-elf/lib/libm.a(lib_a-sf_sin.o)
 .debug_line    0x0000000000000622      0x31a /usr/local/ps3dev/ppu/lib/gcc/powerpc64-ps3-elf/7.2.0/../../../../powerpc64-ps3-elf/lib/libm.a(lib_a-sf_tan.o)
 .debug_line    0x000000000000093c      0x2a9 /usr/local/ps3dev/ppu/lib/gcc/powerpc64-ps3-elf/7.2.0/../../../../powerpc64-ps3-elf/lib/libm.a(lib_a-w_sqrt.o)
 .debug_line    0x0000000000000be5      0x2aa /usr/local/ps3dev/ppu/lib/gcc/powerpc64-ps3-elf/7.2.0/../../../../powerpc64-ps3-elf/lib/libm.a(lib_a-wf_sqrt.o)
 .debug_line    0x0000000000000e8f      0x396 /usr/local/ps3dev/ppu/lib/gcc/powerpc64-ps3-elf/7.2.0/../../../../powerpc64-ps3-elf/lib/libm.a(lib_a-e_sqrt.o)
 .debug_line    0x0000000000001225      0x397 /usr/local/ps3dev/ppu/lib/gcc/powerpc64-ps3-elf/7.2.0/../../../../powerpc64-ps3-elf/lib/libm.a(lib_a-ef_rem_pio2.o)
 .debug_line    0x00000000000015bc      0x324 /usr/local/ps3dev/ppu/lib/gcc/powerpc64-ps3-elf/7.2.0/../../../../powerpc64-ps3-elf/lib/libm.a(lib_a-ef_sqrt.o)
 .debug_line    0x00000000000018e0      0x301 /usr/local/ps3dev/ppu/lib/gcc/powerpc64-ps3-elf/7.2.0/../../../../powerpc64-ps3-elf/lib/libm.a(lib_a-kf_cos.o)
 .debug_line    0x0000000000001be1      0x4e9 /usr/local/ps3dev/ppu/lib/gcc/powerpc64-ps3-elf/7.2.0/../../../../powerpc64-ps3-elf/lib/libm.a(lib_a-kf_rem_pio2.o)
 .debug_line    0x00000000000020ca      0x2ea /usr/local/ps3dev/ppu/lib/gcc/powerpc64-ps3-elf/7.2.0/../../../../powerpc64-ps3-elf/lib/libm.a(lib_a-kf_sin.o)
 .debug_line    0x00000000000023b4      0x356 /usr/local/ps3dev/ppu/lib/gcc/powerpc64-ps3-elf/7.2.0/../../../../powerpc64-ps3-elf/lib/libm.a(lib_a-kf_tan.o)
 .debug_line    0x000000000000270a      0x2eb /usr/local/ps3dev/ppu/lib/gcc/powerpc64-ps3-elf/7.2.0/../../../../powerpc64-ps3-elf/lib/libm.a(lib_a-s_fpclassify.o)
 .debug_line    0x00000000000029f5      0x231 /usr/local/ps3dev/ppu/lib/gcc/powerpc64-ps3-elf/7.2.0/../../../../powerpc64-ps3-elf/lib/libm.a(lib_a-s_lib_ver.o)
 .debug_line    0x0000000000002c26      0x246 /usr/local/ps3dev/ppu/lib/gcc/powerpc64-ps3-elf/7.2.0/../../../../powerpc64-ps3-elf/lib/libm.a(lib_a-s_matherr.o)
 .debug_line    0x0000000000002e6c      0x2d7 /usr/local/ps3dev/ppu/lib/gcc/powerpc64-ps3-elf/7.2.0/../../../../powerpc64-ps3-elf/lib/libm.a(lib_a-sf_fabs.o)
 .debug_line    0x0000000000003143      0x305 /usr/local/ps3dev/ppu/lib/gcc/powerpc64-ps3-elf/7.2.0/../../../../powerpc64-ps3-elf/lib/libm.a(lib_a-sf_floor.o)
 .debug_line    0x0000000000003448      0x2d4 /usr/local/ps3dev/ppu/lib/gcc/powerpc64-ps3-elf/7.2.0/../../../../powerpc64-ps3-elf/lib/libm.a(lib_a-sf_fpclassify.o)
 .debug_line    0x000000000000371c      0x2e9 /usr/local/ps3dev/ppu/lib/gcc/powerpc64-ps3-elf/7.2.0/../../../../powerpc64-ps3-elf/lib/libm.a(lib_a-sf_scalbn.o)
 .debug_line    0x0000000000003a05      0x2b3 /usr/local/ps3dev/ppu/lib/gcc/powerpc64-ps3-elf/7.2.0/../../../../powerpc64-ps3-elf/lib/libm.a(lib_a-sf_copysign.o)
 .debug_line    0x0000000000003cb8      0x269 /usr/local/ps3dev/ppu/lib/gcc/powerpc64-ps3-elf/7.2.0/../../../../powerpc64-ps3-elf/lib/libsysbase.a(syscalls.o)
 .debug_line    0x0000000000003f21      0x2d5 /usr/local/ps3dev/ppu/lib/gcc/powerpc64-ps3-elf/7.2.0/../../../../powerpc64-ps3-elf/lib/libsysbase.a(sleep.o)
 .debug_line    0x00000000000041f6      0x257 /usr/local/ps3dev/ppu/lib/gcc/powerpc64-ps3-elf/7.2.0/../../../../powerpc64-ps3-elf/lib/libc.a(lib_a-atexit.o)
 .debug_line    0x000000000000444d      0x245 /usr/local/ps3dev/ppu/lib/gcc/powerpc64-ps3-elf/7.2.0/../../../../powerpc64-ps3-elf/lib/libc.a(lib_a-calloc.o)
 .debug_line    0x0000000000004692      0x287 /usr/local/ps3dev/ppu/lib/gcc/powerpc64-ps3-elf/7.2.0/../../../../powerpc64-ps3-elf/lib/libc.a(lib_a-callocr.o)
 .debug_line    0x0000000000004919      0x242 /usr/local/ps3dev/ppu/lib/gcc/powerpc64-ps3-elf/7.2.0/../../../../powerpc64-ps3-elf/lib/libc.a(lib_a-errno.o)
 .debug_line    0x0000000000004b5b      0x25f /usr/local/ps3dev/ppu/lib/gcc/powerpc64-ps3-elf/7.2.0/../../../../powerpc64-ps3-elf/lib/libc.a(lib_a-exit.o)
 .debug_line    0x0000000000004dba      0x1de /usr/local/ps3dev/ppu/lib/gcc/powerpc64-ps3-elf/7.2.0/../../../../powerpc64-ps3-elf/lib/libc.a(lib_a-getreent.o)
 .debug_line    0x0000000000004f98      0x223 /usr/local/ps3dev/ppu/lib/gcc/powerpc64-ps3-elf/7.2.0/../../../../powerpc64-ps3-elf/lib/libc.a(lib_a-impure.o)
 .debug_line    0x00000000000051bb      0x251 /usr/local/ps3dev/ppu/lib/gcc/powerpc64-ps3-elf/7.2.0/../../../../powerpc64-ps3-elf/lib/libc.a(lib_a-malign.o)
 .debug_line    0x000000000000540c      0x2d9 /usr/local/ps3dev/ppu/lib/gcc/powerpc64-ps3-elf/7.2.0/../../../../powerpc64-ps3-elf/lib/libc.a(lib_a-malignr.o)
 .debug_line    0x00000000000056e5      0x268 /usr/local/ps3dev/ppu/lib/gcc/powerpc64-ps3-elf/7.2.0/../../../../powerpc64-ps3-elf/lib/libc.a(lib_a-malloc.o)
 .debug_line    0x000000000000594d      0x4ce /usr/local/ps3dev/ppu/lib/gcc/powerpc64-ps3-elf/7.2.0/../../../../powerpc64-ps3-elf/lib/libc.a(lib_a-mallocr.o)
 .debug_line    0x0000000000005e1b      0x26d /usr/local/ps3dev/ppu/lib/gcc/powerpc64-ps3-elf/7.2.0/../../../../powerpc64-ps3-elf/lib/libc.a(lib_a-memcpy.o)
 .debug_line    0x0000000000006088      0x27a /usr/local/ps3dev/ppu/lib/gcc/powerpc64-ps3-elf/7.2.0/../../../../powerpc64-ps3-elf/lib/libc.a(lib_a-memset.o)
 .debug_line    0x0000000000006302      0x251 /usr/local/ps3dev/ppu/lib/gcc/powerpc64-ps3-elf/7.2.0/../../../../powerpc64-ps3-elf/lib/libc.a(lib_a-mlock.o)
 .debug_line    0x0000000000006553      0x2b1 /usr/local/ps3dev/ppu/lib/gcc/powerpc64-ps3-elf/7.2.0/../../../../powerpc64-ps3-elf/lib/libc.a(lib_a-puts.o)
 .debug_line    0x0000000000006804      0x2c9 /usr/local/ps3dev/ppu/lib/gcc/powerpc64-ps3-elf/7.2.0/../../../../powerpc64-ps3-elf/lib/libc.a(lib_a-sscanf.o)
 .debug_line    0x0000000000006acd      0x301 /usr/local/ps3dev/ppu/lib/gcc/powerpc64-ps3-elf/7.2.0/../../../../powerpc64-ps3-elf/lib/libc.a(lib_a-stdio.o)
 .debug_line    0x0000000000006dce      0x294 /usr/local/ps3dev/ppu/lib/gcc/powerpc64-ps3-elf/7.2.0/../../../../powerpc64-ps3-elf/lib/libc.a(lib_a-strcasecmp.o)
 .debug_line    0x0000000000007062      0x254 /usr/local/ps3dev/ppu/lib/gcc/powerpc64-ps3-elf/7.2.0/../../../../powerpc64-ps3-elf/lib/libc.a(lib_a-strlen.o)
 .debug_line    0x00000000000072b6      0x278 /usr/local/ps3dev/ppu/lib/gcc/powerpc64-ps3-elf/7.2.0/../../../../powerpc64-ps3-elf/lib/libc.a(lib_a-strncpy.o)
 .debug_line    0x000000000000752e      0x752 /usr/local/ps3dev/ppu/lib/gcc/powerpc64-ps3-elf/7.2.0/../../../../powerpc64-ps3-elf/lib/libc.a(lib_a-svfscanf.o)
 .debug_line    0x0000000000007c80      0x2da /usr/local/ps3dev/ppu/lib/gcc/powerpc64-ps3-elf/7.2.0/../../../../powerpc64-ps3-elf/lib/libc.a(lib_a-vsnprintf.o)
 .debug_line    0x0000000000007f5a      0x2a2 /usr/local/ps3dev/ppu/lib/gcc/powerpc64-ps3-elf/7.2.0/../../../../powerpc64-ps3-elf/lib/libc.a(lib_a-vsprintf.o)
 .debug_line    0x00000000000081fc      0x288 /usr/local/ps3dev/ppu/lib/gcc/powerpc64-ps3-elf/7.2.0/../../../../powerpc64-ps3-elf/lib/libc.a(lib_a-__atexit.o)
 .debug_line    0x0000000000008484      0x2b7 /usr/local/ps3dev/ppu/lib/gcc/powerpc64-ps3-elf/7.2.0/../../../../powerpc64-ps3-elf/lib/libc.a(lib_a-__call_atexit.o)
 .debug_line    0x000000000000873b       0x6a /usr/local/ps3dev/ppu/lib/gcc/powerpc64-ps3-elf/7.2.0/../../../../powerpc64-ps3-elf/lib/libc.a(lib_a-ctype_.o)
 .debug_line    0x00000000000087a5      0x37f /usr/local/ps3dev/ppu/lib/gcc/powerpc64-ps3-elf/7.2.0/../../../../powerpc64-ps3-elf/lib/libc.a(lib_a-freer.o)
 .debug_line    0x0000000000008b24      0x3f2 /usr/local/ps3dev/ppu/lib/gcc/powerpc64-ps3-elf/7.2.0/../../../../powerpc64-ps3-elf/lib/libc.a(lib_a-fvwrite.o)
 .debug_line    0x0000000000008f16      0x25c /usr/local/ps3dev/ppu/lib/gcc/powerpc64-ps3-elf/7.2.0/../../../../powerpc64-ps3-elf/lib/libc.a(lib_a-iswspace.o)
 .debug_line    0x0000000000009172      0x358 /usr/local/ps3dev/ppu/lib/gcc/powerpc64-ps3-elf/7.2.0/../../../../powerpc64-ps3-elf/lib/libc.a(lib_a-locale.o)
 .debug_line    0x00000000000094ca      0x254 /usr/local/ps3dev/ppu/lib/gcc/powerpc64-ps3-elf/7.2.0/../../../../powerpc64-ps3-elf/lib/libc.a(lib_a-lock_recursive.o)
 .debug_line    0x000000000000971e      0x2bc /usr/local/ps3dev/ppu/lib/gcc/powerpc64-ps3-elf/7.2.0/../../../../powerpc64-ps3-elf/lib/libc.a(lib_a-mbrtowc.o)
 .debug_line    0x00000000000099da      0x294 /usr/local/ps3dev/ppu/lib/gcc/powerpc64-ps3-elf/7.2.0/../../../../powerpc64-ps3-elf/lib/libc.a(lib_a-mbtowc_r.o)
 .debug_line    0x0000000000009c6e      0x280 /usr/local/ps3dev/ppu/lib/gcc/powerpc64-ps3-elf/7.2.0/../../../../powerpc64-ps3-elf/lib/libc.a(lib_a-memchr.o)
 .debug_line    0x0000000000009eee      0x278 /usr/local/ps3dev/ppu/lib/gcc/powerpc64-ps3-elf/7.2.0/../../../../powerpc64-ps3-elf/lib/libc.a(lib_a-memmove.o)
 .debug_line    0x000000000000a166      0x3fb /usr/local/ps3dev/ppu/lib/gcc/powerpc64-ps3-elf/7.2.0/../../../../powerpc64-ps3-elf/lib/libc.a(lib_a-reallocr.o)
 .debug_line    0x000000000000a561      0x2a4 /usr/local/ps3dev/ppu/lib/gcc/powerpc64-ps3-elf/7.2.0/../../../../powerpc64-ps3-elf/lib/libc.a(lib_a-sccl.o)
 .debug_line    0x000000000000a805      0x2ab /usr/local/ps3dev/ppu/lib/gcc/powerpc64-ps3-elf/7.2.0/../../../../powerpc64-ps3-elf/lib/libc.a(lib_a-sf_nan.o)
 .debug_line    0x000000000000aab0      0x2c8 /usr/local/ps3dev/ppu/lib/gcc/powerpc64-ps3-elf/7.2.0/../../../../powerpc64-ps3-elf/lib/libc.a(lib_a-sprintf.o)
 .debug_line    0x000000000000ad78      0x263 /usr/local/ps3dev/ppu/lib/gcc/powerpc64-ps3-elf/7.2.0/../../../../powerpc64-ps3-elf/lib/libc.a(lib_a-strcmp.o)
 .debug_line    0x000000000000afdb      0x70a /usr/local/ps3dev/ppu/lib/gcc/powerpc64-ps3-elf/7.2.0/../../../../powerpc64-ps3-elf/lib/libc.a(lib_a-strtod.o)
 .debug_line    0x000000000000b6e5      0x33d /usr/local/ps3dev/ppu/lib/gcc/powerpc64-ps3-elf/7.2.0/../../../../powerpc64-ps3-elf/lib/libc.a(lib_a-strtol.o)
 .debug_line    0x000000000000ba22      0x326 /usr/local/ps3dev/ppu/lib/gcc/powerpc64-ps3-elf/7.2.0/../../../../powerpc64-ps3-elf/lib/libc.a(lib_a-strtoll_r.o)
 .debug_line    0x000000000000bd48      0x30c /usr/local/ps3dev/ppu/lib/gcc/powerpc64-ps3-elf/7.2.0/../../../../powerpc64-ps3-elf/lib/libc.a(lib_a-strtoul.o)
 .debug_line    0x000000000000c054      0x2f6 /usr/local/ps3dev/ppu/lib/gcc/powerpc64-ps3-elf/7.2.0/../../../../powerpc64-ps3-elf/lib/libc.a(lib_a-strtoull_r.o)
 .debug_line    0x000000000000c34a      0x6e3 /usr/local/ps3dev/ppu/lib/gcc/powerpc64-ps3-elf/7.2.0/../../../../powerpc64-ps3-elf/lib/libc.a(lib_a-svfiscanf.o)
 .debug_line    0x000000000000ca2d      0xa38 /usr/local/ps3dev/ppu/lib/gcc/powerpc64-ps3-elf/7.2.0/../../../../powerpc64-ps3-elf/lib/libc.a(lib_a-svfprintf.o)
 .debug_line    0x000000000000d465      0x36a /usr/local/ps3dev/ppu/lib/gcc/powerpc64-ps3-elf/7.2.0/../../../../powerpc64-ps3-elf/lib/libc.a(lib_a-ungetc.o)
 .debug_line    0x000000000000d7cf      0x2e4 /usr/local/ps3dev/ppu/lib/gcc/powerpc64-ps3-elf/7.2.0/../../../../powerpc64-ps3-elf/lib/libc.a(lib_a-wsetup.o)
 .debug_line    0x000000000000dab3      0x836 /usr/local/ps3dev/ppu/lib/gcc/powerpc64-ps3-elf/7.2.0/../../../../powerpc64-ps3-elf/lib/libc.a(lib_a-dtoa.o)
 .debug_line    0x000000000000e2e9      0x3d0 /usr/local/ps3dev/ppu/lib/gcc/powerpc64-ps3-elf/7.2.0/../../../../powerpc64-ps3-elf/lib/libc.a(lib_a-fflush.o)
 .debug_line    0x000000000000e6b9      0x4d5 /usr/local/ps3dev/ppu/lib/gcc/powerpc64-ps3-elf/7.2.0/../../../../powerpc64-ps3-elf/lib/libc.a(lib_a-findfp.o)
 .debug_line    0x000000000000eb8e      0x2cf /usr/local/ps3dev/ppu/lib/gcc/powerpc64-ps3-elf/7.2.0/../../../../powerpc64-ps3-elf/lib/libc.a(lib_a-fwalk.o)
 .debug_line    0x000000000000ee5d      0x4c3 /usr/local/ps3dev/ppu/lib/gcc/powerpc64-ps3-elf/7.2.0/../../../../powerpc64-ps3-elf/lib/libc.a(lib_a-gdtoa-gethex.o)
 .debug_line    0x000000000000f320      0x31b /usr/local/ps3dev/ppu/lib/gcc/powerpc64-ps3-elf/7.2.0/../../../../powerpc64-ps3-elf/lib/libc.a(lib_a-gdtoa-hexnan.o)
 .debug_line    0x000000000000f63b      0x217 /usr/local/ps3dev/ppu/lib/gcc/powerpc64-ps3-elf/7.2.0/../../../../powerpc64-ps3-elf/lib/libc.a(lib_a-lock_internal.o)
 .debug_line    0x000000000000f852      0x315 /usr/local/ps3dev/ppu/lib/gcc/powerpc64-ps3-elf/7.2.0/../../../../powerpc64-ps3-elf/lib/libc.a(lib_a-makebuf.o)
 .debug_line    0x000000000000fb67      0x975 /usr/local/ps3dev/ppu/lib/gcc/powerpc64-ps3-elf/7.2.0/../../../../powerpc64-ps3-elf/lib/libc.a(lib_a-mprec.o)
 .debug_line    0x00000000000104dc      0x28f /usr/local/ps3dev/ppu/lib/gcc/powerpc64-ps3-elf/7.2.0/../../../../powerpc64-ps3-elf/lib/libc.a(lib_a-strncmp.o)
 .debug_line    0x000000000001076b      0x703 /usr/local/ps3dev/ppu/lib/gcc/powerpc64-ps3-elf/7.2.0/../../../../powerpc64-ps3-elf/lib/libc.a(lib_a-svfiprintf.o)
 .debug_line    0x0000000000010e6e      0x260 /usr/local/ps3dev/ppu/lib/gcc/powerpc64-ps3-elf/7.2.0/../../../../powerpc64-ps3-elf/lib/libc.a(lib_a-abort.o)
 .debug_line    0x00000000000110ce      0x2d1 /usr/local/ps3dev/ppu/lib/gcc/powerpc64-ps3-elf/7.2.0/../../../../powerpc64-ps3-elf/lib/libc.a(lib_a-fclose.o)
 .debug_line    0x000000000001139f      0x3d9 /usr/local/ps3dev/ppu/lib/gcc/powerpc64-ps3-elf/7.2.0/../../../../powerpc64-ps3-elf/lib/libc.a(lib_a-signal.o)
 .debug_line    0x0000000000011778      0x2be /usr/local/ps3dev/ppu/lib/gcc/powerpc64-ps3-elf/7.2.0/../../../../powerpc64-ps3-elf/lib/libsysbase.a(close.o)
 .debug_line    0x0000000000011a36      0x2bd /usr/local/ps3dev/ppu/lib/gcc/powerpc64-ps3-elf/7.2.0/../../../../powerpc64-ps3-elf/lib/libsysbase.a(sbrk.o)
 .debug_line    0x0000000000011cf3      0x2ac /usr/local/ps3dev/ppu/lib/gcc/powerpc64-ps3-elf/7.2.0/../../../../powerpc64-ps3-elf/lib/libsysbase.a(_exit.o)
 .debug_line    0x0000000000011f9f      0x2be /usr/local/ps3dev/ppu/lib/gcc/powerpc64-ps3-elf/7.2.0/../../../../powerpc64-ps3-elf/lib/libsysbase.a(fstat.o)
 .debug_line    0x000000000001225d      0x2bf /usr/local/ps3dev/ppu/lib/gcc/powerpc64-ps3-elf/7.2.0/../../../../powerpc64-ps3-elf/lib/libsysbase.a(isatty.o)
 .debug_line    0x000000000001251c      0x2c2 /usr/local/ps3dev/ppu/lib/gcc/powerpc64-ps3-elf/7.2.0/../../../../powerpc64-ps3-elf/lib/libsysbase.a(lseek.o)
 .debug_line    0x00000000000127de      0x2c1 /usr/local/ps3dev/ppu/lib/gcc/powerpc64-ps3-elf/7.2.0/../../../../powerpc64-ps3-elf/lib/libsysbase.a(read.o)
 .debug_line    0x0000000000012a9f      0x2c2 /usr/local/ps3dev/ppu/lib/gcc/powerpc64-ps3-elf/7.2.0/../../../../powerpc64-ps3-elf/lib/libsysbase.a(write.o)
 .debug_line    0x0000000000012d61      0x325 /usr/local/ps3dev/ppu/lib/gcc/powerpc64-ps3-elf/7.2.0/../../../../powerpc64-ps3-elf/lib/libsysbase.a(lock.o)
 .debug_line    0x0000000000013086      0x2bf /usr/local/ps3dev/ppu/lib/gcc/powerpc64-ps3-elf/7.2.0/../../../../powerpc64-ps3-elf/lib/libsysbase.a(getpid.o)
 .debug_line    0x0000000000013345      0x240 /usr/local/ps3dev/ppu/lib/gcc/powerpc64-ps3-elf/7.2.0/../../../../powerpc64-ps3-elf/lib/libsysbase.a(kill.o)

.debug_frame    0x0000000000000000     0x3340
 *(.debug_frame)
 .debug_frame   0x0000000000000000       0x60 /usr/local/ps3dev/ppu/lib/gcc/powerpc64-ps3-elf/7.2.0/../../../../powerpc64-ps3-elf/lib/libm.a(lib_a-sf_cos.o)
 .debug_frame   0x0000000000000060       0x60 /usr/local/ps3dev/ppu/lib/gcc/powerpc64-ps3-elf/7.2.0/../../../../powerpc64-ps3-elf/lib/libm.a(lib_a-sf_sin.o)
 .debug_frame   0x00000000000000c0       0x58 /usr/local/ps3dev/ppu/lib/gcc/powerpc64-ps3-elf/7.2.0/../../../../powerpc64-ps3-elf/lib/libm.a(lib_a-sf_tan.o)
 .debug_frame   0x0000000000000118       0x58 /usr/local/ps3dev/ppu/lib/gcc/powerpc64-ps3-elf/7.2.0/../../../../powerpc64-ps3-elf/lib/libm.a(lib_a-w_sqrt.o)
 .debug_frame   0x0000000000000170       0x58 /usr/local/ps3dev/ppu/lib/gcc/powerpc64-ps3-elf/7.2.0/../../../../powerpc64-ps3-elf/lib/libm.a(lib_a-wf_sqrt.o)
 .debug_frame   0x00000000000001c8       0x28 /usr/local/ps3dev/ppu/lib/gcc/powerpc64-ps3-elf/7.2.0/../../../../powerpc64-ps3-elf/lib/libm.a(lib_a-e_sqrt.o)
 .debug_frame   0x00000000000001f0       0x88 /usr/local/ps3dev/ppu/lib/gcc/powerpc64-ps3-elf/7.2.0/../../../../powerpc64-ps3-elf/lib/libm.a(lib_a-ef_rem_pio2.o)
 .debug_frame   0x0000000000000278       0x28 /usr/local/ps3dev/ppu/lib/gcc/powerpc64-ps3-elf/7.2.0/../../../../powerpc64-ps3-elf/lib/libm.a(lib_a-ef_sqrt.o)
 .debug_frame   0x00000000000002a0       0x28 /usr/local/ps3dev/ppu/lib/gcc/powerpc64-ps3-elf/7.2.0/../../../../powerpc64-ps3-elf/lib/libm.a(lib_a-kf_cos.o)
 .debug_frame   0x00000000000002c8       0x88 /usr/local/ps3dev/ppu/lib/gcc/powerpc64-ps3-elf/7.2.0/../../../../powerpc64-ps3-elf/lib/libm.a(lib_a-kf_rem_pio2.o)
 .debug_frame   0x0000000000000350       0x28 /usr/local/ps3dev/ppu/lib/gcc/powerpc64-ps3-elf/7.2.0/../../../../powerpc64-ps3-elf/lib/libm.a(lib_a-kf_sin.o)
 .debug_frame   0x0000000000000378       0x58 /usr/local/ps3dev/ppu/lib/gcc/powerpc64-ps3-elf/7.2.0/../../../../powerpc64-ps3-elf/lib/libm.a(lib_a-kf_tan.o)
 .debug_frame   0x00000000000003d0       0x28 /usr/local/ps3dev/ppu/lib/gcc/powerpc64-ps3-elf/7.2.0/../../../../powerpc64-ps3-elf/lib/libm.a(lib_a-s_fpclassify.o)
 .debug_frame   0x00000000000003f8       0x28 /usr/local/ps3dev/ppu/lib/gcc/powerpc64-ps3-elf/7.2.0/../../../../powerpc64-ps3-elf/lib/libm.a(lib_a-s_matherr.o)
 .debug_frame   0x0000000000000420       0x28 /usr/local/ps3dev/ppu/lib/gcc/powerpc64-ps3-elf/7.2.0/../../../../powerpc64-ps3-elf/lib/libm.a(lib_a-sf_fabs.o)
 .debug_frame   0x0000000000000448       0x28 /usr/local/ps3dev/ppu/lib/gcc/powerpc64-ps3-elf/7.2.0/../../../../powerpc64-ps3-elf/lib/libm.a(lib_a-sf_floor.o)
 .debug_frame   0x0000000000000470       0x28 /usr/local/ps3dev/ppu/lib/gcc/powerpc64-ps3-elf/7.2.0/../../../../powerpc64-ps3-elf/lib/libm.a(lib_a-sf_fpclassify.o)
 .debug_frame   0x0000000000000498       0x58 /usr/local/ps3dev/ppu/lib/gcc/powerpc64-ps3-elf/7.2.0/../../../../powerpc64-ps3-elf/lib/libm.a(lib_a-sf_scalbn.o)
 .debug_frame   0x00000000000004f0       0x28 /usr/local/ps3dev/ppu/lib/gcc/powerpc64-ps3-elf/7.2.0/../../../../powerpc64-ps3-elf/lib/libm.a(lib_a-sf_copysign.o)
 .debug_frame   0x0000000000000518       0x70 /usr/local/ps3dev/ppu/lib/gcc/powerpc64-ps3-elf/7.2.0/../../../../powerpc64-ps3-elf/lib/libsysbase.a(sleep.o)
 .debug_frame   0x0000000000000588       0x38 /usr/local/ps3dev/ppu/lib/gcc/powerpc64-ps3-elf/7.2.0/../../../../powerpc64-ps3-elf/lib/libc.a(lib_a-atexit.o)
 .debug_frame   0x00000000000005c0       0x40 /usr/local/ps3dev/ppu/lib/gcc/powerpc64-ps3-elf/7.2.0/../../../../powerpc64-ps3-elf/lib/libc.a(lib_a-calloc.o)
 .debug_frame   0x0000000000000600       0x48 /usr/local/ps3dev/ppu/lib/gcc/powerpc64-ps3-elf/7.2.0/../../../../powerpc64-ps3-elf/lib/libc.a(lib_a-callocr.o)
 .debug_frame   0x0000000000000648       0x38 /usr/local/ps3dev/ppu/lib/gcc/powerpc64-ps3-elf/7.2.0/../../../../powerpc64-ps3-elf/lib/libc.a(lib_a-errno.o)
 .debug_frame   0x0000000000000680       0x38 /usr/local/ps3dev/ppu/lib/gcc/powerpc64-ps3-elf/7.2.0/../../../../powerpc64-ps3-elf/lib/libc.a(lib_a-exit.o)
 .debug_frame   0x00000000000006b8       0x58 /usr/local/ps3dev/ppu/lib/gcc/powerpc64-ps3-elf/7.2.0/../../../../powerpc64-ps3-elf/lib/libc.a(lib_a-getreent.o)
 .debug_frame   0x0000000000000710       0x40 /usr/local/ps3dev/ppu/lib/gcc/powerpc64-ps3-elf/7.2.0/../../../../powerpc64-ps3-elf/lib/libc.a(lib_a-malign.o)
 .debug_frame   0x0000000000000750       0xa0 /usr/local/ps3dev/ppu/lib/gcc/powerpc64-ps3-elf/7.2.0/../../../../powerpc64-ps3-elf/lib/libc.a(lib_a-malignr.o)
 .debug_frame   0x00000000000007f0       0x70 /usr/local/ps3dev/ppu/lib/gcc/powerpc64-ps3-elf/7.2.0/../../../../powerpc64-ps3-elf/lib/libc.a(lib_a-malloc.o)
 .debug_frame   0x0000000000000860      0x118 /usr/local/ps3dev/ppu/lib/gcc/powerpc64-ps3-elf/7.2.0/../../../../powerpc64-ps3-elf/lib/libc.a(lib_a-mallocr.o)
 .debug_frame   0x0000000000000978       0x28 /usr/local/ps3dev/ppu/lib/gcc/powerpc64-ps3-elf/7.2.0/../../../../powerpc64-ps3-elf/lib/libc.a(lib_a-memcpy.o)
 .debug_frame   0x00000000000009a0       0x28 /usr/local/ps3dev/ppu/lib/gcc/powerpc64-ps3-elf/7.2.0/../../../../powerpc64-ps3-elf/lib/libc.a(lib_a-memset.o)
 .debug_frame   0x00000000000009c8       0x60 /usr/local/ps3dev/ppu/lib/gcc/powerpc64-ps3-elf/7.2.0/../../../../powerpc64-ps3-elf/lib/libc.a(lib_a-mlock.o)
 .debug_frame   0x0000000000000a28       0x78 /usr/local/ps3dev/ppu/lib/gcc/powerpc64-ps3-elf/7.2.0/../../../../powerpc64-ps3-elf/lib/libc.a(lib_a-puts.o)
 .debug_frame   0x0000000000000aa0       0x70 /usr/local/ps3dev/ppu/lib/gcc/powerpc64-ps3-elf/7.2.0/../../../../powerpc64-ps3-elf/lib/libc.a(lib_a-sscanf.o)
 .debug_frame   0x0000000000000b10       0xf8 /usr/local/ps3dev/ppu/lib/gcc/powerpc64-ps3-elf/7.2.0/../../../../powerpc64-ps3-elf/lib/libc.a(lib_a-stdio.o)
 .debug_frame   0x0000000000000c08       0x28 /usr/local/ps3dev/ppu/lib/gcc/powerpc64-ps3-elf/7.2.0/../../../../powerpc64-ps3-elf/lib/libc.a(lib_a-strcasecmp.o)
 .debug_frame   0x0000000000000c30       0x28 /usr/local/ps3dev/ppu/lib/gcc/powerpc64-ps3-elf/7.2.0/../../../../powerpc64-ps3-elf/lib/libc.a(lib_a-strlen.o)
 .debug_frame   0x0000000000000c58       0x28 /usr/local/ps3dev/ppu/lib/gcc/powerpc64-ps3-elf/7.2.0/../../../../powerpc64-ps3-elf/lib/libc.a(lib_a-strncpy.o)
 .debug_frame   0x0000000000000c80      0x158 /usr/local/ps3dev/ppu/lib/gcc/powerpc64-ps3-elf/7.2.0/../../../../powerpc64-ps3-elf/lib/libc.a(lib_a-svfscanf.o)
 .debug_frame   0x0000000000000dd8       0x90 /usr/local/ps3dev/ppu/lib/gcc/powerpc64-ps3-elf/7.2.0/../../../../powerpc64-ps3-elf/lib/libc.a(lib_a-vsnprintf.o)
 .debug_frame   0x0000000000000e68       0x70 /usr/local/ps3dev/ppu/lib/gcc/powerpc64-ps3-elf/7.2.0/../../../../powerpc64-ps3-elf/lib/libc.a(lib_a-vsprintf.o)
 .debug_frame   0x0000000000000ed8       0x58 /usr/local/ps3dev/ppu/lib/gcc/powerpc64-ps3-elf/7.2.0/../../../../powerpc64-ps3-elf/lib/libc.a(lib_a-__atexit.o)
 .debug_frame   0x0000000000000f30       0x70 /usr/local/ps3dev/ppu/lib/gcc/powerpc64-ps3-elf/7.2.0/../../../../powerpc64-ps3-elf/lib/libc.a(lib_a-__call_atexit.o)
 .debug_frame   0x0000000000000fa0       0xa0 /usr/local/ps3dev/ppu/lib/gcc/powerpc64-ps3-elf/7.2.0/../../../../powerpc64-ps3-elf/lib/libc.a(lib_a-freer.o)
 .debug_frame   0x0000000000001040       0xf0 /usr/local/ps3dev/ppu/lib/gcc/powerpc64-ps3-elf/7.2.0/../../../../powerpc64-ps3-elf/lib/libc.a(lib_a-fvwrite.o)
 .debug_frame   0x0000000000001130       0x28 /usr/local/ps3dev/ppu/lib/gcc/powerpc64-ps3-elf/7.2.0/../../../../powerpc64-ps3-elf/lib/libc.a(lib_a-iswspace.o)
 .debug_frame   0x0000000000001158      0x128 /usr/local/ps3dev/ppu/lib/gcc/powerpc64-ps3-elf/7.2.0/../../../../powerpc64-ps3-elf/lib/libc.a(lib_a-locale.o)
 .debug_frame   0x0000000000001280       0xf0 /usr/local/ps3dev/ppu/lib/gcc/powerpc64-ps3-elf/7.2.0/../../../../powerpc64-ps3-elf/lib/libc.a(lib_a-lock_recursive.o)
 .debug_frame   0x0000000000001370       0xa8 /usr/local/ps3dev/ppu/lib/gcc/powerpc64-ps3-elf/7.2.0/../../../../powerpc64-ps3-elf/lib/libc.a(lib_a-mbrtowc.o)
 .debug_frame   0x0000000000001418       0x60 /usr/local/ps3dev/ppu/lib/gcc/powerpc64-ps3-elf/7.2.0/../../../../powerpc64-ps3-elf/lib/libc.a(lib_a-mbtowc_r.o)
 .debug_frame   0x0000000000001478       0x28 /usr/local/ps3dev/ppu/lib/gcc/powerpc64-ps3-elf/7.2.0/../../../../powerpc64-ps3-elf/lib/libc.a(lib_a-memchr.o)
 .debug_frame   0x00000000000014a0       0x28 /usr/local/ps3dev/ppu/lib/gcc/powerpc64-ps3-elf/7.2.0/../../../../powerpc64-ps3-elf/lib/libc.a(lib_a-memmove.o)
 .debug_frame   0x00000000000014c8       0xe0 /usr/local/ps3dev/ppu/lib/gcc/powerpc64-ps3-elf/7.2.0/../../../../powerpc64-ps3-elf/lib/libc.a(lib_a-reallocr.o)
 .debug_frame   0x00000000000015a8       0x28 /usr/local/ps3dev/ppu/lib/gcc/powerpc64-ps3-elf/7.2.0/../../../../powerpc64-ps3-elf/lib/libc.a(lib_a-sccl.o)
 .debug_frame   0x00000000000015d0       0x28 /usr/local/ps3dev/ppu/lib/gcc/powerpc64-ps3-elf/7.2.0/../../../../powerpc64-ps3-elf/lib/libc.a(lib_a-sf_nan.o)
 .debug_frame   0x00000000000015f8       0x68 /usr/local/ps3dev/ppu/lib/gcc/powerpc64-ps3-elf/7.2.0/../../../../powerpc64-ps3-elf/lib/libc.a(lib_a-sprintf.o)
 .debug_frame   0x0000000000001660       0x28 /usr/local/ps3dev/ppu/lib/gcc/powerpc64-ps3-elf/7.2.0/../../../../powerpc64-ps3-elf/lib/libc.a(lib_a-strcmp.o)
 .debug_frame   0x0000000000001688      0x288 /usr/local/ps3dev/ppu/lib/gcc/powerpc64-ps3-elf/7.2.0/../../../../powerpc64-ps3-elf/lib/libc.a(lib_a-strtod.o)
 .debug_frame   0x0000000000001910       0x78 /usr/local/ps3dev/ppu/lib/gcc/powerpc64-ps3-elf/7.2.0/../../../../powerpc64-ps3-elf/lib/libc.a(lib_a-strtol.o)
 .debug_frame   0x0000000000001988       0x40 /usr/local/ps3dev/ppu/lib/gcc/powerpc64-ps3-elf/7.2.0/../../../../powerpc64-ps3-elf/lib/libc.a(lib_a-strtoll_r.o)
 .debug_frame   0x00000000000019c8       0x78 /usr/local/ps3dev/ppu/lib/gcc/powerpc64-ps3-elf/7.2.0/../../../../powerpc64-ps3-elf/lib/libc.a(lib_a-strtoul.o)
 .debug_frame   0x0000000000001a40       0x40 /usr/local/ps3dev/ppu/lib/gcc/powerpc64-ps3-elf/7.2.0/../../../../powerpc64-ps3-elf/lib/libc.a(lib_a-strtoull_r.o)
 .debug_frame   0x0000000000001a80      0x1b0 /usr/local/ps3dev/ppu/lib/gcc/powerpc64-ps3-elf/7.2.0/../../../../powerpc64-ps3-elf/lib/libc.a(lib_a-svfiscanf.o)
 .debug_frame   0x0000000000001c30      0x130 /usr/local/ps3dev/ppu/lib/gcc/powerpc64-ps3-elf/7.2.0/../../../../powerpc64-ps3-elf/lib/libc.a(lib_a-svfprintf.o)
 .debug_frame   0x0000000000001d60      0x100 /usr/local/ps3dev/ppu/lib/gcc/powerpc64-ps3-elf/7.2.0/../../../../powerpc64-ps3-elf/lib/libc.a(lib_a-ungetc.o)
 .debug_frame   0x0000000000001e60       0x48 /usr/local/ps3dev/ppu/lib/gcc/powerpc64-ps3-elf/7.2.0/../../../../powerpc64-ps3-elf/lib/libc.a(lib_a-wsetup.o)
 .debug_frame   0x0000000000001ea8      0x168 /usr/local/ps3dev/ppu/lib/gcc/powerpc64-ps3-elf/7.2.0/../../../../powerpc64-ps3-elf/lib/libc.a(lib_a-dtoa.o)
 .debug_frame   0x0000000000002010      0x158 /usr/local/ps3dev/ppu/lib/gcc/powerpc64-ps3-elf/7.2.0/../../../../powerpc64-ps3-elf/lib/libc.a(lib_a-fflush.o)
 .debug_frame   0x0000000000002168      0x278 /usr/local/ps3dev/ppu/lib/gcc/powerpc64-ps3-elf/7.2.0/../../../../powerpc64-ps3-elf/lib/libc.a(lib_a-findfp.o)
 .debug_frame   0x00000000000023e0       0xb8 /usr/local/ps3dev/ppu/lib/gcc/powerpc64-ps3-elf/7.2.0/../../../../powerpc64-ps3-elf/lib/libc.a(lib_a-fwalk.o)
 .debug_frame   0x0000000000002498      0x110 /usr/local/ps3dev/ppu/lib/gcc/powerpc64-ps3-elf/7.2.0/../../../../powerpc64-ps3-elf/lib/libc.a(lib_a-gdtoa-gethex.o)
 .debug_frame   0x00000000000025a8       0x78 /usr/local/ps3dev/ppu/lib/gcc/powerpc64-ps3-elf/7.2.0/../../../../powerpc64-ps3-elf/lib/libc.a(lib_a-gdtoa-hexnan.o)
 .debug_frame   0x0000000000002620       0x70 /usr/local/ps3dev/ppu/lib/gcc/powerpc64-ps3-elf/7.2.0/../../../../powerpc64-ps3-elf/lib/libc.a(lib_a-lock_internal.o)
 .debug_frame   0x0000000000002690       0x60 /usr/local/ps3dev/ppu/lib/gcc/powerpc64-ps3-elf/7.2.0/../../../../powerpc64-ps3-elf/lib/libc.a(lib_a-makebuf.o)
 .debug_frame   0x00000000000026f0      0x408 /usr/local/ps3dev/ppu/lib/gcc/powerpc64-ps3-elf/7.2.0/../../../../powerpc64-ps3-elf/lib/libc.a(lib_a-mprec.o)
 .debug_frame   0x0000000000002af8       0x28 /usr/local/ps3dev/ppu/lib/gcc/powerpc64-ps3-elf/7.2.0/../../../../powerpc64-ps3-elf/lib/libc.a(lib_a-strncmp.o)
 .debug_frame   0x0000000000002b20      0x1c0 /usr/local/ps3dev/ppu/lib/gcc/powerpc64-ps3-elf/7.2.0/../../../../powerpc64-ps3-elf/lib/libc.a(lib_a-svfiprintf.o)
 .debug_frame   0x0000000000002ce0       0x30 /usr/local/ps3dev/ppu/lib/gcc/powerpc64-ps3-elf/7.2.0/../../../../powerpc64-ps3-elf/lib/libc.a(lib_a-abort.o)
 .debug_frame   0x0000000000002d10       0xa0 /usr/local/ps3dev/ppu/lib/gcc/powerpc64-ps3-elf/7.2.0/../../../../powerpc64-ps3-elf/lib/libc.a(lib_a-fclose.o)
 .debug_frame   0x0000000000002db0      0x220 /usr/local/ps3dev/ppu/lib/gcc/powerpc64-ps3-elf/7.2.0/../../../../powerpc64-ps3-elf/lib/libc.a(lib_a-signal.o)
 .debug_frame   0x0000000000002fd0       0x40 /usr/local/ps3dev/ppu/lib/gcc/powerpc64-ps3-elf/7.2.0/../../../../powerpc64-ps3-elf/lib/libsysbase.a(close.o)
 .debug_frame   0x0000000000003010       0x40 /usr/local/ps3dev/ppu/lib/gcc/powerpc64-ps3-elf/7.2.0/../../../../powerpc64-ps3-elf/lib/libsysbase.a(sbrk.o)
 .debug_frame   0x0000000000003050       0x38 /usr/local/ps3dev/ppu/lib/gcc/powerpc64-ps3-elf/7.2.0/../../../../powerpc64-ps3-elf/lib/libsysbase.a(_exit.o)
 .debug_frame   0x0000000000003088       0x40 /usr/local/ps3dev/ppu/lib/gcc/powerpc64-ps3-elf/7.2.0/../../../../powerpc64-ps3-elf/lib/libsysbase.a(fstat.o)
 .debug_frame   0x00000000000030c8       0x40 /usr/local/ps3dev/ppu/lib/gcc/powerpc64-ps3-elf/7.2.0/../../../../powerpc64-ps3-elf/lib/libsysbase.a(isatty.o)
 .debug_frame   0x0000000000003108       0x40 /usr/local/ps3dev/ppu/lib/gcc/powerpc64-ps3-elf/7.2.0/../../../../powerpc64-ps3-elf/lib/libsysbase.a(lseek.o)
 .debug_frame   0x0000000000003148       0x40 /usr/local/ps3dev/ppu/lib/gcc/powerpc64-ps3-elf/7.2.0/../../../../powerpc64-ps3-elf/lib/libsysbase.a(read.o)
 .debug_frame   0x0000000000003188       0x40 /usr/local/ps3dev/ppu/lib/gcc/powerpc64-ps3-elf/7.2.0/../../../../powerpc64-ps3-elf/lib/libsysbase.a(write.o)
 .debug_frame   0x00000000000031c8      0x110 /usr/local/ps3dev/ppu/lib/gcc/powerpc64-ps3-elf/7.2.0/../../../../powerpc64-ps3-elf/lib/libsysbase.a(lock.o)
 .debug_frame   0x00000000000032d8       0x40 /usr/local/ps3dev/ppu/lib/gcc/powerpc64-ps3-elf/7.2.0/../../../../powerpc64-ps3-elf/lib/libsysbase.a(getpid.o)
 .debug_frame   0x0000000000003318       0x28 /usr/local/ps3dev/ppu/lib/gcc/powerpc64-ps3-elf/7.2.0/../../../../powerpc64-ps3-elf/lib/libsysbase.a(kill.o)

.debug_str      0x0000000000000000     0x31d1
 *(.debug_str)
 .debug_str     0x0000000000000000      0x5c6 /usr/local/ps3dev/ppu/lib/gcc/powerpc64-ps3-elf/7.2.0/../../../../powerpc64-ps3-elf/lib/libm.a(lib_a-sf_cos.o)
                                        0x67b (size before relaxing)
 .debug_str     0x00000000000005c6       0x29 /usr/local/ps3dev/ppu/lib/gcc/powerpc64-ps3-elf/7.2.0/../../../../powerpc64-ps3-elf/lib/libm.a(lib_a-sf_sin.o)
                                        0x67b (size before relaxing)
 .debug_str     0x00000000000005ef       0x37 /usr/local/ps3dev/ppu/lib/gcc/powerpc64-ps3-elf/7.2.0/../../../../powerpc64-ps3-elf/lib/libm.a(lib_a-sf_tan.o)
                                        0x66d (size before relaxing)
 .debug_str     0x0000000000000626       0x88 /usr/local/ps3dev/ppu/lib/gcc/powerpc64-ps3-elf/7.2.0/../../../../powerpc64-ps3-elf/lib/libm.a(lib_a-w_sqrt.o)
                                        0x679 (size before relaxing)
 .debug_str     0x00000000000006ae       0x48 /usr/local/ps3dev/ppu/lib/gcc/powerpc64-ps3-elf/7.2.0/../../../../powerpc64-ps3-elf/lib/libm.a(lib_a-wf_sqrt.o)
                                        0x67c (size before relaxing)
 .debug_str     0x00000000000006f6       0x55 /usr/local/ps3dev/ppu/lib/gcc/powerpc64-ps3-elf/7.2.0/../../../../powerpc64-ps3-elf/lib/libm.a(lib_a-e_sqrt.o)
                                        0x666 (size before relaxing)
 .debug_str     0x000000000000074b       0xa5 /usr/local/ps3dev/ppu/lib/gcc/powerpc64-ps3-elf/7.2.0/../../../../powerpc64-ps3-elf/lib/libm.a(lib_a-ef_rem_pio2.o)
                                        0x6db (size before relaxing)
 .debug_str     0x00000000000007f0       0x2a /usr/local/ps3dev/ppu/lib/gcc/powerpc64-ps3-elf/7.2.0/../../../../powerpc64-ps3-elf/lib/libm.a(lib_a-ef_sqrt.o)
                                        0x661 (size before relaxing)
 .debug_str     0x000000000000081a       0x29 /usr/local/ps3dev/ppu/lib/gcc/powerpc64-ps3-elf/7.2.0/../../../../powerpc64-ps3-elf/lib/libm.a(lib_a-kf_cos.o)
                                        0x659 (size before relaxing)
 .debug_str     0x0000000000000843       0x66 /usr/local/ps3dev/ppu/lib/gcc/powerpc64-ps3-elf/7.2.0/../../../../powerpc64-ps3-elf/lib/libm.a(lib_a-kf_rem_pio2.o)
                                        0x674 (size before relaxing)
 .debug_str     0x00000000000008a9       0x29 /usr/local/ps3dev/ppu/lib/gcc/powerpc64-ps3-elf/7.2.0/../../../../powerpc64-ps3-elf/lib/libm.a(lib_a-kf_sin.o)
                                        0x659 (size before relaxing)
 .debug_str     0x00000000000008d2       0x35 /usr/local/ps3dev/ppu/lib/gcc/powerpc64-ps3-elf/7.2.0/../../../../powerpc64-ps3-elf/lib/libm.a(lib_a-kf_tan.o)
                                        0x66b (size before relaxing)
 .debug_str     0x0000000000000907       0x8e /usr/local/ps3dev/ppu/lib/gcc/powerpc64-ps3-elf/7.2.0/../../../../powerpc64-ps3-elf/lib/libm.a(lib_a-s_fpclassify.o)
                                        0x656 (size before relaxing)
 .debug_str     0x0000000000000995       0x2e /usr/local/ps3dev/ppu/lib/gcc/powerpc64-ps3-elf/7.2.0/../../../../powerpc64-ps3-elf/lib/libm.a(lib_a-s_lib_ver.o)
                                        0x612 (size before relaxing)
 .debug_str     0x00000000000009c3       0x2e /usr/local/ps3dev/ppu/lib/gcc/powerpc64-ps3-elf/7.2.0/../../../../powerpc64-ps3-elf/lib/libm.a(lib_a-s_matherr.o)
                                        0x63f (size before relaxing)
 .debug_str     0x00000000000009f1       0x2a /usr/local/ps3dev/ppu/lib/gcc/powerpc64-ps3-elf/7.2.0/../../../../powerpc64-ps3-elf/lib/libm.a(lib_a-sf_fabs.o)
                                        0x648 (size before relaxing)
 .debug_str     0x0000000000000a1b       0x30 /usr/local/ps3dev/ppu/lib/gcc/powerpc64-ps3-elf/7.2.0/../../../../powerpc64-ps3-elf/lib/libm.a(lib_a-sf_floor.o)
                                        0x659 (size before relaxing)
 .debug_str     0x0000000000000a4b       0x32 /usr/local/ps3dev/ppu/lib/gcc/powerpc64-ps3-elf/7.2.0/../../../../powerpc64-ps3-elf/lib/libm.a(lib_a-sf_fpclassify.o)
                                        0x655 (size before relaxing)
 .debug_str     0x0000000000000a7d       0x45 /usr/local/ps3dev/ppu/lib/gcc/powerpc64-ps3-elf/7.2.0/../../../../powerpc64-ps3-elf/lib/libm.a(lib_a-sf_scalbn.o)
                                        0x67b (size before relaxing)
 .debug_str     0x0000000000000ac2       0x30 /usr/local/ps3dev/ppu/lib/gcc/powerpc64-ps3-elf/7.2.0/../../../../powerpc64-ps3-elf/lib/libm.a(lib_a-sf_copysign.o)
                                        0x654 (size before relaxing)
 .debug_str     0x0000000000000af2      0x4fb /usr/local/ps3dev/ppu/lib/gcc/powerpc64-ps3-elf/7.2.0/../../../../powerpc64-ps3-elf/lib/libsysbase.a(syscalls.o)
                                        0xa7a (size before relaxing)
 .debug_str     0x0000000000000fed       0x3a /usr/local/ps3dev/ppu/lib/gcc/powerpc64-ps3-elf/7.2.0/../../../../powerpc64-ps3-elf/lib/libsysbase.a(sleep.o)
                                        0xaab (size before relaxing)
 .debug_str     0x0000000000001027       0xd6 /usr/local/ps3dev/ppu/lib/gcc/powerpc64-ps3-elf/7.2.0/../../../../powerpc64-ps3-elf/lib/libc.a(lib_a-atexit.o)
                                        0x5f0 (size before relaxing)
 .debug_str     0x00000000000010fd       0x3c /usr/local/ps3dev/ppu/lib/gcc/powerpc64-ps3-elf/7.2.0/../../../../powerpc64-ps3-elf/lib/libc.a(lib_a-calloc.o)
                                        0x5cd (size before relaxing)
 .debug_str     0x0000000000001139      0x14f /usr/local/ps3dev/ppu/lib/gcc/powerpc64-ps3-elf/7.2.0/../../../../powerpc64-ps3-elf/lib/libc.a(lib_a-callocr.o)
                                        0x73d (size before relaxing)
 .debug_str     0x0000000000001288       0x85 /usr/local/ps3dev/ppu/lib/gcc/powerpc64-ps3-elf/7.2.0/../../../../powerpc64-ps3-elf/lib/libc.a(lib_a-errno.o)
                                        0x5c2 (size before relaxing)
 .debug_str     0x000000000000130d       0x45 /usr/local/ps3dev/ppu/lib/gcc/powerpc64-ps3-elf/7.2.0/../../../../powerpc64-ps3-elf/lib/libc.a(lib_a-exit.o)
                                        0x5fd (size before relaxing)
 .debug_str     0x0000000000001352       0xa0 /usr/local/ps3dev/ppu/lib/gcc/powerpc64-ps3-elf/7.2.0/../../../../powerpc64-ps3-elf/lib/libc.a(lib_a-getreent.o)
                                        0x5c5 (size before relaxing)
 .debug_str     0x00000000000013f2       0x92 /usr/local/ps3dev/ppu/lib/gcc/powerpc64-ps3-elf/7.2.0/../../../../powerpc64-ps3-elf/lib/libc.a(lib_a-impure.o)
                                        0x5a5 (size before relaxing)
 .debug_str     0x0000000000001484       0x47 /usr/local/ps3dev/ppu/lib/gcc/powerpc64-ps3-elf/7.2.0/../../../../powerpc64-ps3-elf/lib/libc.a(lib_a-malign.o)
                                        0x5d9 (size before relaxing)
 .debug_str     0x00000000000014cb       0x5f /usr/local/ps3dev/ppu/lib/gcc/powerpc64-ps3-elf/7.2.0/../../../../powerpc64-ps3-elf/lib/libc.a(lib_a-malignr.o)
                                        0x78e (size before relaxing)
 .debug_str     0x000000000000152a       0x30 /usr/local/ps3dev/ppu/lib/gcc/powerpc64-ps3-elf/7.2.0/../../../../powerpc64-ps3-elf/lib/libc.a(lib_a-malloc.o)
                                        0x5e1 (size before relaxing)
 .debug_str     0x000000000000155a       0xae /usr/local/ps3dev/ppu/lib/gcc/powerpc64-ps3-elf/7.2.0/../../../../powerpc64-ps3-elf/lib/libc.a(lib_a-mallocr.o)
                                        0x819 (size before relaxing)
 .debug_str     0x0000000000001608       0xb6 /usr/local/ps3dev/ppu/lib/gcc/powerpc64-ps3-elf/7.2.0/../../../../powerpc64-ps3-elf/lib/libc.a(lib_a-memcpy.o)
                                        0x5d0 (size before relaxing)
 .debug_str     0x00000000000016be       0x3f /usr/local/ps3dev/ppu/lib/gcc/powerpc64-ps3-elf/7.2.0/../../../../powerpc64-ps3-elf/lib/libc.a(lib_a-memset.o)
                                        0x5bd (size before relaxing)
 .debug_str     0x00000000000016fd       0x7b /usr/local/ps3dev/ppu/lib/gcc/powerpc64-ps3-elf/7.2.0/../../../../powerpc64-ps3-elf/lib/libc.a(lib_a-mlock.o)
                                        0x609 (size before relaxing)
 .debug_str     0x0000000000001778      0x1db /usr/local/ps3dev/ppu/lib/gcc/powerpc64-ps3-elf/7.2.0/../../../../powerpc64-ps3-elf/lib/libc.a(lib_a-puts.o)
                                        0x74d (size before relaxing)
 .debug_str     0x0000000000001953       0x6a /usr/local/ps3dev/ppu/lib/gcc/powerpc64-ps3-elf/7.2.0/../../../../powerpc64-ps3-elf/lib/libc.a(lib_a-sscanf.o)
                                        0x73f (size before relaxing)
 .debug_str     0x00000000000019bd       0x80 /usr/local/ps3dev/ppu/lib/gcc/powerpc64-ps3-elf/7.2.0/../../../../powerpc64-ps3-elf/lib/libc.a(lib_a-stdio.o)
                                        0x771 (size before relaxing)
 .debug_str     0x0000000000001a3d       0x5a /usr/local/ps3dev/ppu/lib/gcc/powerpc64-ps3-elf/7.2.0/../../../../powerpc64-ps3-elf/lib/libc.a(lib_a-strcasecmp.o)
                                        0x5d6 (size before relaxing)
 .debug_str     0x0000000000001a97       0x2b /usr/local/ps3dev/ppu/lib/gcc/powerpc64-ps3-elf/7.2.0/../../../../powerpc64-ps3-elf/lib/libc.a(lib_a-strlen.o)
                                        0x5bc (size before relaxing)
 .debug_str     0x0000000000001ac2       0x34 /usr/local/ps3dev/ppu/lib/gcc/powerpc64-ps3-elf/7.2.0/../../../../powerpc64-ps3-elf/lib/libc.a(lib_a-strncpy.o)
                                        0x5d3 (size before relaxing)
 .debug_str     0x0000000000001af6      0x1c4 /usr/local/ps3dev/ppu/lib/gcc/powerpc64-ps3-elf/7.2.0/../../../../powerpc64-ps3-elf/lib/libc.a(lib_a-svfscanf.o)
                                        0x99d (size before relaxing)
 .debug_str     0x0000000000001cba       0x51 /usr/local/ps3dev/ppu/lib/gcc/powerpc64-ps3-elf/7.2.0/../../../../powerpc64-ps3-elf/lib/libc.a(lib_a-vsnprintf.o)
                                        0x763 (size before relaxing)
 .debug_str     0x0000000000001d0b       0x41 /usr/local/ps3dev/ppu/lib/gcc/powerpc64-ps3-elf/7.2.0/../../../../powerpc64-ps3-elf/lib/libc.a(lib_a-vsprintf.o)
                                        0x73d (size before relaxing)
 .debug_str     0x0000000000001d4c       0x3b /usr/local/ps3dev/ppu/lib/gcc/powerpc64-ps3-elf/7.2.0/../../../../powerpc64-ps3-elf/lib/libc.a(lib_a-__atexit.o)
                                        0x652 (size before relaxing)
 .debug_str     0x0000000000001d87       0x40 /usr/local/ps3dev/ppu/lib/gcc/powerpc64-ps3-elf/7.2.0/../../../../powerpc64-ps3-elf/lib/libc.a(lib_a-__call_atexit.o)
                                        0x624 (size before relaxing)
 .debug_str     0x0000000000001dc7       0x86 /usr/local/ps3dev/ppu/lib/gcc/powerpc64-ps3-elf/7.2.0/../../../../powerpc64-ps3-elf/lib/libc.a(lib_a-ctype_.o)
                                        0x104 (size before relaxing)
 .debug_str     0x0000000000001e4d       0x34 /usr/local/ps3dev/ppu/lib/gcc/powerpc64-ps3-elf/7.2.0/../../../../powerpc64-ps3-elf/lib/libc.a(lib_a-freer.o)
                                        0x792 (size before relaxing)
 .debug_str     0x0000000000001e81       0x71 /usr/local/ps3dev/ppu/lib/gcc/powerpc64-ps3-elf/7.2.0/../../../../powerpc64-ps3-elf/lib/libc.a(lib_a-fvwrite.o)
                                        0x7b4 (size before relaxing)
 .debug_str     0x0000000000001ef2       0x2c /usr/local/ps3dev/ppu/lib/gcc/powerpc64-ps3-elf/7.2.0/../../../../powerpc64-ps3-elf/lib/libc.a(lib_a-iswspace.o)
                                        0x5ba (size before relaxing)
 .debug_str     0x0000000000001f1e      0x256 /usr/local/ps3dev/ppu/lib/gcc/powerpc64-ps3-elf/7.2.0/../../../../powerpc64-ps3-elf/lib/libc.a(lib_a-locale.o)
                                        0x886 (size before relaxing)
 .debug_str     0x0000000000002174      0x14b /usr/local/ps3dev/ppu/lib/gcc/powerpc64-ps3-elf/7.2.0/../../../../powerpc64-ps3-elf/lib/libc.a(lib_a-lock_recursive.o)
                                        0x73d (size before relaxing)
 .debug_str     0x00000000000022bf       0x34 /usr/local/ps3dev/ppu/lib/gcc/powerpc64-ps3-elf/7.2.0/../../../../powerpc64-ps3-elf/lib/libc.a(lib_a-mbrtowc.o)
                                        0x644 (size before relaxing)
 .debug_str     0x00000000000022f3       0xab /usr/local/ps3dev/ppu/lib/gcc/powerpc64-ps3-elf/7.2.0/../../../../powerpc64-ps3-elf/lib/libc.a(lib_a-mbtowc_r.o)
                                        0x64f (size before relaxing)
 .debug_str     0x000000000000239e       0x40 /usr/local/ps3dev/ppu/lib/gcc/powerpc64-ps3-elf/7.2.0/../../../../powerpc64-ps3-elf/lib/libc.a(lib_a-memchr.o)
                                        0x5c3 (size before relaxing)
 .debug_str     0x00000000000023de       0x35 /usr/local/ps3dev/ppu/lib/gcc/powerpc64-ps3-elf/7.2.0/../../../../powerpc64-ps3-elf/lib/libc.a(lib_a-memmove.o)
                                        0x5e8 (size before relaxing)
 .debug_str     0x0000000000002413       0x49 /usr/local/ps3dev/ppu/lib/gcc/powerpc64-ps3-elf/7.2.0/../../../../powerpc64-ps3-elf/lib/libc.a(lib_a-reallocr.o)
                                        0x7d0 (size before relaxing)
 .debug_str     0x000000000000245c       0x38 /usr/local/ps3dev/ppu/lib/gcc/powerpc64-ps3-elf/7.2.0/../../../../powerpc64-ps3-elf/lib/libc.a(lib_a-sccl.o)
                                        0x6f5 (size before relaxing)
 .debug_str     0x0000000000002494       0x2b /usr/local/ps3dev/ppu/lib/gcc/powerpc64-ps3-elf/7.2.0/../../../../powerpc64-ps3-elf/lib/libc.a(lib_a-sf_nan.o)
                                        0x64c (size before relaxing)
 .debug_str     0x00000000000024bf       0x36 /usr/local/ps3dev/ppu/lib/gcc/powerpc64-ps3-elf/7.2.0/../../../../powerpc64-ps3-elf/lib/libc.a(lib_a-sprintf.o)
                                        0x73a (size before relaxing)
 .debug_str     0x00000000000024f5       0x2b /usr/local/ps3dev/ppu/lib/gcc/powerpc64-ps3-elf/7.2.0/../../../../powerpc64-ps3-elf/lib/libc.a(lib_a-strcmp.o)
                                        0x5a2 (size before relaxing)
 .debug_str     0x0000000000002520      0x269 /usr/local/ps3dev/ppu/lib/gcc/powerpc64-ps3-elf/7.2.0/../../../../powerpc64-ps3-elf/lib/libc.a(lib_a-strtod.o)
                                        0x8e6 (size before relaxing)
 .debug_str     0x0000000000002789       0x47 /usr/local/ps3dev/ppu/lib/gcc/powerpc64-ps3-elf/7.2.0/../../../../powerpc64-ps3-elf/lib/libc.a(lib_a-strtol.o)
                                        0x612 (size before relaxing)
 .debug_str     0x00000000000027d0       0x2e /usr/local/ps3dev/ppu/lib/gcc/powerpc64-ps3-elf/7.2.0/../../../../powerpc64-ps3-elf/lib/libc.a(lib_a-strtoll_r.o)
                                        0x604 (size before relaxing)
 .debug_str     0x00000000000027fe       0x3f /usr/local/ps3dev/ppu/lib/gcc/powerpc64-ps3-elf/7.2.0/../../../../powerpc64-ps3-elf/lib/libc.a(lib_a-strtoul.o)
                                        0x615 (size before relaxing)
 .debug_str     0x000000000000283d       0x2f /usr/local/ps3dev/ppu/lib/gcc/powerpc64-ps3-elf/7.2.0/../../../../powerpc64-ps3-elf/lib/libc.a(lib_a-strtoull_r.o)
                                        0x606 (size before relaxing)
 .debug_str     0x000000000000286c       0x1f /usr/local/ps3dev/ppu/lib/gcc/powerpc64-ps3-elf/7.2.0/../../../../powerpc64-ps3-elf/lib/libc.a(lib_a-svfiscanf.o)
                                        0x8f1 (size before relaxing)
 .debug_str     0x000000000000288b      0x128 /usr/local/ps3dev/ppu/lib/gcc/powerpc64-ps3-elf/7.2.0/../../../../powerpc64-ps3-elf/lib/libc.a(lib_a-svfprintf.o)
                                        0x9d3 (size before relaxing)
 .debug_str     0x00000000000029b3       0x43 /usr/local/ps3dev/ppu/lib/gcc/powerpc64-ps3-elf/7.2.0/../../../../powerpc64-ps3-elf/lib/libc.a(lib_a-ungetc.o)
                                        0x781 (size before relaxing)
 .debug_str     0x00000000000029f6       0x37 /usr/local/ps3dev/ppu/lib/gcc/powerpc64-ps3-elf/7.2.0/../../../../powerpc64-ps3-elf/lib/libc.a(lib_a-wsetup.o)
                                        0x730 (size before relaxing)
 .debug_str     0x0000000000002a2d       0xcf /usr/local/ps3dev/ppu/lib/gcc/powerpc64-ps3-elf/7.2.0/../../../../powerpc64-ps3-elf/lib/libc.a(lib_a-dtoa.o)
                                        0x7a5 (size before relaxing)
 .debug_str     0x0000000000002afc       0x5a /usr/local/ps3dev/ppu/lib/gcc/powerpc64-ps3-elf/7.2.0/../../../../powerpc64-ps3-elf/lib/libc.a(lib_a-fflush.o)
                                        0x794 (size before relaxing)
 .debug_str     0x0000000000002b56       0xf1 /usr/local/ps3dev/ppu/lib/gcc/powerpc64-ps3-elf/7.2.0/../../../../powerpc64-ps3-elf/lib/libc.a(lib_a-findfp.o)
                                        0x873 (size before relaxing)
 .debug_str     0x0000000000002c47       0x38 /usr/local/ps3dev/ppu/lib/gcc/powerpc64-ps3-elf/7.2.0/../../../../powerpc64-ps3-elf/lib/libc.a(lib_a-fwalk.o)
                                        0x727 (size before relaxing)
 .debug_str     0x0000000000002c7f       0xd5 /usr/local/ps3dev/ppu/lib/gcc/powerpc64-ps3-elf/7.2.0/../../../../powerpc64-ps3-elf/lib/libc.a(lib_a-gdtoa-gethex.o)
                                        0x87f (size before relaxing)
 .debug_str     0x0000000000002d54       0x39 /usr/local/ps3dev/ppu/lib/gcc/powerpc64-ps3-elf/7.2.0/../../../../powerpc64-ps3-elf/lib/libc.a(lib_a-gdtoa-hexnan.o)
                                        0x77e (size before relaxing)
 .debug_str     0x0000000000002d8d       0x53 /usr/local/ps3dev/ppu/lib/gcc/powerpc64-ps3-elf/7.2.0/../../../../powerpc64-ps3-elf/lib/libc.a(lib_a-lock_internal.o)
                                        0x69f (size before relaxing)
 .debug_str     0x0000000000002de0       0x49 /usr/local/ps3dev/ppu/lib/gcc/powerpc64-ps3-elf/7.2.0/../../../../powerpc64-ps3-elf/lib/libc.a(lib_a-makebuf.o)
                                        0x830 (size before relaxing)
 .debug_str     0x0000000000002e29       0x52 /usr/local/ps3dev/ppu/lib/gcc/powerpc64-ps3-elf/7.2.0/../../../../powerpc64-ps3-elf/lib/libc.a(lib_a-mprec.o)
                                        0x74e (size before relaxing)
 .debug_str     0x0000000000002e7b       0x2c /usr/local/ps3dev/ppu/lib/gcc/powerpc64-ps3-elf/7.2.0/../../../../powerpc64-ps3-elf/lib/libc.a(lib_a-strncmp.o)
                                        0x5ab (size before relaxing)
 .debug_str     0x0000000000002ea7        0xe /usr/local/ps3dev/ppu/lib/gcc/powerpc64-ps3-elf/7.2.0/../../../../powerpc64-ps3-elf/lib/libc.a(lib_a-svfiprintf.o)
                                        0x938 (size before relaxing)
 .debug_str     0x0000000000002eb5       0x30 /usr/local/ps3dev/ppu/lib/gcc/powerpc64-ps3-elf/7.2.0/../../../../powerpc64-ps3-elf/lib/libc.a(lib_a-abort.o)
                                        0x5ef (size before relaxing)
 .debug_str     0x0000000000002ee5       0x3b /usr/local/ps3dev/ppu/lib/gcc/powerpc64-ps3-elf/7.2.0/../../../../powerpc64-ps3-elf/lib/libc.a(lib_a-fclose.o)
                                        0x79e (size before relaxing)
 .debug_str     0x0000000000002f20       0xee /usr/local/ps3dev/ppu/lib/gcc/powerpc64-ps3-elf/7.2.0/../../../../powerpc64-ps3-elf/lib/libc.a(lib_a-signal.o)
                                        0x65f (size before relaxing)
 .debug_str     0x000000000000300e       0x28 /usr/local/ps3dev/ppu/lib/gcc/powerpc64-ps3-elf/7.2.0/../../../../powerpc64-ps3-elf/lib/libsysbase.a(close.o)
                                        0xa97 (size before relaxing)
 .debug_str     0x0000000000003036       0x2c /usr/local/ps3dev/ppu/lib/gcc/powerpc64-ps3-elf/7.2.0/../../../../powerpc64-ps3-elf/lib/libsysbase.a(sbrk.o)
                                        0xa9a (size before relaxing)
 .debug_str     0x0000000000003062       0x28 /usr/local/ps3dev/ppu/lib/gcc/powerpc64-ps3-elf/7.2.0/../../../../powerpc64-ps3-elf/lib/libsysbase.a(_exit.o)
                                        0xa7d (size before relaxing)
 .debug_str     0x000000000000308a       0x28 /usr/local/ps3dev/ppu/lib/gcc/powerpc64-ps3-elf/7.2.0/../../../../powerpc64-ps3-elf/lib/libsysbase.a(fstat.o)
                                        0xa97 (size before relaxing)
 .debug_str     0x00000000000030b2       0x29 /usr/local/ps3dev/ppu/lib/gcc/powerpc64-ps3-elf/7.2.0/../../../../powerpc64-ps3-elf/lib/libsysbase.a(isatty.o)
                                        0xa99 (size before relaxing)
 .debug_str     0x00000000000030db       0x28 /usr/local/ps3dev/ppu/lib/gcc/powerpc64-ps3-elf/7.2.0/../../../../powerpc64-ps3-elf/lib/libsysbase.a(lseek.o)
                                        0xa97 (size before relaxing)
 .debug_str     0x0000000000003103       0x27 /usr/local/ps3dev/ppu/lib/gcc/powerpc64-ps3-elf/7.2.0/../../../../powerpc64-ps3-elf/lib/libsysbase.a(read.o)
                                        0xa95 (size before relaxing)
 .debug_str     0x000000000000312a       0x28 /usr/local/ps3dev/ppu/lib/gcc/powerpc64-ps3-elf/7.2.0/../../../../powerpc64-ps3-elf/lib/libsysbase.a(write.o)
                                        0xa97 (size before relaxing)
 .debug_str     0x0000000000003152       0x2f /usr/local/ps3dev/ppu/lib/gcc/powerpc64-ps3-elf/7.2.0/../../../../powerpc64-ps3-elf/lib/libsysbase.a(lock.o)
                                        0xb0c (size before relaxing)
 .debug_str     0x0000000000003181       0x29 /usr/local/ps3dev/ppu/lib/gcc/powerpc64-ps3-elf/7.2.0/../../../../powerpc64-ps3-elf/lib/libsysbase.a(getpid.o)
                                        0xa99 (size before relaxing)
 .debug_str     0x00000000000031aa       0x27 /usr/local/ps3dev/ppu/lib/gcc/powerpc64-ps3-elf/7.2.0/../../../../powerpc64-ps3-elf/lib/libsysbase.a(kill.o)
                                        0x5b5 (size before relaxing)

.debug_loc      0x0000000000000000    0x28add
 *(.debug_loc)
 .debug_loc     0x0000000000000000      0x1f5 /usr/local/ps3dev/ppu/lib/gcc/powerpc64-ps3-elf/7.2.0/../../../../powerpc64-ps3-elf/lib/libm.a(lib_a-sf_cos.o)
 .debug_loc     0x00000000000001f5      0x1f5 /usr/local/ps3dev/ppu/lib/gcc/powerpc64-ps3-elf/7.2.0/../../../../powerpc64-ps3-elf/lib/libm.a(lib_a-sf_sin.o)
 .debug_loc     0x00000000000003ea      0x194 /usr/local/ps3dev/ppu/lib/gcc/powerpc64-ps3-elf/7.2.0/../../../../powerpc64-ps3-elf/lib/libm.a(lib_a-sf_tan.o)
 .debug_loc     0x000000000000057e      0x104 /usr/local/ps3dev/ppu/lib/gcc/powerpc64-ps3-elf/7.2.0/../../../../powerpc64-ps3-elf/lib/libm.a(lib_a-w_sqrt.o)
 .debug_loc     0x0000000000000682      0x104 /usr/local/ps3dev/ppu/lib/gcc/powerpc64-ps3-elf/7.2.0/../../../../powerpc64-ps3-elf/lib/libm.a(lib_a-wf_sqrt.o)
 .debug_loc     0x0000000000000786      0x780 /usr/local/ps3dev/ppu/lib/gcc/powerpc64-ps3-elf/7.2.0/../../../../powerpc64-ps3-elf/lib/libm.a(lib_a-e_sqrt.o)
 .debug_loc     0x0000000000000f06      0xab6 /usr/local/ps3dev/ppu/lib/gcc/powerpc64-ps3-elf/7.2.0/../../../../powerpc64-ps3-elf/lib/libm.a(lib_a-ef_rem_pio2.o)
 .debug_loc     0x00000000000019bc      0x40d /usr/local/ps3dev/ppu/lib/gcc/powerpc64-ps3-elf/7.2.0/../../../../powerpc64-ps3-elf/lib/libm.a(lib_a-ef_sqrt.o)
 .debug_loc     0x0000000000001dc9      0x3b8 /usr/local/ps3dev/ppu/lib/gcc/powerpc64-ps3-elf/7.2.0/../../../../powerpc64-ps3-elf/lib/libm.a(lib_a-kf_cos.o)
 .debug_loc     0x0000000000002181     0x10ef /usr/local/ps3dev/ppu/lib/gcc/powerpc64-ps3-elf/7.2.0/../../../../powerpc64-ps3-elf/lib/libm.a(lib_a-kf_rem_pio2.o)
 .debug_loc     0x0000000000003270      0x118 /usr/local/ps3dev/ppu/lib/gcc/powerpc64-ps3-elf/7.2.0/../../../../powerpc64-ps3-elf/lib/libm.a(lib_a-kf_sin.o)
 .debug_loc     0x0000000000003388      0x81f /usr/local/ps3dev/ppu/lib/gcc/powerpc64-ps3-elf/7.2.0/../../../../powerpc64-ps3-elf/lib/libm.a(lib_a-kf_tan.o)
 .debug_loc     0x0000000000003ba7       0xcb /usr/local/ps3dev/ppu/lib/gcc/powerpc64-ps3-elf/7.2.0/../../../../powerpc64-ps3-elf/lib/libm.a(lib_a-s_fpclassify.o)
 .debug_loc     0x0000000000003c72       0x39 /usr/local/ps3dev/ppu/lib/gcc/powerpc64-ps3-elf/7.2.0/../../../../powerpc64-ps3-elf/lib/libm.a(lib_a-s_matherr.o)
 .debug_loc     0x0000000000003cab       0x64 /usr/local/ps3dev/ppu/lib/gcc/powerpc64-ps3-elf/7.2.0/../../../../powerpc64-ps3-elf/lib/libm.a(lib_a-sf_fabs.o)
 .debug_loc     0x0000000000003d0f      0x299 /usr/local/ps3dev/ppu/lib/gcc/powerpc64-ps3-elf/7.2.0/../../../../powerpc64-ps3-elf/lib/libm.a(lib_a-sf_floor.o)
 .debug_loc     0x0000000000003fa8       0x23 /usr/local/ps3dev/ppu/lib/gcc/powerpc64-ps3-elf/7.2.0/../../../../powerpc64-ps3-elf/lib/libm.a(lib_a-sf_fpclassify.o)
 .debug_loc     0x0000000000003fcb      0x40f /usr/local/ps3dev/ppu/lib/gcc/powerpc64-ps3-elf/7.2.0/../../../../powerpc64-ps3-elf/lib/libm.a(lib_a-sf_scalbn.o)
 .debug_loc     0x00000000000043da       0x6c /usr/local/ps3dev/ppu/lib/gcc/powerpc64-ps3-elf/7.2.0/../../../../powerpc64-ps3-elf/lib/libm.a(lib_a-sf_copysign.o)
 .debug_loc     0x0000000000004446      0x12a /usr/local/ps3dev/ppu/lib/gcc/powerpc64-ps3-elf/7.2.0/../../../../powerpc64-ps3-elf/lib/libsysbase.a(sleep.o)
 .debug_loc     0x0000000000004570       0x4c /usr/local/ps3dev/ppu/lib/gcc/powerpc64-ps3-elf/7.2.0/../../../../powerpc64-ps3-elf/lib/libc.a(lib_a-atexit.o)
 .debug_loc     0x00000000000045bc       0x98 /usr/local/ps3dev/ppu/lib/gcc/powerpc64-ps3-elf/7.2.0/../../../../powerpc64-ps3-elf/lib/libc.a(lib_a-calloc.o)
 .debug_loc     0x0000000000004654      0x373 /usr/local/ps3dev/ppu/lib/gcc/powerpc64-ps3-elf/7.2.0/../../../../powerpc64-ps3-elf/lib/libc.a(lib_a-callocr.o)
 .debug_loc     0x00000000000049c7       0x39 /usr/local/ps3dev/ppu/lib/gcc/powerpc64-ps3-elf/7.2.0/../../../../powerpc64-ps3-elf/lib/libc.a(lib_a-exit.o)
 .debug_loc     0x0000000000004a00       0x5c /usr/local/ps3dev/ppu/lib/gcc/powerpc64-ps3-elf/7.2.0/../../../../powerpc64-ps3-elf/lib/libc.a(lib_a-getreent.o)
 .debug_loc     0x0000000000004a5c       0x98 /usr/local/ps3dev/ppu/lib/gcc/powerpc64-ps3-elf/7.2.0/../../../../powerpc64-ps3-elf/lib/libc.a(lib_a-malign.o)
 .debug_loc     0x0000000000004af4      0x457 /usr/local/ps3dev/ppu/lib/gcc/powerpc64-ps3-elf/7.2.0/../../../../powerpc64-ps3-elf/lib/libc.a(lib_a-malignr.o)
 .debug_loc     0x0000000000004f4b       0x98 /usr/local/ps3dev/ppu/lib/gcc/powerpc64-ps3-elf/7.2.0/../../../../powerpc64-ps3-elf/lib/libc.a(lib_a-malloc.o)
 .debug_loc     0x0000000000004fe3     0x15a2 /usr/local/ps3dev/ppu/lib/gcc/powerpc64-ps3-elf/7.2.0/../../../../powerpc64-ps3-elf/lib/libc.a(lib_a-mallocr.o)
 .debug_loc     0x0000000000006585      0x4a6 /usr/local/ps3dev/ppu/lib/gcc/powerpc64-ps3-elf/7.2.0/../../../../powerpc64-ps3-elf/lib/libc.a(lib_a-memcpy.o)
 .debug_loc     0x0000000000006a2b      0x323 /usr/local/ps3dev/ppu/lib/gcc/powerpc64-ps3-elf/7.2.0/../../../../powerpc64-ps3-elf/lib/libc.a(lib_a-memset.o)
 .debug_loc     0x0000000000006d4e       0x72 /usr/local/ps3dev/ppu/lib/gcc/powerpc64-ps3-elf/7.2.0/../../../../powerpc64-ps3-elf/lib/libc.a(lib_a-mlock.o)
 .debug_loc     0x0000000000006dc0      0x140 /usr/local/ps3dev/ppu/lib/gcc/powerpc64-ps3-elf/7.2.0/../../../../powerpc64-ps3-elf/lib/libc.a(lib_a-puts.o)
 .debug_loc     0x0000000000006f00      0x1f3 /usr/local/ps3dev/ppu/lib/gcc/powerpc64-ps3-elf/7.2.0/../../../../powerpc64-ps3-elf/lib/libc.a(lib_a-sscanf.o)
 .debug_loc     0x00000000000070f3      0x577 /usr/local/ps3dev/ppu/lib/gcc/powerpc64-ps3-elf/7.2.0/../../../../powerpc64-ps3-elf/lib/libc.a(lib_a-stdio.o)
 .debug_loc     0x000000000000766a      0x270 /usr/local/ps3dev/ppu/lib/gcc/powerpc64-ps3-elf/7.2.0/../../../../powerpc64-ps3-elf/lib/libc.a(lib_a-strcasecmp.o)
 .debug_loc     0x00000000000078da      0x103 /usr/local/ps3dev/ppu/lib/gcc/powerpc64-ps3-elf/7.2.0/../../../../powerpc64-ps3-elf/lib/libc.a(lib_a-strlen.o)
 .debug_loc     0x00000000000079dd      0x27e /usr/local/ps3dev/ppu/lib/gcc/powerpc64-ps3-elf/7.2.0/../../../../powerpc64-ps3-elf/lib/libc.a(lib_a-strncpy.o)
 .debug_loc     0x0000000000007c5b     0x2871 /usr/local/ps3dev/ppu/lib/gcc/powerpc64-ps3-elf/7.2.0/../../../../powerpc64-ps3-elf/lib/libc.a(lib_a-svfscanf.o)
 .debug_loc     0x000000000000a4cc      0x4a8 /usr/local/ps3dev/ppu/lib/gcc/powerpc64-ps3-elf/7.2.0/../../../../powerpc64-ps3-elf/lib/libc.a(lib_a-vsnprintf.o)
 .debug_loc     0x000000000000a974      0x214 /usr/local/ps3dev/ppu/lib/gcc/powerpc64-ps3-elf/7.2.0/../../../../powerpc64-ps3-elf/lib/libc.a(lib_a-vsprintf.o)
 .debug_loc     0x000000000000ab88      0x1fe /usr/local/ps3dev/ppu/lib/gcc/powerpc64-ps3-elf/7.2.0/../../../../powerpc64-ps3-elf/lib/libc.a(lib_a-__atexit.o)
 .debug_loc     0x000000000000ad86      0x343 /usr/local/ps3dev/ppu/lib/gcc/powerpc64-ps3-elf/7.2.0/../../../../powerpc64-ps3-elf/lib/libc.a(lib_a-__call_atexit.o)
 .debug_loc     0x000000000000b0c9      0x8b3 /usr/local/ps3dev/ppu/lib/gcc/powerpc64-ps3-elf/7.2.0/../../../../powerpc64-ps3-elf/lib/libc.a(lib_a-freer.o)
 .debug_loc     0x000000000000b97c      0xa59 /usr/local/ps3dev/ppu/lib/gcc/powerpc64-ps3-elf/7.2.0/../../../../powerpc64-ps3-elf/lib/libc.a(lib_a-fvwrite.o)
 .debug_loc     0x000000000000c3d5       0x62 /usr/local/ps3dev/ppu/lib/gcc/powerpc64-ps3-elf/7.2.0/../../../../powerpc64-ps3-elf/lib/libc.a(lib_a-iswspace.o)
 .debug_loc     0x000000000000c437      0x276 /usr/local/ps3dev/ppu/lib/gcc/powerpc64-ps3-elf/7.2.0/../../../../powerpc64-ps3-elf/lib/libc.a(lib_a-locale.o)
 .debug_loc     0x000000000000c6ad      0x156 /usr/local/ps3dev/ppu/lib/gcc/powerpc64-ps3-elf/7.2.0/../../../../powerpc64-ps3-elf/lib/libc.a(lib_a-lock_recursive.o)
 .debug_loc     0x000000000000c803      0x514 /usr/local/ps3dev/ppu/lib/gcc/powerpc64-ps3-elf/7.2.0/../../../../powerpc64-ps3-elf/lib/libc.a(lib_a-mbrtowc.o)
 .debug_loc     0x000000000000cd17      0x211 /usr/local/ps3dev/ppu/lib/gcc/powerpc64-ps3-elf/7.2.0/../../../../powerpc64-ps3-elf/lib/libc.a(lib_a-mbtowc_r.o)
 .debug_loc     0x000000000000cf28      0x24b /usr/local/ps3dev/ppu/lib/gcc/powerpc64-ps3-elf/7.2.0/../../../../powerpc64-ps3-elf/lib/libc.a(lib_a-memchr.o)
 .debug_loc     0x000000000000d173      0x5cf /usr/local/ps3dev/ppu/lib/gcc/powerpc64-ps3-elf/7.2.0/../../../../powerpc64-ps3-elf/lib/libc.a(lib_a-memmove.o)
 .debug_loc     0x000000000000d742     0x1c58 /usr/local/ps3dev/ppu/lib/gcc/powerpc64-ps3-elf/7.2.0/../../../../powerpc64-ps3-elf/lib/libc.a(lib_a-reallocr.o)
 .debug_loc     0x000000000000f39a      0x311 /usr/local/ps3dev/ppu/lib/gcc/powerpc64-ps3-elf/7.2.0/../../../../powerpc64-ps3-elf/lib/libc.a(lib_a-sccl.o)
 .debug_loc     0x000000000000f6ab      0x1fc /usr/local/ps3dev/ppu/lib/gcc/powerpc64-ps3-elf/7.2.0/../../../../powerpc64-ps3-elf/lib/libc.a(lib_a-sprintf.o)
 .debug_loc     0x000000000000f8a7      0x224 /usr/local/ps3dev/ppu/lib/gcc/powerpc64-ps3-elf/7.2.0/../../../../powerpc64-ps3-elf/lib/libc.a(lib_a-strcmp.o)
 .debug_loc     0x000000000000facb     0x3742 /usr/local/ps3dev/ppu/lib/gcc/powerpc64-ps3-elf/7.2.0/../../../../powerpc64-ps3-elf/lib/libc.a(lib_a-strtod.o)
 .debug_loc     0x000000000001320d      0x693 /usr/local/ps3dev/ppu/lib/gcc/powerpc64-ps3-elf/7.2.0/../../../../powerpc64-ps3-elf/lib/libc.a(lib_a-strtol.o)
 .debug_loc     0x00000000000138a0      0x59c /usr/local/ps3dev/ppu/lib/gcc/powerpc64-ps3-elf/7.2.0/../../../../powerpc64-ps3-elf/lib/libc.a(lib_a-strtoll_r.o)
 .debug_loc     0x0000000000013e3c      0x66e /usr/local/ps3dev/ppu/lib/gcc/powerpc64-ps3-elf/7.2.0/../../../../powerpc64-ps3-elf/lib/libc.a(lib_a-strtoul.o)
 .debug_loc     0x00000000000144aa      0x577 /usr/local/ps3dev/ppu/lib/gcc/powerpc64-ps3-elf/7.2.0/../../../../powerpc64-ps3-elf/lib/libc.a(lib_a-strtoull_r.o)
 .debug_loc     0x0000000000014a21     0x1f4d /usr/local/ps3dev/ppu/lib/gcc/powerpc64-ps3-elf/7.2.0/../../../../powerpc64-ps3-elf/lib/libc.a(lib_a-svfiscanf.o)
 .debug_loc     0x000000000001696e     0x320d /usr/local/ps3dev/ppu/lib/gcc/powerpc64-ps3-elf/7.2.0/../../../../powerpc64-ps3-elf/lib/libc.a(lib_a-svfprintf.o)
 .debug_loc     0x0000000000019b7b      0x495 /usr/local/ps3dev/ppu/lib/gcc/powerpc64-ps3-elf/7.2.0/../../../../powerpc64-ps3-elf/lib/libc.a(lib_a-ungetc.o)
 .debug_loc     0x000000000001a010       0xbe /usr/local/ps3dev/ppu/lib/gcc/powerpc64-ps3-elf/7.2.0/../../../../powerpc64-ps3-elf/lib/libc.a(lib_a-wsetup.o)
 .debug_loc     0x000000000001a0ce     0x3eda /usr/local/ps3dev/ppu/lib/gcc/powerpc64-ps3-elf/7.2.0/../../../../powerpc64-ps3-elf/lib/libc.a(lib_a-dtoa.o)
 .debug_loc     0x000000000001dfa8      0x8ac /usr/local/ps3dev/ppu/lib/gcc/powerpc64-ps3-elf/7.2.0/../../../../powerpc64-ps3-elf/lib/libc.a(lib_a-fflush.o)
 .debug_loc     0x000000000001e854      0x489 /usr/local/ps3dev/ppu/lib/gcc/powerpc64-ps3-elf/7.2.0/../../../../powerpc64-ps3-elf/lib/libc.a(lib_a-findfp.o)
 .debug_loc     0x000000000001ecdd      0x4cb /usr/local/ps3dev/ppu/lib/gcc/powerpc64-ps3-elf/7.2.0/../../../../powerpc64-ps3-elf/lib/libc.a(lib_a-fwalk.o)
 .debug_loc     0x000000000001f1a8     0x1e8c /usr/local/ps3dev/ppu/lib/gcc/powerpc64-ps3-elf/7.2.0/../../../../powerpc64-ps3-elf/lib/libc.a(lib_a-gdtoa-gethex.o)
 .debug_loc     0x0000000000021034      0x98a /usr/local/ps3dev/ppu/lib/gcc/powerpc64-ps3-elf/7.2.0/../../../../powerpc64-ps3-elf/lib/libc.a(lib_a-gdtoa-hexnan.o)
 .debug_loc     0x00000000000219be       0x5f /usr/local/ps3dev/ppu/lib/gcc/powerpc64-ps3-elf/7.2.0/../../../../powerpc64-ps3-elf/lib/libc.a(lib_a-lock_internal.o)
 .debug_loc     0x0000000000021a1d      0x273 /usr/local/ps3dev/ppu/lib/gcc/powerpc64-ps3-elf/7.2.0/../../../../powerpc64-ps3-elf/lib/libc.a(lib_a-makebuf.o)
 .debug_loc     0x0000000000021c90     0x377c /usr/local/ps3dev/ppu/lib/gcc/powerpc64-ps3-elf/7.2.0/../../../../powerpc64-ps3-elf/lib/libc.a(lib_a-mprec.o)
 .debug_loc     0x000000000002540c      0x1b6 /usr/local/ps3dev/ppu/lib/gcc/powerpc64-ps3-elf/7.2.0/../../../../powerpc64-ps3-elf/lib/libc.a(lib_a-strncmp.o)
 .debug_loc     0x00000000000255c2     0x1bfd /usr/local/ps3dev/ppu/lib/gcc/powerpc64-ps3-elf/7.2.0/../../../../powerpc64-ps3-elf/lib/libc.a(lib_a-svfiprintf.o)
 .debug_loc     0x00000000000271bf      0x237 /usr/local/ps3dev/ppu/lib/gcc/powerpc64-ps3-elf/7.2.0/../../../../powerpc64-ps3-elf/lib/libc.a(lib_a-fclose.o)
 .debug_loc     0x00000000000273f6      0xb4f /usr/local/ps3dev/ppu/lib/gcc/powerpc64-ps3-elf/7.2.0/../../../../powerpc64-ps3-elf/lib/libc.a(lib_a-signal.o)
 .debug_loc     0x0000000000027f45       0xab /usr/local/ps3dev/ppu/lib/gcc/powerpc64-ps3-elf/7.2.0/../../../../powerpc64-ps3-elf/lib/libsysbase.a(close.o)
 .debug_loc     0x0000000000027ff0       0xab /usr/local/ps3dev/ppu/lib/gcc/powerpc64-ps3-elf/7.2.0/../../../../powerpc64-ps3-elf/lib/libsysbase.a(sbrk.o)
 .debug_loc     0x000000000002809b       0x39 /usr/local/ps3dev/ppu/lib/gcc/powerpc64-ps3-elf/7.2.0/../../../../powerpc64-ps3-elf/lib/libsysbase.a(_exit.o)
 .debug_loc     0x00000000000280d4       0xf7 /usr/local/ps3dev/ppu/lib/gcc/powerpc64-ps3-elf/7.2.0/../../../../powerpc64-ps3-elf/lib/libsysbase.a(fstat.o)
 .debug_loc     0x00000000000281cb       0xab /usr/local/ps3dev/ppu/lib/gcc/powerpc64-ps3-elf/7.2.0/../../../../powerpc64-ps3-elf/lib/libsysbase.a(isatty.o)
 .debug_loc     0x0000000000028276      0x143 /usr/local/ps3dev/ppu/lib/gcc/powerpc64-ps3-elf/7.2.0/../../../../powerpc64-ps3-elf/lib/libsysbase.a(lseek.o)
 .debug_loc     0x00000000000283b9      0x143 /usr/local/ps3dev/ppu/lib/gcc/powerpc64-ps3-elf/7.2.0/../../../../powerpc64-ps3-elf/lib/libsysbase.a(read.o)
 .debug_loc     0x00000000000284fc      0x143 /usr/local/ps3dev/ppu/lib/gcc/powerpc64-ps3-elf/7.2.0/../../../../powerpc64-ps3-elf/lib/libsysbase.a(write.o)
 .debug_loc     0x000000000002863f      0x406 /usr/local/ps3dev/ppu/lib/gcc/powerpc64-ps3-elf/7.2.0/../../../../powerpc64-ps3-elf/lib/libsysbase.a(lock.o)
 .debug_loc     0x0000000000028a45       0x5f /usr/local/ps3dev/ppu/lib/gcc/powerpc64-ps3-elf/7.2.0/../../../../powerpc64-ps3-elf/lib/libsysbase.a(getpid.o)
 .debug_loc     0x0000000000028aa4       0x39 /usr/local/ps3dev/ppu/lib/gcc/powerpc64-ps3-elf/7.2.0/../../../../powerpc64-ps3-elf/lib/libsysbase.a(kill.o)

.debug_macinfo
 *(.debug_macinfo)

.debug_weaknames
 *(.debug_weaknames)

.debug_funcnames
 *(.debug_funcnames)

.debug_typenames
 *(.debug_typenames)

.debug_varnames
 *(.debug_varnames)

.debug_pubtypes
 *(.debug_pubtypes)

.debug_ranges   0x0000000000000000     0x2720
 *(.debug_ranges)
 .debug_ranges  0x0000000000000000       0x20 /usr/local/ps3dev/ppu/lib/gcc/powerpc64-ps3-elf/7.2.0/../../../../powerpc64-ps3-elf/lib/libm.a(lib_a-sf_cos.o)
 .debug_ranges  0x0000000000000020       0x20 /usr/local/ps3dev/ppu/lib/gcc/powerpc64-ps3-elf/7.2.0/../../../../powerpc64-ps3-elf/lib/libm.a(lib_a-sf_sin.o)
 .debug_ranges  0x0000000000000040       0x20 /usr/local/ps3dev/ppu/lib/gcc/powerpc64-ps3-elf/7.2.0/../../../../powerpc64-ps3-elf/lib/libm.a(lib_a-sf_tan.o)
 .debug_ranges  0x0000000000000060       0x20 /usr/local/ps3dev/ppu/lib/gcc/powerpc64-ps3-elf/7.2.0/../../../../powerpc64-ps3-elf/lib/libm.a(lib_a-w_sqrt.o)
 .debug_ranges  0x0000000000000080       0x20 /usr/local/ps3dev/ppu/lib/gcc/powerpc64-ps3-elf/7.2.0/../../../../powerpc64-ps3-elf/lib/libm.a(lib_a-wf_sqrt.o)
 .debug_ranges  0x00000000000000a0       0x70 /usr/local/ps3dev/ppu/lib/gcc/powerpc64-ps3-elf/7.2.0/../../../../powerpc64-ps3-elf/lib/libm.a(lib_a-e_sqrt.o)
 .debug_ranges  0x0000000000000110       0x90 /usr/local/ps3dev/ppu/lib/gcc/powerpc64-ps3-elf/7.2.0/../../../../powerpc64-ps3-elf/lib/libm.a(lib_a-ef_rem_pio2.o)
 .debug_ranges  0x00000000000001a0       0x50 /usr/local/ps3dev/ppu/lib/gcc/powerpc64-ps3-elf/7.2.0/../../../../powerpc64-ps3-elf/lib/libm.a(lib_a-ef_sqrt.o)
 .debug_ranges  0x00000000000001f0       0x20 /usr/local/ps3dev/ppu/lib/gcc/powerpc64-ps3-elf/7.2.0/../../../../powerpc64-ps3-elf/lib/libm.a(lib_a-kf_cos.o)
 .debug_ranges  0x0000000000000210       0x20 /usr/local/ps3dev/ppu/lib/gcc/powerpc64-ps3-elf/7.2.0/../../../../powerpc64-ps3-elf/lib/libm.a(lib_a-kf_rem_pio2.o)
 .debug_ranges  0x0000000000000230       0x20 /usr/local/ps3dev/ppu/lib/gcc/powerpc64-ps3-elf/7.2.0/../../../../powerpc64-ps3-elf/lib/libm.a(lib_a-kf_sin.o)
 .debug_ranges  0x0000000000000250       0x80 /usr/local/ps3dev/ppu/lib/gcc/powerpc64-ps3-elf/7.2.0/../../../../powerpc64-ps3-elf/lib/libm.a(lib_a-kf_tan.o)
 .debug_ranges  0x00000000000002d0       0x20 /usr/local/ps3dev/ppu/lib/gcc/powerpc64-ps3-elf/7.2.0/../../../../powerpc64-ps3-elf/lib/libm.a(lib_a-s_fpclassify.o)
 .debug_ranges  0x00000000000002f0       0x20 /usr/local/ps3dev/ppu/lib/gcc/powerpc64-ps3-elf/7.2.0/../../../../powerpc64-ps3-elf/lib/libm.a(lib_a-s_matherr.o)
 .debug_ranges  0x0000000000000310       0x20 /usr/local/ps3dev/ppu/lib/gcc/powerpc64-ps3-elf/7.2.0/../../../../powerpc64-ps3-elf/lib/libm.a(lib_a-sf_fabs.o)
 .debug_ranges  0x0000000000000330       0x50 /usr/local/ps3dev/ppu/lib/gcc/powerpc64-ps3-elf/7.2.0/../../../../powerpc64-ps3-elf/lib/libm.a(lib_a-sf_floor.o)
 .debug_ranges  0x0000000000000380       0x20 /usr/local/ps3dev/ppu/lib/gcc/powerpc64-ps3-elf/7.2.0/../../../../powerpc64-ps3-elf/lib/libm.a(lib_a-sf_fpclassify.o)
 .debug_ranges  0x00000000000003a0       0x80 /usr/local/ps3dev/ppu/lib/gcc/powerpc64-ps3-elf/7.2.0/../../../../powerpc64-ps3-elf/lib/libm.a(lib_a-sf_scalbn.o)
 .debug_ranges  0x0000000000000420       0x20 /usr/local/ps3dev/ppu/lib/gcc/powerpc64-ps3-elf/7.2.0/../../../../powerpc64-ps3-elf/lib/libm.a(lib_a-sf_copysign.o)
 .debug_ranges  0x0000000000000440       0x30 /usr/local/ps3dev/ppu/lib/gcc/powerpc64-ps3-elf/7.2.0/../../../../powerpc64-ps3-elf/lib/libsysbase.a(sleep.o)
 .debug_ranges  0x0000000000000470       0x20 /usr/local/ps3dev/ppu/lib/gcc/powerpc64-ps3-elf/7.2.0/../../../../powerpc64-ps3-elf/lib/libc.a(lib_a-atexit.o)
 .debug_ranges  0x0000000000000490       0x20 /usr/local/ps3dev/ppu/lib/gcc/powerpc64-ps3-elf/7.2.0/../../../../powerpc64-ps3-elf/lib/libc.a(lib_a-calloc.o)
 .debug_ranges  0x00000000000004b0       0x90 /usr/local/ps3dev/ppu/lib/gcc/powerpc64-ps3-elf/7.2.0/../../../../powerpc64-ps3-elf/lib/libc.a(lib_a-callocr.o)
 .debug_ranges  0x0000000000000540       0x20 /usr/local/ps3dev/ppu/lib/gcc/powerpc64-ps3-elf/7.2.0/../../../../powerpc64-ps3-elf/lib/libc.a(lib_a-errno.o)
 .debug_ranges  0x0000000000000560       0x20 /usr/local/ps3dev/ppu/lib/gcc/powerpc64-ps3-elf/7.2.0/../../../../powerpc64-ps3-elf/lib/libc.a(lib_a-exit.o)
 .debug_ranges  0x0000000000000580       0x60 /usr/local/ps3dev/ppu/lib/gcc/powerpc64-ps3-elf/7.2.0/../../../../powerpc64-ps3-elf/lib/libc.a(lib_a-getreent.o)
 .debug_ranges  0x00000000000005e0       0x20 /usr/local/ps3dev/ppu/lib/gcc/powerpc64-ps3-elf/7.2.0/../../../../powerpc64-ps3-elf/lib/libc.a(lib_a-malign.o)
 .debug_ranges  0x0000000000000600       0x20 /usr/local/ps3dev/ppu/lib/gcc/powerpc64-ps3-elf/7.2.0/../../../../powerpc64-ps3-elf/lib/libc.a(lib_a-malignr.o)
 .debug_ranges  0x0000000000000620       0x30 /usr/local/ps3dev/ppu/lib/gcc/powerpc64-ps3-elf/7.2.0/../../../../powerpc64-ps3-elf/lib/libc.a(lib_a-malloc.o)
 .debug_ranges  0x0000000000000650       0xa0 /usr/local/ps3dev/ppu/lib/gcc/powerpc64-ps3-elf/7.2.0/../../../../powerpc64-ps3-elf/lib/libc.a(lib_a-mallocr.o)
 .debug_ranges  0x00000000000006f0       0x20 /usr/local/ps3dev/ppu/lib/gcc/powerpc64-ps3-elf/7.2.0/../../../../powerpc64-ps3-elf/lib/libc.a(lib_a-memcpy.o)
 .debug_ranges  0x0000000000000710       0x20 /usr/local/ps3dev/ppu/lib/gcc/powerpc64-ps3-elf/7.2.0/../../../../powerpc64-ps3-elf/lib/libc.a(lib_a-memset.o)
 .debug_ranges  0x0000000000000730       0x30 /usr/local/ps3dev/ppu/lib/gcc/powerpc64-ps3-elf/7.2.0/../../../../powerpc64-ps3-elf/lib/libc.a(lib_a-mlock.o)
 .debug_ranges  0x0000000000000760       0x30 /usr/local/ps3dev/ppu/lib/gcc/powerpc64-ps3-elf/7.2.0/../../../../powerpc64-ps3-elf/lib/libc.a(lib_a-puts.o)
 .debug_ranges  0x0000000000000790       0x30 /usr/local/ps3dev/ppu/lib/gcc/powerpc64-ps3-elf/7.2.0/../../../../powerpc64-ps3-elf/lib/libc.a(lib_a-sscanf.o)
 .debug_ranges  0x00000000000007c0       0x60 /usr/local/ps3dev/ppu/lib/gcc/powerpc64-ps3-elf/7.2.0/../../../../powerpc64-ps3-elf/lib/libc.a(lib_a-stdio.o)
 .debug_ranges  0x0000000000000820       0x80 /usr/local/ps3dev/ppu/lib/gcc/powerpc64-ps3-elf/7.2.0/../../../../powerpc64-ps3-elf/lib/libc.a(lib_a-strcasecmp.o)
 .debug_ranges  0x00000000000008a0       0x20 /usr/local/ps3dev/ppu/lib/gcc/powerpc64-ps3-elf/7.2.0/../../../../powerpc64-ps3-elf/lib/libc.a(lib_a-strlen.o)
 .debug_ranges  0x00000000000008c0       0x20 /usr/local/ps3dev/ppu/lib/gcc/powerpc64-ps3-elf/7.2.0/../../../../powerpc64-ps3-elf/lib/libc.a(lib_a-strncpy.o)
 .debug_ranges  0x00000000000008e0      0x350 /usr/local/ps3dev/ppu/lib/gcc/powerpc64-ps3-elf/7.2.0/../../../../powerpc64-ps3-elf/lib/libc.a(lib_a-svfscanf.o)
 .debug_ranges  0x0000000000000c30       0x30 /usr/local/ps3dev/ppu/lib/gcc/powerpc64-ps3-elf/7.2.0/../../../../powerpc64-ps3-elf/lib/libc.a(lib_a-vsnprintf.o)
 .debug_ranges  0x0000000000000c60       0x30 /usr/local/ps3dev/ppu/lib/gcc/powerpc64-ps3-elf/7.2.0/../../../../powerpc64-ps3-elf/lib/libc.a(lib_a-vsprintf.o)
 .debug_ranges  0x0000000000000c90       0x20 /usr/local/ps3dev/ppu/lib/gcc/powerpc64-ps3-elf/7.2.0/../../../../powerpc64-ps3-elf/lib/libc.a(lib_a-__atexit.o)
 .debug_ranges  0x0000000000000cb0       0x80 /usr/local/ps3dev/ppu/lib/gcc/powerpc64-ps3-elf/7.2.0/../../../../powerpc64-ps3-elf/lib/libc.a(lib_a-__call_atexit.o)
 .debug_ranges  0x0000000000000d30       0x30 /usr/local/ps3dev/ppu/lib/gcc/powerpc64-ps3-elf/7.2.0/../../../../powerpc64-ps3-elf/lib/libc.a(lib_a-freer.o)
 .debug_ranges  0x0000000000000d60       0x60 /usr/local/ps3dev/ppu/lib/gcc/powerpc64-ps3-elf/7.2.0/../../../../powerpc64-ps3-elf/lib/libc.a(lib_a-fvwrite.o)
 .debug_ranges  0x0000000000000dc0       0x20 /usr/local/ps3dev/ppu/lib/gcc/powerpc64-ps3-elf/7.2.0/../../../../powerpc64-ps3-elf/lib/libc.a(lib_a-iswspace.o)
 .debug_ranges  0x0000000000000de0       0xc0 /usr/local/ps3dev/ppu/lib/gcc/powerpc64-ps3-elf/7.2.0/../../../../powerpc64-ps3-elf/lib/libc.a(lib_a-locale.o)
 .debug_ranges  0x0000000000000ea0       0x60 /usr/local/ps3dev/ppu/lib/gcc/powerpc64-ps3-elf/7.2.0/../../../../powerpc64-ps3-elf/lib/libc.a(lib_a-lock_recursive.o)
 .debug_ranges  0x0000000000000f00       0x30 /usr/local/ps3dev/ppu/lib/gcc/powerpc64-ps3-elf/7.2.0/../../../../powerpc64-ps3-elf/lib/libc.a(lib_a-mbrtowc.o)
 .debug_ranges  0x0000000000000f30       0x30 /usr/local/ps3dev/ppu/lib/gcc/powerpc64-ps3-elf/7.2.0/../../../../powerpc64-ps3-elf/lib/libc.a(lib_a-mbtowc_r.o)
 .debug_ranges  0x0000000000000f60       0x20 /usr/local/ps3dev/ppu/lib/gcc/powerpc64-ps3-elf/7.2.0/../../../../powerpc64-ps3-elf/lib/libc.a(lib_a-memchr.o)
 .debug_ranges  0x0000000000000f80       0x20 /usr/local/ps3dev/ppu/lib/gcc/powerpc64-ps3-elf/7.2.0/../../../../powerpc64-ps3-elf/lib/libc.a(lib_a-memmove.o)
 .debug_ranges  0x0000000000000fa0      0x350 /usr/local/ps3dev/ppu/lib/gcc/powerpc64-ps3-elf/7.2.0/../../../../powerpc64-ps3-elf/lib/libc.a(lib_a-reallocr.o)
 .debug_ranges  0x00000000000012f0       0x20 /usr/local/ps3dev/ppu/lib/gcc/powerpc64-ps3-elf/7.2.0/../../../../powerpc64-ps3-elf/lib/libc.a(lib_a-sccl.o)
 .debug_ranges  0x0000000000001310       0x20 /usr/local/ps3dev/ppu/lib/gcc/powerpc64-ps3-elf/7.2.0/../../../../powerpc64-ps3-elf/lib/libc.a(lib_a-sf_nan.o)
 .debug_ranges  0x0000000000001330       0x30 /usr/local/ps3dev/ppu/lib/gcc/powerpc64-ps3-elf/7.2.0/../../../../powerpc64-ps3-elf/lib/libc.a(lib_a-sprintf.o)
 .debug_ranges  0x0000000000001360       0x20 /usr/local/ps3dev/ppu/lib/gcc/powerpc64-ps3-elf/7.2.0/../../../../powerpc64-ps3-elf/lib/libc.a(lib_a-strcmp.o)
 .debug_ranges  0x0000000000001380      0x150 /usr/local/ps3dev/ppu/lib/gcc/powerpc64-ps3-elf/7.2.0/../../../../powerpc64-ps3-elf/lib/libc.a(lib_a-strtod.o)
 .debug_ranges  0x00000000000014d0       0x30 /usr/local/ps3dev/ppu/lib/gcc/powerpc64-ps3-elf/7.2.0/../../../../powerpc64-ps3-elf/lib/libc.a(lib_a-strtol.o)
 .debug_ranges  0x0000000000001500       0x20 /usr/local/ps3dev/ppu/lib/gcc/powerpc64-ps3-elf/7.2.0/../../../../powerpc64-ps3-elf/lib/libc.a(lib_a-strtoll_r.o)
 .debug_ranges  0x0000000000001520       0x30 /usr/local/ps3dev/ppu/lib/gcc/powerpc64-ps3-elf/7.2.0/../../../../powerpc64-ps3-elf/lib/libc.a(lib_a-strtoul.o)
 .debug_ranges  0x0000000000001550       0x20 /usr/local/ps3dev/ppu/lib/gcc/powerpc64-ps3-elf/7.2.0/../../../../powerpc64-ps3-elf/lib/libc.a(lib_a-strtoull_r.o)
 .debug_ranges  0x0000000000001570      0x220 /usr/local/ps3dev/ppu/lib/gcc/powerpc64-ps3-elf/7.2.0/../../../../powerpc64-ps3-elf/lib/libc.a(lib_a-svfiscanf.o)
 .debug_ranges  0x0000000000001790      0x330 /usr/local/ps3dev/ppu/lib/gcc/powerpc64-ps3-elf/7.2.0/../../../../powerpc64-ps3-elf/lib/libc.a(lib_a-svfprintf.o)
 .debug_ranges  0x0000000000001ac0       0x90 /usr/local/ps3dev/ppu/lib/gcc/powerpc64-ps3-elf/7.2.0/../../../../powerpc64-ps3-elf/lib/libc.a(lib_a-ungetc.o)
 .debug_ranges  0x0000000000001b50       0x20 /usr/local/ps3dev/ppu/lib/gcc/powerpc64-ps3-elf/7.2.0/../../../../powerpc64-ps3-elf/lib/libc.a(lib_a-wsetup.o)
 .debug_ranges  0x0000000000001b70       0x30 /usr/local/ps3dev/ppu/lib/gcc/powerpc64-ps3-elf/7.2.0/../../../../powerpc64-ps3-elf/lib/libc.a(lib_a-dtoa.o)
 .debug_ranges  0x0000000000001ba0      0x100 /usr/local/ps3dev/ppu/lib/gcc/powerpc64-ps3-elf/7.2.0/../../../../powerpc64-ps3-elf/lib/libc.a(lib_a-fflush.o)
 .debug_ranges  0x0000000000001ca0      0x200 /usr/local/ps3dev/ppu/lib/gcc/powerpc64-ps3-elf/7.2.0/../../../../powerpc64-ps3-elf/lib/libc.a(lib_a-findfp.o)
 .debug_ranges  0x0000000000001ea0       0x30 /usr/local/ps3dev/ppu/lib/gcc/powerpc64-ps3-elf/7.2.0/../../../../powerpc64-ps3-elf/lib/libc.a(lib_a-fwalk.o)
 .debug_ranges  0x0000000000001ed0       0x90 /usr/local/ps3dev/ppu/lib/gcc/powerpc64-ps3-elf/7.2.0/../../../../powerpc64-ps3-elf/lib/libc.a(lib_a-gdtoa-gethex.o)
 .debug_ranges  0x0000000000001f60       0x20 /usr/local/ps3dev/ppu/lib/gcc/powerpc64-ps3-elf/7.2.0/../../../../powerpc64-ps3-elf/lib/libc.a(lib_a-gdtoa-hexnan.o)
 .debug_ranges  0x0000000000001f80       0x30 /usr/local/ps3dev/ppu/lib/gcc/powerpc64-ps3-elf/7.2.0/../../../../powerpc64-ps3-elf/lib/libc.a(lib_a-lock_internal.o)
 .debug_ranges  0x0000000000001fb0       0x20 /usr/local/ps3dev/ppu/lib/gcc/powerpc64-ps3-elf/7.2.0/../../../../powerpc64-ps3-elf/lib/libc.a(lib_a-makebuf.o)
 .debug_ranges  0x0000000000001fd0      0x2d0 /usr/local/ps3dev/ppu/lib/gcc/powerpc64-ps3-elf/7.2.0/../../../../powerpc64-ps3-elf/lib/libc.a(lib_a-mprec.o)
 .debug_ranges  0x00000000000022a0       0x20 /usr/local/ps3dev/ppu/lib/gcc/powerpc64-ps3-elf/7.2.0/../../../../powerpc64-ps3-elf/lib/libc.a(lib_a-strncmp.o)
 .debug_ranges  0x00000000000022c0       0xc0 /usr/local/ps3dev/ppu/lib/gcc/powerpc64-ps3-elf/7.2.0/../../../../powerpc64-ps3-elf/lib/libc.a(lib_a-svfiprintf.o)
 .debug_ranges  0x0000000000002380       0x20 /usr/local/ps3dev/ppu/lib/gcc/powerpc64-ps3-elf/7.2.0/../../../../powerpc64-ps3-elf/lib/libc.a(lib_a-abort.o)
 .debug_ranges  0x00000000000023a0       0x60 /usr/local/ps3dev/ppu/lib/gcc/powerpc64-ps3-elf/7.2.0/../../../../powerpc64-ps3-elf/lib/libc.a(lib_a-fclose.o)
 .debug_ranges  0x0000000000002400      0x180 /usr/local/ps3dev/ppu/lib/gcc/powerpc64-ps3-elf/7.2.0/../../../../powerpc64-ps3-elf/lib/libc.a(lib_a-signal.o)
 .debug_ranges  0x0000000000002580       0x20 /usr/local/ps3dev/ppu/lib/gcc/powerpc64-ps3-elf/7.2.0/../../../../powerpc64-ps3-elf/lib/libsysbase.a(close.o)
 .debug_ranges  0x00000000000025a0       0x20 /usr/local/ps3dev/ppu/lib/gcc/powerpc64-ps3-elf/7.2.0/../../../../powerpc64-ps3-elf/lib/libsysbase.a(sbrk.o)
 .debug_ranges  0x00000000000025c0       0x20 /usr/local/ps3dev/ppu/lib/gcc/powerpc64-ps3-elf/7.2.0/../../../../powerpc64-ps3-elf/lib/libsysbase.a(_exit.o)
 .debug_ranges  0x00000000000025e0       0x20 /usr/local/ps3dev/ppu/lib/gcc/powerpc64-ps3-elf/7.2.0/../../../../powerpc64-ps3-elf/lib/libsysbase.a(fstat.o)
 .debug_ranges  0x0000000000002600       0x20 /usr/local/ps3dev/ppu/lib/gcc/powerpc64-ps3-elf/7.2.0/../../../../powerpc64-ps3-elf/lib/libsysbase.a(isatty.o)
 .debug_ranges  0x0000000000002620       0x20 /usr/local/ps3dev/ppu/lib/gcc/powerpc64-ps3-elf/7.2.0/../../../../powerpc64-ps3-elf/lib/libsysbase.a(lseek.o)
 .debug_ranges  0x0000000000002640       0x20 /usr/local/ps3dev/ppu/lib/gcc/powerpc64-ps3-elf/7.2.0/../../../../powerpc64-ps3-elf/lib/libsysbase.a(read.o)
 .debug_ranges  0x0000000000002660       0x20 /usr/local/ps3dev/ppu/lib/gcc/powerpc64-ps3-elf/7.2.0/../../../../powerpc64-ps3-elf/lib/libsysbase.a(write.o)
 .debug_ranges  0x0000000000002680       0x60 /usr/local/ps3dev/ppu/lib/gcc/powerpc64-ps3-elf/7.2.0/../../../../powerpc64-ps3-elf/lib/libsysbase.a(lock.o)
 .debug_ranges  0x00000000000026e0       0x20 /usr/local/ps3dev/ppu/lib/gcc/powerpc64-ps3-elf/7.2.0/../../../../powerpc64-ps3-elf/lib/libsysbase.a(getpid.o)
 .debug_ranges  0x0000000000002700       0x20 /usr/local/ps3dev/ppu/lib/gcc/powerpc64-ps3-elf/7.2.0/../../../../powerpc64-ps3-elf/lib/libsysbase.a(kill.o)

.gnu.attributes
                0x0000000000000000      0x1d0
 *(.gnu.attributes)
 .gnu.attributes
                0x0000000000000000       0x10 main.o
 .gnu.attributes
                0x0000000000000010       0x10 /usr/local/ps3dev/portlibs/ppu/lib/libfont.a(libfont.o)
 .gnu.attributes
                0x0000000000000020       0x10 /home/scristaldi/tiny3d_Estwald_work/fonts/libtiny3d_.a(tiny3d.o)
 .gnu.attributes
                0x0000000000000030       0x10 /home/scristaldi/tiny3d_Estwald_work/fonts/libtiny3d_.a(matrix.o)
 .gnu.attributes
                0x0000000000000040       0x10 /home/scristaldi/tiny3d_Estwald_work/fonts/libtiny3d_.a(commands.o)
 .gnu.attributes
                0x0000000000000050       0x10 /usr/local/ps3dev/ppu/lib/gcc/powerpc64-ps3-elf/7.2.0/../../../../powerpc64-ps3-elf/lib/libm.a(lib_a-sf_cos.o)
 .gnu.attributes
                0x0000000000000060       0x10 /usr/local/ps3dev/ppu/lib/gcc/powerpc64-ps3-elf/7.2.0/../../../../powerpc64-ps3-elf/lib/libm.a(lib_a-sf_sin.o)
 .gnu.attributes
                0x0000000000000070       0x10 /usr/local/ps3dev/ppu/lib/gcc/powerpc64-ps3-elf/7.2.0/../../../../powerpc64-ps3-elf/lib/libm.a(lib_a-sf_tan.o)
 .gnu.attributes
                0x0000000000000080       0x10 /usr/local/ps3dev/ppu/lib/gcc/powerpc64-ps3-elf/7.2.0/../../../../powerpc64-ps3-elf/lib/libm.a(lib_a-w_sqrt.o)
 .gnu.attributes
                0x0000000000000090       0x10 /usr/local/ps3dev/ppu/lib/gcc/powerpc64-ps3-elf/7.2.0/../../../../powerpc64-ps3-elf/lib/libm.a(lib_a-wf_sqrt.o)
 .gnu.attributes
                0x00000000000000a0       0x10 /usr/local/ps3dev/ppu/lib/gcc/powerpc64-ps3-elf/7.2.0/../../../../powerpc64-ps3-elf/lib/libm.a(lib_a-e_sqrt.o)
 .gnu.attributes
                0x00000000000000b0       0x10 /usr/local/ps3dev/ppu/lib/gcc/powerpc64-ps3-elf/7.2.0/../../../../powerpc64-ps3-elf/lib/libm.a(lib_a-ef_rem_pio2.o)
 .gnu.attributes
                0x00000000000000c0       0x10 /usr/local/ps3dev/ppu/lib/gcc/powerpc64-ps3-elf/7.2.0/../../../../powerpc64-ps3-elf/lib/libm.a(lib_a-ef_sqrt.o)
 .gnu.attributes
                0x00000000000000d0       0x10 /usr/local/ps3dev/ppu/lib/gcc/powerpc64-ps3-elf/7.2.0/../../../../powerpc64-ps3-elf/lib/libm.a(lib_a-kf_cos.o)
 .gnu.attributes
                0x00000000000000e0       0x10 /usr/local/ps3dev/ppu/lib/gcc/powerpc64-ps3-elf/7.2.0/../../../../powerpc64-ps3-elf/lib/libm.a(lib_a-kf_rem_pio2.o)
 .gnu.attributes
                0x00000000000000f0       0x10 /usr/local/ps3dev/ppu/lib/gcc/powerpc64-ps3-elf/7.2.0/../../../../powerpc64-ps3-elf/lib/libm.a(lib_a-kf_sin.o)
 .gnu.attributes
                0x0000000000000100       0x10 /usr/local/ps3dev/ppu/lib/gcc/powerpc64-ps3-elf/7.2.0/../../../../powerpc64-ps3-elf/lib/libm.a(lib_a-kf_tan.o)
 .gnu.attributes
                0x0000000000000110       0x10 /usr/local/ps3dev/ppu/lib/gcc/powerpc64-ps3-elf/7.2.0/../../../../powerpc64-ps3-elf/lib/libm.a(lib_a-s_fpclassify.o)
 .gnu.attributes
                0x0000000000000120       0x10 /usr/local/ps3dev/ppu/lib/gcc/powerpc64-ps3-elf/7.2.0/../../../../powerpc64-ps3-elf/lib/libm.a(lib_a-sf_fabs.o)
 .gnu.attributes
                0x0000000000000130       0x10 /usr/local/ps3dev/ppu/lib/gcc/powerpc64-ps3-elf/7.2.0/../../../../powerpc64-ps3-elf/lib/libm.a(lib_a-sf_floor.o)
 .gnu.attributes
                0x0000000000000140       0x10 /usr/local/ps3dev/ppu/lib/gcc/powerpc64-ps3-elf/7.2.0/../../../../powerpc64-ps3-elf/lib/libm.a(lib_a-sf_fpclassify.o)
 .gnu.attributes
                0x0000000000000150       0x10 /usr/local/ps3dev/ppu/lib/gcc/powerpc64-ps3-elf/7.2.0/../../../../powerpc64-ps3-elf/lib/libm.a(lib_a-sf_scalbn.o)
 .gnu.attributes
                0x0000000000000160       0x10 /usr/local/ps3dev/ppu/lib/gcc/powerpc64-ps3-elf/7.2.0/../../../../powerpc64-ps3-elf/lib/libm.a(lib_a-sf_copysign.o)
 .gnu.attributes
                0x0000000000000170       0x10 /usr/local/ps3dev/ppu/lib/gcc/powerpc64-ps3-elf/7.2.0/../../../../powerpc64-ps3-elf/lib/libc.a(lib_a-svfscanf.o)
 .gnu.attributes
                0x0000000000000180       0x10 /usr/local/ps3dev/ppu/lib/gcc/powerpc64-ps3-elf/7.2.0/../../../../powerpc64-ps3-elf/lib/libc.a(lib_a-sf_nan.o)
 .gnu.attributes
                0x0000000000000190       0x10 /usr/local/ps3dev/ppu/lib/gcc/powerpc64-ps3-elf/7.2.0/../../../../powerpc64-ps3-elf/lib/libc.a(lib_a-strtod.o)
 .gnu.attributes
                0x00000000000001a0       0x10 /usr/local/ps3dev/ppu/lib/gcc/powerpc64-ps3-elf/7.2.0/../../../../powerpc64-ps3-elf/lib/libc.a(lib_a-svfprintf.o)
 .gnu.attributes
                0x00000000000001b0       0x10 /usr/local/ps3dev/ppu/lib/gcc/powerpc64-ps3-elf/7.2.0/../../../../powerpc64-ps3-elf/lib/libc.a(lib_a-dtoa.o)
 .gnu.attributes
                0x00000000000001c0       0x10 /usr/local/ps3dev/ppu/lib/gcc/powerpc64-ps3-elf/7.2.0/../../../../powerpc64-ps3-elf/lib/libc.a(lib_a-mprec.o)

/DISCARD/
 *(.note.GNU-stack)
 *(.gnu_debuglink)
LOAD /usr/local/ps3dev/ppu/lib/gcc/powerpc64-ps3-elf/7.2.0/../../../../powerpc64-ps3-elf/lib/lv2-crti.o
LOAD /usr/local/ps3dev/ppu/lib/gcc/powerpc64-ps3-elf/7.2.0/crtbegin.o
LOAD /usr/local/ps3dev/ppu/lib/gcc/powerpc64-ps3-elf/7.2.0/../../../../powerpc64-ps3-elf/lib/lv2-crt0.o
LOAD /usr/local/ps3dev/ppu/lib/gcc/powerpc64-ps3-elf/7.2.0/../../../../powerpc64-ps3-elf/lib/lv2-sprx.o
LOAD msxfont.o
LOAD main.o
LOAD font_b.o
LOAD font.o
LOAD /usr/local/ps3dev/portlibs/ppu/lib/libfont.a
LOAD /home/scristaldi/tiny3d_Estwald_work/fonts/libtiny3d_.a
LOAD /usr/local/ps3dev/psl1ght/ppu/lib/librsx.a
LOAD /usr/local/ps3dev/psl1ght/ppu/lib/libsimdmath.a
LOAD /usr/local/ps3dev/psl1ght/ppu/lib/libgcm_sys.a
LOAD /usr/local/ps3dev/psl1ght/ppu/lib/libio.a
LOAD /usr/local/ps3dev/psl1ght/ppu/lib/libsysutil.a
LOAD /usr/local/ps3dev/psl1ght/ppu/lib/librt.a
LOAD /usr/local/ps3dev/psl1ght/ppu/lib/liblv2.a
LOAD /usr/local/ps3dev/psl1ght/ppu/lib/libnet.a
LOAD /usr/local/ps3dev/psl1ght/ppu/lib/libsysmodule.a
LOAD /usr/local/ps3dev/ppu/lib/gcc/powerpc64-ps3-elf/7.2.0/../../../../powerpc64-ps3-elf/lib/libm.a
LOAD /usr/local/ps3dev/ppu/lib/gcc/powerpc64-ps3-elf/7.2.0/libgcc.a
START GROUP
LOAD /usr/local/ps3dev/ppu/lib/gcc/powerpc64-ps3-elf/7.2.0/../../../../powerpc64-ps3-elf/lib/libsysbase.a
LOAD /usr/local/ps3dev/ppu/lib/gcc/powerpc64-ps3-elf/7.2.0/../../../../powerpc64-ps3-elf/lib/libc.a
LOAD /usr/local/ps3dev/psl1ght/ppu/lib/librt.a
LOAD /usr/local/ps3dev/psl1ght/ppu/lib/liblv2.a
END GROUP
LOAD /usr/local/ps3dev/ppu/lib/gcc/powerpc64-ps3-elf/7.2.0/libgcc.a
LOAD /usr/local/ps3dev/ppu/lib/gcc/powerpc64-ps3-elf/7.2.0/crtend.o
LOAD /usr/local/ps3dev/ppu/lib/gcc/powerpc64-ps3-elf/7.2.0/../../../../powerpc64-ps3-elf/lib/lv2-crtn.o
OUTPUT(/home/scristaldi/tiny3d_Estwald_work/fonts/fonts.elf elf64-powerpc)
